 SparCraft

 Timestamp is 5300e545 (Sun Feb 16 17:20:21 2014)

 Preferred load address is 00400000

 Start         Length     Name                   Class
 0001:00000000 00052260H .text                   CODE
 0001:00052260 00003238H .text$x                 CODE
 0001:000554a0 0000762eH .text$yc                CODE
 0001:0005cad0 0000178bH .text$yd                CODE
 0002:00000000 0000032cH .idata$5                DATA
 0002:0000032c 00000004H .CRT$XCA                DATA
 0002:00000330 00000004H .CRT$XCAA               DATA
 0002:00000334 00000004H .CRT$XCL                DATA
 0002:00000338 00000a38H .CRT$XCU                DATA
 0002:00000d70 00000004H .CRT$XCZ                DATA
 0002:00000d74 00000004H .CRT$XIA                DATA
 0002:00000d78 00000004H .CRT$XIAA               DATA
 0002:00000d7c 00000004H .CRT$XIC                DATA
 0002:00000d80 00000004H .CRT$XIY                DATA
 0002:00000d84 00000004H .CRT$XIZ                DATA
 0002:00000d90 00004b78H .rdata                  DATA
 0002:00005908 00000078H .rdata$debug            DATA
 0002:00005980 00000f58H .rdata$r                DATA
 0002:000068e0 000002f4H .rdata$sxdata           DATA
 0002:00006bd4 00000004H .rtc$IAA                DATA
 0002:00006bd8 00000004H .rtc$IZZ                DATA
 0002:00006bdc 00000004H .rtc$TAA                DATA
 0002:00006be0 00000004H .rtc$TZZ                DATA
 0002:00006be8 00003ef8H .xdata$x                DATA
 0002:0000aae0 00000078H .idata$2                DATA
 0002:0000ab58 00000014H .idata$3                DATA
 0002:0000ab6c 0000032cH .idata$4                DATA
 0002:0000ae98 00001914H .idata$6                DATA
 0002:0000c7ac 00000000H .edata                  DATA
 0003:00000000 00001c50H .data                   DATA
 0003:00001c50 0001d2d8H .bss                    DATA
 0004:00000000 00000058H .rsrc$01                DATA
 0004:00000060 00000268H .rsrc$02                DATA

  Address         Publics by Value              Rva+Base       Lib:Object

 0000:00000000       __except_list              00000000     <absolute>
 0000:000000bd       ___safe_se_handler_count   000000bd     <absolute>
 0000:00009876       __ldused                   00009876     <absolute>
 0000:00009876       __fltused                  00009876     <absolute>
 0000:00000000       ___ImageBase               00400000     <linker-defined>
 0001:00000000       ?sp_enable_shared_from_this@detail@boost@@YAXZZ 00401000 f i SearchExperiment.obj
 0001:00000000       ??3@YAXPAX0@Z              00401000 f i main.obj
 0001:00000010       ?copy@?$char_traits@D@std@@SAPADPADPBDI@Z 00401010 f i main.obj
 0001:00000030       ?move@?$char_traits@D@std@@SAPADPADPBDI@Z 00401030 f i main.obj
 0001:00000050       ??_E_Generic_error_category@std@@UAEPAXI@Z 00401050 f i * CIL library *:* CIL module *
 0001:00000050       ??_Eerror_category@std@@UAEPAXI@Z 00401050 f i * CIL library *:* CIL module *
 0001:00000050       ??_E_Iostream_error_category@std@@UAEPAXI@Z 00401050 f i * CIL library *:* CIL module *
 0001:00000050       ??_Gerror_category@std@@UAEPAXI@Z 00401050 f i main.obj
 0001:00000050       ??_E_System_error_category@std@@UAEPAXI@Z 00401050 f i * CIL library *:* CIL module *
 0001:00000050       ??_G_Generic_error_category@std@@UAEPAXI@Z 00401050 f i main.obj
 0001:00000050       ??_G_System_error_category@std@@UAEPAXI@Z 00401050 f i main.obj
 0001:00000050       ??_G_Iostream_error_category@std@@UAEPAXI@Z 00401050 f i main.obj
 0001:00000070       ?default_error_condition@error_category@std@@UBE?AVerror_condition@2@H@Z 00401070 f i main.obj
 0001:00000080       ?equivalent@error_category@std@@UBE_NHABVerror_condition@2@@Z 00401080 f i main.obj
 0001:000000c0       ?equivalent@error_category@std@@UBE_NABVerror_code@2@H@Z 004010c0 f i main.obj
 0001:000000e0       ?name@_Generic_error_category@std@@UBEPBDXZ 004010e0 f i main.obj
 0001:000000f0       ?message@_Generic_error_category@std@@UBE?AV?$basic_string@DU?$char_traits@D@std@@V?$allocator@D@2@@2@H@Z 004010f0 f i main.obj
 0001:00000160       ?name@_Iostream_error_category@std@@UBEPBDXZ 00401160 f i main.obj
 0001:00000170       ?message@_Iostream_error_category@std@@UBE?AV?$basic_string@DU?$char_traits@D@std@@V?$allocator@D@2@@2@H@Z 00401170 f i main.obj
 0001:000001c0       ?name@_System_error_category@std@@UBEPBDXZ 004011c0 f i main.obj
 0001:000001d0       ?message@_System_error_category@std@@UBE?AV?$basic_string@DU?$char_traits@D@std@@V?$allocator@D@2@@2@H@Z 004011d0 f i main.obj
 0001:00000240       ?default_error_condition@_System_error_category@std@@UBE?AVerror_condition@2@H@Z 00401240 f i main.obj
 0001:00000270       _SDL_main                  00401270 f   main.obj
 0001:000003b0       ??0?$basic_string@DU?$char_traits@D@std@@V?$allocator@D@2@@std@@QAE@XZ 004013b0 f i main.obj
 0001:000003d0       ??0?$basic_string@DU?$char_traits@D@std@@V?$allocator@D@2@@std@@QAE@PBD@Z 004013d0 f i main.obj
 0001:00000420       ??1?$pair@V?$basic_string@DU?$char_traits@D@std@@V?$allocator@D@2@@std@@VTechType@BWAPI@@@std@@QAE@XZ 00401420 f i BWAPI:TechType.obj
 0001:00000420       ??1?$pair@V?$basic_string@DU?$char_traits@D@std@@V?$allocator@D@2@@std@@VWeaponType@BWAPI@@@std@@QAE@XZ 00401420 f i BWAPI:WeaponType.obj
 0001:00000420       ??1?$pair@V?$basic_string@DU?$char_traits@D@std@@V?$allocator@D@2@@std@@VExplosionType@BWAPI@@@std@@QAE@XZ 00401420 f i BWAPI:ExplosionType.obj
 0001:00000420       ??1?$pair@V?$basic_string@DU?$char_traits@D@std@@V?$allocator@D@2@@std@@VError@BWAPI@@@std@@QAE@XZ 00401420 f i BWAPI:Error.obj
 0001:00000420       ??1RaceInternal@BWAPI@@QAE@XZ 00401420 f i BWAPI:Race.obj
 0001:00000420       ??1?$pair@V?$basic_string@DU?$char_traits@D@std@@V?$allocator@D@2@@std@@VRace@BWAPI@@@std@@QAE@XZ 00401420 f i BWAPI:Race.obj
 0001:00000420       ??1?$pair@V?$basic_string@DU?$char_traits@D@std@@V?$allocator@D@2@@std@@VUnitCommandType@BWAPI@@@std@@QAE@XZ 00401420 f i BWAPI:UnitCommandType.obj
 0001:00000420       ??1?$pair@V?$basic_string@DU?$char_traits@D@std@@V?$allocator@D@2@@std@@VGameType@BWAPI@@@std@@QAE@XZ 00401420 f i BWAPI:GameType.obj
 0001:00000420       ??1?$pair@V?$basic_string@DU?$char_traits@D@std@@V?$allocator@D@2@@std@@VUnitSizeType@BWAPI@@@std@@QAE@XZ 00401420 f i BWAPI:UnitSizeType.obj
 0001:00000420       ??1?$pair@V?$basic_string@DU?$char_traits@D@std@@V?$allocator@D@2@@std@@VBulletType@BWAPI@@@std@@QAE@XZ 00401420 f i BWAPI:BulletType.obj
 0001:00000420       ??1?$pair@V?$basic_string@DU?$char_traits@D@std@@V?$allocator@D@2@@std@@VUpgradeType@BWAPI@@@std@@QAE@XZ 00401420 f i BWAPI:UpgradeType.obj
 0001:00000420       ??1?$basic_string@DU?$char_traits@D@std@@V?$allocator@D@2@@std@@QAE@XZ 00401420 f i main.obj
 0001:00000420       ??1?$pair@V?$basic_string@DU?$char_traits@D@std@@V?$allocator@D@2@@std@@VOrder@BWAPI@@@std@@QAE@XZ 00401420 f i BWAPI:Order.obj
 0001:00000420       ??1?$pair@V?$basic_string@DU?$char_traits@D@std@@V?$allocator@D@2@@std@@VDamageType@BWAPI@@@std@@QAE@XZ 00401420 f i BWAPI:DamageType.obj
 0001:00000420       ??1?$pair@V?$basic_string@DU?$char_traits@D@std@@V?$allocator@D@2@@std@@VUnitType@BWAPI@@@std@@QAE@XZ 00401420 f i BWAPI:UnitType.obj
 0001:00000420       ??1?$pair@V?$basic_string@DU?$char_traits@D@std@@V?$allocator@D@2@@std@@H@std@@QAE@XZ 00401420 f i SparCraft:EnumData.obj
 0001:00000420       ??1WeaponTypeInternal@BWAPI@@QAE@XZ 00401420 f i BWAPI:WeaponType.obj
 0001:00000420       ??1?$pair@V?$basic_string@DU?$char_traits@D@std@@V?$allocator@D@2@@std@@VPlayerType@BWAPI@@@std@@QAE@XZ 00401420 f i BWAPI:PlayerType.obj
 0001:00000450       ??0?$vector@VUnitAction@SparCraft@@V?$allocator@VUnitAction@SparCraft@@@std@@@std@@QAE@XZ 00401450 f i TutorialCode.obj
 0001:00000450       ??0?$vector@V?$basic_string@DU?$char_traits@D@std@@V?$allocator@D@2@@std@@V?$allocator@V?$basic_string@DU?$char_traits@D@std@@V?$allocator@D@2@@std@@@2@@std@@QAE@XZ 00401450 f i main.obj
 0001:00000450       ??0?$vector@HV?$allocator@H@std@@@std@@QAE@XZ 00401450 f i SearchExperiment.obj
 0001:00000450       ??0?$vector@V?$vector@V?$basic_string@DU?$char_traits@D@std@@V?$allocator@D@2@@std@@V?$allocator@V?$basic_string@DU?$char_traits@D@std@@V?$allocator@D@2@@std@@@2@@std@@V?$allocator@V?$vector@V?$basic_string@DU?$char_traits@D@std@@V?$allocator@D@2@@std@@V?$allocator@V?$basic_string@DU?$char_traits@D@std@@V?$allocator@D@2@@std@@@2@@std@@@2@@std@@QAE@XZ 00401450 f i SearchExperiment.obj
 0001:00000450       ??0?$vector@EV?$allocator@E@std@@@std@@QAE@XZ 00401450 f i SearchExperiment.obj
 0001:00000450       ??0?$vector@V?$shared_ptr@VPlayer@SparCraft@@@boost@@V?$allocator@V?$shared_ptr@VPlayer@SparCraft@@@boost@@@std@@@std@@QAE@XZ 00401450 f i SearchExperiment.obj
 0001:00000470       ?_Tidy@?$vector@V?$basic_string@DU?$char_traits@D@std@@V?$allocator@D@2@@std@@V?$allocator@V?$basic_string@DU?$char_traits@D@std@@V?$allocator@D@2@@std@@@2@@std@@IAEXXZ 00401470 f i main.obj
 0001:00000470       ??1?$vector@V?$basic_string@DU?$char_traits@D@std@@V?$allocator@D@2@@std@@V?$allocator@V?$basic_string@DU?$char_traits@D@std@@V?$allocator@D@2@@std@@@2@@std@@QAE@XZ 00401470 f i main.obj
 0001:000004b0       ??_H@YGXPAXIHP6EPAX0@Z@Z   004014b0 f i main.obj
 0001:000004e0       ?assign@?$basic_string@DU?$char_traits@D@std@@V?$allocator@D@2@@std@@QAEAAV12@ABV12@II@Z 004014e0 f i main.obj
 0001:000005e0       ?erase@?$basic_string@DU?$char_traits@D@std@@V?$allocator@D@2@@std@@QAEAAV12@II@Z 004015e0 f i main.obj
 0001:00000680       ?allocate@?$allocator@D@std@@QAEPADI@Z 00401680 f i main.obj
 0001:00000680       ?allocate@?$_Wrap_alloc@V?$allocator@D@std@@@std@@QAEPADI@Z 00401680 f i main.obj
 0001:000006b0       ??1sentry@?$basic_ostream@DU?$char_traits@D@std@@@std@@QAE@XZ 004016b0 f i main.obj
 0001:000006e0       ?assign@?$basic_string@DU?$char_traits@D@std@@V?$allocator@D@2@@std@@QAEAAV12@PBDI@Z 004016e0 f i main.obj
 0001:000007e0       ?_Eos@?$basic_string@DU?$char_traits@D@std@@V?$allocator@D@2@@std@@QAEXI@Z 004017e0 f i main.obj
 0001:00000800       ?_Grow@?$basic_string@DU?$char_traits@D@std@@V?$allocator@D@2@@std@@QAE_NI_N@Z 00401800 f i main.obj
 0001:000008b0       ??0?$_Wrap_alloc@V?$allocator@U?$_Tree_node@VUpgradeType@BWAPI@@PAX@std@@@std@@@std@@QAE@XZ 004018b0 f i BWAPI:UnitType.obj
 0001:000008b0       ??0?$_Wrap_alloc@V?$allocator@U?$_Tree_node@VOrder@BWAPI@@PAX@std@@@std@@@std@@QAE@XZ 004018b0 f i BWAPI:Order.obj
 0001:000008b0       ??0?$_Wrap_alloc@V?$allocator@U?$_Tree_node@VError@BWAPI@@PAX@std@@@std@@@std@@QAE@XZ 004018b0 f i BWAPI:Error.obj
 0001:000008b0       ??0?$_Wrap_alloc@V?$allocator@U?$_Tree_node@VUnitSizeType@BWAPI@@PAX@std@@@std@@@std@@QAE@XZ 004018b0 f i BWAPI:UnitSizeType.obj
 0001:000008b0       ??0?$_Wrap_alloc@V?$allocator@U?$_Tree_node@U?$pair@$$CBV?$basic_string@DU?$char_traits@D@std@@V?$allocator@D@2@@std@@VGameType@BWAPI@@@std@@PAX@std@@@std@@@std@@QAE@XZ 004018b0 f i BWAPI:GameType.obj
 0001:000008b0       ??0?$_Wrap_alloc@V?$allocator@U?$pair@HH@std@@@std@@@std@@QAE@XZ 004018b0 f i SparCraft:AnimationFrameData.obj
 0001:000008b0       ??0?$_Wrap_alloc@V?$allocator@U?$_Tree_node@U?$pair@$$CBV?$basic_string@DU?$char_traits@D@std@@V?$allocator@D@2@@std@@VUnitSizeType@BWAPI@@@std@@PAX@std@@@std@@@std@@QAE@XZ 004018b0 f i BWAPI:UnitSizeType.obj
 0001:000008b0       ??0?$_Wrap_alloc@V?$allocator@U?$_Tree_node@VTechType@BWAPI@@PAX@std@@@std@@@std@@QAE@XZ 004018b0 f i BWAPI:UnitType.obj
 0001:000008b0       ??0?$_Wrap_alloc@V?$allocator@V?$basic_string@DU?$char_traits@D@std@@V?$allocator@D@2@@std@@@std@@@std@@QAE@XZ 004018b0 f i main.obj
 0001:000008b0       ??0?$_Wrap_alloc@V?$allocator@U?$_Tree_node@VExplosionType@BWAPI@@PAX@std@@@std@@@std@@QAE@XZ 004018b0 f i BWAPI:ExplosionType.obj
 0001:000008b0       ??0?$_Wrap_alloc@V?$allocator@U?$_Tree_node@U?$pair@$$CBV?$basic_string@DU?$char_traits@D@std@@V?$allocator@D@2@@std@@VOrder@BWAPI@@@std@@PAX@std@@@std@@@std@@QAE@XZ 004018b0 f i BWAPI:Order.obj
 0001:000008b0       ??0?$_Wrap_alloc@V?$allocator@U?$_Tree_node@VPlayerType@BWAPI@@PAX@std@@@std@@@std@@QAE@XZ 004018b0 f i BWAPI:PlayerType.obj
 0001:000008b0       ??0?$_Wrap_alloc@V?$allocator@U?$_Tree_node@VRace@BWAPI@@PAX@std@@@std@@@std@@QAE@XZ 004018b0 f i BWAPI:Race.obj
 0001:000008b0       ??0?$_Wrap_alloc@V?$allocator@U?$_Tree_node@U?$pair@$$CBV?$basic_string@DU?$char_traits@D@std@@V?$allocator@D@2@@std@@VUnitCommandType@BWAPI@@@std@@PAX@std@@@std@@@std@@QAE@XZ 004018b0 f i BWAPI:UnitCommandType.obj
 0001:000008b0       ??0?$_Wrap_alloc@V?$allocator@U?$_Tree_node@VBulletType@BWAPI@@PAX@std@@@std@@@std@@QAE@XZ 004018b0 f i BWAPI:BulletType.obj
 0001:000008b0       ??0?$_Wrap_alloc@V?$allocator@U?$_Tree_node@VUnitType@BWAPI@@PAX@std@@@std@@@std@@QAE@XZ 004018b0 f i BWAPI:UnitType.obj
 0001:000008b0       ??0?$_Wrap_alloc@V?$allocator@U?$_Tree_node@U?$pair@$$CBV?$basic_string@DU?$char_traits@D@std@@V?$allocator@D@2@@std@@VBulletType@BWAPI@@@std@@PAX@std@@@std@@@std@@QAE@XZ 004018b0 f i BWAPI:BulletType.obj
 0001:000008b0       ??0?$_Wrap_alloc@V?$allocator@U?$_Tree_node@U?$pair@$$CBV?$basic_string@DU?$char_traits@D@std@@V?$allocator@D@2@@std@@VExplosionType@BWAPI@@@std@@PAX@std@@@std@@@std@@QAE@XZ 004018b0 f i BWAPI:ExplosionType.obj
 0001:000008b0       ??0?$_Wrap_alloc@V?$allocator@U?$_Tree_node@U?$pair@$$CBV?$basic_string@DU?$char_traits@D@std@@V?$allocator@D@2@@std@@VWeaponType@BWAPI@@@std@@PAX@std@@@std@@@std@@QAE@XZ 004018b0 f i BWAPI:WeaponType.obj
 0001:000008b0       ??0?$_Wrap_alloc@V?$allocator@U?$_Tree_node@U?$pair@$$CBV?$basic_string@DU?$char_traits@D@std@@V?$allocator@D@2@@std@@VRace@BWAPI@@@std@@PAX@std@@@std@@@std@@QAE@XZ 004018b0 f i BWAPI:Race.obj
 0001:000008b0       ??0?$_Wrap_alloc@V?$allocator@D@std@@@std@@QAE@XZ 004018b0 f i main.obj
 0001:000008b0       ??0?$_Wrap_alloc@V?$allocator@U?$_Tree_node@VUnitCommandType@BWAPI@@PAX@std@@@std@@@std@@QAE@XZ 004018b0 f i BWAPI:UnitCommandType.obj
 0001:000008b0       ??0?$_Wrap_alloc@V?$allocator@U?$_Tree_node@VWeaponType@BWAPI@@PAX@std@@@std@@@std@@QAE@XZ 004018b0 f i BWAPI:WeaponType.obj
 0001:000008b0       ??0?$_Wrap_alloc@V?$allocator@U?$_Tree_node@U?$pair@$$CBV?$basic_string@DU?$char_traits@D@std@@V?$allocator@D@2@@std@@VUpgradeType@BWAPI@@@std@@PAX@std@@@std@@@std@@QAE@XZ 004018b0 f i BWAPI:UpgradeType.obj
 0001:000008b0       ??0?$_Wrap_alloc@V?$allocator@U?$_Tree_node@VGameType@BWAPI@@PAX@std@@@std@@@std@@QAE@XZ 004018b0 f i BWAPI:GameType.obj
 0001:000008b0       ??0?$_Wrap_alloc@V?$allocator@U?$_Tree_node@U?$pair@$$CBV?$basic_string@DU?$char_traits@D@std@@V?$allocator@D@2@@std@@VError@BWAPI@@@std@@PAX@std@@@std@@@std@@QAE@XZ 004018b0 f i BWAPI:Error.obj
 0001:000008b0       ??0?$_Wrap_alloc@V?$allocator@U?$_Tree_node@U?$pair@$$CBV?$basic_string@DU?$char_traits@D@std@@V?$allocator@D@2@@std@@H@std@@PAX@std@@@std@@@std@@QAE@XZ 004018b0 f i main.obj
 0001:000008b0       ??0?$_Wrap_alloc@V?$allocator@U?$_Tree_node@U?$pair@$$CBV?$basic_string@DU?$char_traits@D@std@@V?$allocator@D@2@@std@@VDamageType@BWAPI@@@std@@PAX@std@@@std@@@std@@QAE@XZ 004018b0 f i BWAPI:DamageType.obj
 0001:000008b0       ??0?$_Wrap_alloc@V?$allocator@U?$_Tree_node@VDamageType@BWAPI@@PAX@std@@@std@@@std@@QAE@XZ 004018b0 f i BWAPI:DamageType.obj
 0001:000008b0       ??0?$_Wrap_alloc@V?$allocator@U?$_Tree_node@U?$pair@$$CBV?$basic_string@DU?$char_traits@D@std@@V?$allocator@D@2@@std@@VPlayerType@BWAPI@@@std@@PAX@std@@@std@@@std@@QAE@XZ 004018b0 f i BWAPI:PlayerType.obj
 0001:000008b0       ??0?$_Wrap_alloc@V?$allocator@U?$_Tree_node@U?$pair@$$CBV?$basic_string@DU?$char_traits@D@std@@V?$allocator@D@2@@std@@VTechType@BWAPI@@@std@@PAX@std@@@std@@@std@@QAE@XZ 004018b0 f i BWAPI:TechType.obj
 0001:000008b0       ??0?$_Wrap_alloc@V?$allocator@U?$_Tree_node@U?$pair@$$CBV?$basic_string@DU?$char_traits@D@std@@V?$allocator@D@2@@std@@VUnitType@BWAPI@@@std@@PAX@std@@@std@@@std@@QAE@XZ 004018b0 f i BWAPI:UnitType.obj
 0001:000008c0       ?_Destroy@?$vector@V?$basic_string@DU?$char_traits@D@std@@V?$allocator@D@2@@std@@V?$allocator@V?$basic_string@DU?$char_traits@D@std@@V?$allocator@D@2@@std@@@2@@std@@IAEXPAV?$basic_string@DU?$char_traits@D@std@@V?$allocator@D@2@@2@0@Z 004018c0 f i main.obj
 0001:00000900       ??1_Sentry_base@?$basic_ostream@DU?$char_traits@D@std@@@std@@QAE@XZ 00401900 f i main.obj
 0001:00000900       ??1sentry@?$basic_istream@DU?$char_traits@D@std@@@std@@QAE@XZ 00401900 f i SearchExperiment.obj
 0001:00000900       ??1_Sentry_base@?$basic_istream@DU?$char_traits@D@std@@@std@@QAE@XZ 00401900 f i SearchExperiment.obj
 0001:00000920       ?_Copy@?$basic_string@DU?$char_traits@D@std@@V?$allocator@D@2@@std@@QAEXII@Z 00401920 f i main.obj
 0001:00000a70       ??$?6U?$char_traits@D@std@@@std@@YAAAV?$basic_ostream@DU?$char_traits@D@std@@@0@AAV10@PBD@Z 00401a70 f i main.obj
 0001:00000c80       ??$destroy@PAU?$_Tree_node@VRace@BWAPI@@PAX@std@@@?$_Wrap_alloc@V?$allocator@U?$_Tree_node@VRace@BWAPI@@PAX@std@@@std@@@std@@QAEXPAPAU?$_Tree_node@VRace@BWAPI@@PAX@1@@Z 00401c80 f i BWAPI:Race.obj
 0001:00000c80       ??$destroy@PAU?$_Tree_node@U?$pair@$$CBV?$basic_string@DU?$char_traits@D@std@@V?$allocator@D@2@@std@@VUnitCommandType@BWAPI@@@std@@PAX@std@@@?$_Wrap_alloc@V?$allocator@U?$_Tree_node@U?$pair@$$CBV?$basic_string@DU?$char_traits@D@std@@V?$allocator@D@2@@std@@VUnitCommandType@BWAPI@@@std@@PAX@std@@@std@@@std@@QAEXPAPAU?$_Tree_node@U?$pair@$$CBV?$basic_string@DU?$char_traits@D@std@@V?$allocator@D@2@@std@@VUnitCommandType@BWAPI@@@std@@PAX@1@@Z 00401c80 f i BWAPI:UnitCommandType.obj
 0001:00000c80       ??$destroy@PAU?$_Tree_node@VBulletType@BWAPI@@PAX@std@@@?$_Wrap_alloc@V?$allocator@U?$_Tree_node@VBulletType@BWAPI@@PAX@std@@@std@@@std@@QAEXPAPAU?$_Tree_node@VBulletType@BWAPI@@PAX@1@@Z 00401c80 f i BWAPI:BulletType.obj
 0001:00000c80       ??$destroy@PAU?$_Tree_node@U?$pair@$$CBV?$basic_string@DU?$char_traits@D@std@@V?$allocator@D@2@@std@@VError@BWAPI@@@std@@PAX@std@@@?$_Wrap_alloc@V?$allocator@U?$_Tree_node@U?$pair@$$CBV?$basic_string@DU?$char_traits@D@std@@V?$allocator@D@2@@std@@VError@BWAPI@@@std@@PAX@std@@@std@@@std@@QAEXPAPAU?$_Tree_node@U?$pair@$$CBV?$basic_string@DU?$char_traits@D@std@@V?$allocator@D@2@@std@@VError@BWAPI@@@std@@PAX@1@@Z 00401c80 f i BWAPI:Error.obj
 0001:00000c80       ??$destroy@PAU?$_Tree_node@VPlayerType@BWAPI@@PAX@std@@@?$_Wrap_alloc@V?$allocator@U?$_Tree_node@VPlayerType@BWAPI@@PAX@std@@@std@@@std@@QAEXPAPAU?$_Tree_node@VPlayerType@BWAPI@@PAX@1@@Z 00401c80 f i BWAPI:PlayerType.obj
 0001:00000c80       ??$destroy@PAU?$_Tree_node@VUnitType@BWAPI@@PAX@std@@@?$_Wrap_alloc@V?$allocator@U?$_Tree_node@VUnitType@BWAPI@@PAX@std@@@std@@@std@@QAEXPAPAU?$_Tree_node@VUnitType@BWAPI@@PAX@1@@Z 00401c80 f i BWAPI:UnitType.obj
 0001:00000c80       ??$destroy@PAU?$_Tree_node@U?$pair@$$CBV?$basic_string@DU?$char_traits@D@std@@V?$allocator@D@2@@std@@VExplosionType@BWAPI@@@std@@PAX@std@@@?$_Wrap_alloc@V?$allocator@U?$_Tree_node@U?$pair@$$CBV?$basic_string@DU?$char_traits@D@std@@V?$allocator@D@2@@std@@VExplosionType@BWAPI@@@std@@PAX@std@@@std@@@std@@QAEXPAPAU?$_Tree_node@U?$pair@$$CBV?$basic_string@DU?$char_traits@D@std@@V?$allocator@D@2@@std@@VExplosionType@BWAPI@@@std@@PAX@1@@Z 00401c80 f i BWAPI:ExplosionType.obj
 0001:00000c80       ??$destroy@PAU?$_Tree_node@U?$pair@$$CBV?$basic_string@DU?$char_traits@D@std@@V?$allocator@D@2@@std@@VPlayerType@BWAPI@@@std@@PAX@std@@@?$_Wrap_alloc@V?$allocator@U?$_Tree_node@U?$pair@$$CBV?$basic_string@DU?$char_traits@D@std@@V?$allocator@D@2@@std@@VPlayerType@BWAPI@@@std@@PAX@std@@@std@@@std@@QAEXPAPAU?$_Tree_node@U?$pair@$$CBV?$basic_string@DU?$char_traits@D@std@@V?$allocator@D@2@@std@@VPlayerType@BWAPI@@@std@@PAX@1@@Z 00401c80 f i BWAPI:PlayerType.obj
 0001:00000c80       ??$destroy@PAU?$_Tree_node@VUpgradeType@BWAPI@@PAX@std@@@?$_Wrap_alloc@V?$allocator@U?$_Tree_node@VUpgradeType@BWAPI@@PAX@std@@@std@@@std@@QAEXPAPAU?$_Tree_node@VUpgradeType@BWAPI@@PAX@1@@Z 00401c80 f i BWAPI:UnitType.obj
 0001:00000c80       ??$destroy@PAU?$_Tree_node@U?$pair@$$CBV?$basic_string@DU?$char_traits@D@std@@V?$allocator@D@2@@std@@VGameType@BWAPI@@@std@@PAX@std@@@?$_Wrap_alloc@V?$allocator@U?$_Tree_node@U?$pair@$$CBV?$basic_string@DU?$char_traits@D@std@@V?$allocator@D@2@@std@@VGameType@BWAPI@@@std@@PAX@std@@@std@@@std@@QAEXPAPAU?$_Tree_node@U?$pair@$$CBV?$basic_string@DU?$char_traits@D@std@@V?$allocator@D@2@@std@@VGameType@BWAPI@@@std@@PAX@1@@Z 00401c80 f i BWAPI:GameType.obj
 0001:00000c80       ??$destroy@PAU?$_Tree_node@U?$pair@$$CBV?$basic_string@DU?$char_traits@D@std@@V?$allocator@D@2@@std@@VTechType@BWAPI@@@std@@PAX@std@@@?$_Wrap_alloc@V?$allocator@U?$_Tree_node@U?$pair@$$CBV?$basic_string@DU?$char_traits@D@std@@V?$allocator@D@2@@std@@VTechType@BWAPI@@@std@@PAX@std@@@std@@@std@@QAEXPAPAU?$_Tree_node@U?$pair@$$CBV?$basic_string@DU?$char_traits@D@std@@V?$allocator@D@2@@std@@VTechType@BWAPI@@@std@@PAX@1@@Z 00401c80 f i BWAPI:TechType.obj
 0001:00000c80       ??$destroy@PAU?$_Tree_node@U?$pair@$$CBV?$basic_string@DU?$char_traits@D@std@@V?$allocator@D@2@@std@@VRace@BWAPI@@@std@@PAX@std@@@?$_Wrap_alloc@V?$allocator@U?$_Tree_node@U?$pair@$$CBV?$basic_string@DU?$char_traits@D@std@@V?$allocator@D@2@@std@@VRace@BWAPI@@@std@@PAX@std@@@std@@@std@@QAEXPAPAU?$_Tree_node@U?$pair@$$CBV?$basic_string@DU?$char_traits@D@std@@V?$allocator@D@2@@std@@VRace@BWAPI@@@std@@PAX@1@@Z 00401c80 f i BWAPI:Race.obj
 0001:00000c80       ??$destroy@PAD@?$_Wrap_alloc@V?$allocator@D@std@@@std@@QAEXPAPAD@Z 00401c80 f i main.obj
 0001:00000c80       ??$destroy@PAU?$_Tree_node@VError@BWAPI@@PAX@std@@@?$_Wrap_alloc@V?$allocator@U?$_Tree_node@VError@BWAPI@@PAX@std@@@std@@@std@@QAEXPAPAU?$_Tree_node@VError@BWAPI@@PAX@1@@Z 00401c80 f i BWAPI:Error.obj
 0001:00000c80       ??$destroy@PAU?$_Tree_node@U?$pair@$$CBV?$basic_string@DU?$char_traits@D@std@@V?$allocator@D@2@@std@@VOrder@BWAPI@@@std@@PAX@std@@@?$_Wrap_alloc@V?$allocator@U?$_Tree_node@U?$pair@$$CBV?$basic_string@DU?$char_traits@D@std@@V?$allocator@D@2@@std@@VOrder@BWAPI@@@std@@PAX@std@@@std@@@std@@QAEXPAPAU?$_Tree_node@U?$pair@$$CBV?$basic_string@DU?$char_traits@D@std@@V?$allocator@D@2@@std@@VOrder@BWAPI@@@std@@PAX@1@@Z 00401c80 f i BWAPI:Order.obj
 0001:00000c80       ??$destroy@PAU?$_Tree_node@U?$pair@$$CBV?$basic_string@DU?$char_traits@D@std@@V?$allocator@D@2@@std@@H@std@@PAX@std@@@?$_Wrap_alloc@V?$allocator@U?$_Tree_node@U?$pair@$$CBV?$basic_string@DU?$char_traits@D@std@@V?$allocator@D@2@@std@@H@std@@PAX@std@@@std@@@std@@QAEXPAPAU?$_Tree_node@U?$pair@$$CBV?$basic_string@DU?$char_traits@D@std@@V?$allocator@D@2@@std@@H@std@@PAX@1@@Z 00401c80 f i main.obj
 0001:00000c80       ??$destroy@PAU?$_Tree_node@VOrder@BWAPI@@PAX@std@@@?$_Wrap_alloc@V?$allocator@U?$_Tree_node@VOrder@BWAPI@@PAX@std@@@std@@@std@@QAEXPAPAU?$_Tree_node@VOrder@BWAPI@@PAX@1@@Z 00401c80 f i BWAPI:Order.obj
 0001:00000c80       ??$destroy@PAU?$_Tree_node@U?$pair@$$CBV?$basic_string@DU?$char_traits@D@std@@V?$allocator@D@2@@std@@VUnitSizeType@BWAPI@@@std@@PAX@std@@@?$_Wrap_alloc@V?$allocator@U?$_Tree_node@U?$pair@$$CBV?$basic_string@DU?$char_traits@D@std@@V?$allocator@D@2@@std@@VUnitSizeType@BWAPI@@@std@@PAX@std@@@std@@@std@@QAEXPAPAU?$_Tree_node@U?$pair@$$CBV?$basic_string@DU?$char_traits@D@std@@V?$allocator@D@2@@std@@VUnitSizeType@BWAPI@@@std@@PAX@1@@Z 00401c80 f i BWAPI:UnitSizeType.obj
 0001:00000c80       ??$destroy@PAU?$_Tree_node@U?$pair@$$CBV?$basic_string@DU?$char_traits@D@std@@V?$allocator@D@2@@std@@VWeaponType@BWAPI@@@std@@PAX@std@@@?$_Wrap_alloc@V?$allocator@U?$_Tree_node@U?$pair@$$CBV?$basic_string@DU?$char_traits@D@std@@V?$allocator@D@2@@std@@VWeaponType@BWAPI@@@std@@PAX@std@@@std@@@std@@QAEXPAPAU?$_Tree_node@U?$pair@$$CBV?$basic_string@DU?$char_traits@D@std@@V?$allocator@D@2@@std@@VWeaponType@BWAPI@@@std@@PAX@1@@Z 00401c80 f i BWAPI:WeaponType.obj
 0001:00000c80       ??$destroy@PAU?$_Tree_node@U?$pair@$$CBV?$basic_string@DU?$char_traits@D@std@@V?$allocator@D@2@@std@@VDamageType@BWAPI@@@std@@PAX@std@@@?$_Wrap_alloc@V?$allocator@U?$_Tree_node@U?$pair@$$CBV?$basic_string@DU?$char_traits@D@std@@V?$allocator@D@2@@std@@VDamageType@BWAPI@@@std@@PAX@std@@@std@@@std@@QAEXPAPAU?$_Tree_node@U?$pair@$$CBV?$basic_string@DU?$char_traits@D@std@@V?$allocator@D@2@@std@@VDamageType@BWAPI@@@std@@PAX@1@@Z 00401c80 f i BWAPI:DamageType.obj
 0001:00000c80       ??$destroy@PAU?$_Tree_node@VUnitCommandType@BWAPI@@PAX@std@@@?$_Wrap_alloc@V?$allocator@U?$_Tree_node@VUnitCommandType@BWAPI@@PAX@std@@@std@@@std@@QAEXPAPAU?$_Tree_node@VUnitCommandType@BWAPI@@PAX@1@@Z 00401c80 f i BWAPI:UnitCommandType.obj
 0001:00000c80       ??$destroy@PAU?$_Tree_node@VGameType@BWAPI@@PAX@std@@@?$_Wrap_alloc@V?$allocator@U?$_Tree_node@VGameType@BWAPI@@PAX@std@@@std@@@std@@QAEXPAPAU?$_Tree_node@VGameType@BWAPI@@PAX@1@@Z 00401c80 f i BWAPI:GameType.obj
 0001:00000c80       ??$destroy@PAU?$_Tree_node@U?$pair@$$CBV?$basic_string@DU?$char_traits@D@std@@V?$allocator@D@2@@std@@VBulletType@BWAPI@@@std@@PAX@std@@@?$_Wrap_alloc@V?$allocator@U?$_Tree_node@U?$pair@$$CBV?$basic_string@DU?$char_traits@D@std@@V?$allocator@D@2@@std@@VBulletType@BWAPI@@@std@@PAX@std@@@std@@@std@@QAEXPAPAU?$_Tree_node@U?$pair@$$CBV?$basic_string@DU?$char_traits@D@std@@V?$allocator@D@2@@std@@VBulletType@BWAPI@@@std@@PAX@1@@Z 00401c80 f i BWAPI:BulletType.obj
 0001:00000c80       ??$destroy@PAU?$_Tree_node@U?$pair@$$CBV?$basic_string@DU?$char_traits@D@std@@V?$allocator@D@2@@std@@VUpgradeType@BWAPI@@@std@@PAX@std@@@?$_Wrap_alloc@V?$allocator@U?$_Tree_node@U?$pair@$$CBV?$basic_string@DU?$char_traits@D@std@@V?$allocator@D@2@@std@@VUpgradeType@BWAPI@@@std@@PAX@std@@@std@@@std@@QAEXPAPAU?$_Tree_node@U?$pair@$$CBV?$basic_string@DU?$char_traits@D@std@@V?$allocator@D@2@@std@@VUpgradeType@BWAPI@@@std@@PAX@1@@Z 00401c80 f i BWAPI:UpgradeType.obj
 0001:00000c80       ??$destroy@PAU?$_Tree_node@VTechType@BWAPI@@PAX@std@@@?$_Wrap_alloc@V?$allocator@U?$_Tree_node@VTechType@BWAPI@@PAX@std@@@std@@@std@@QAEXPAPAU?$_Tree_node@VTechType@BWAPI@@PAX@1@@Z 00401c80 f i BWAPI:UnitType.obj
 0001:00000c80       ??$destroy@PAU?$_Tree_node@VWeaponType@BWAPI@@PAX@std@@@?$_Wrap_alloc@V?$allocator@U?$_Tree_node@VWeaponType@BWAPI@@PAX@std@@@std@@@std@@QAEXPAPAU?$_Tree_node@VWeaponType@BWAPI@@PAX@1@@Z 00401c80 f i BWAPI:WeaponType.obj
 0001:00000c80       ??$destroy@PAU?$_Tree_node@VExplosionType@BWAPI@@PAX@std@@@?$_Wrap_alloc@V?$allocator@U?$_Tree_node@VExplosionType@BWAPI@@PAX@std@@@std@@@std@@QAEXPAPAU?$_Tree_node@VExplosionType@BWAPI@@PAX@1@@Z 00401c80 f i BWAPI:ExplosionType.obj
 0001:00000c80       ??$destroy@PAU?$_Tree_node@VDamageType@BWAPI@@PAX@std@@@?$_Wrap_alloc@V?$allocator@U?$_Tree_node@VDamageType@BWAPI@@PAX@std@@@std@@@std@@QAEXPAPAU?$_Tree_node@VDamageType@BWAPI@@PAX@1@@Z 00401c80 f i BWAPI:DamageType.obj
 0001:00000c80       ??$destroy@PAU?$_Tree_node@U?$pair@$$CBV?$basic_string@DU?$char_traits@D@std@@V?$allocator@D@2@@std@@VUnitType@BWAPI@@@std@@PAX@std@@@?$_Wrap_alloc@V?$allocator@U?$_Tree_node@U?$pair@$$CBV?$basic_string@DU?$char_traits@D@std@@V?$allocator@D@2@@std@@VUnitType@BWAPI@@@std@@PAX@std@@@std@@@std@@QAEXPAPAU?$_Tree_node@U?$pair@$$CBV?$basic_string@DU?$char_traits@D@std@@V?$allocator@D@2@@std@@VUnitType@BWAPI@@@std@@PAX@1@@Z 00401c80 f i BWAPI:UnitType.obj
 0001:00000c80       ??$destroy@PAU?$_Tree_node@VUnitSizeType@BWAPI@@PAX@std@@@?$_Wrap_alloc@V?$allocator@U?$_Tree_node@VUnitSizeType@BWAPI@@PAX@std@@@std@@@std@@QAEXPAPAU?$_Tree_node@VUnitSizeType@BWAPI@@PAX@1@@Z 00401c80 f i BWAPI:UnitSizeType.obj
 0001:00000c90       ?erase@?$_Tree@V?$_Tmap_traits@V?$basic_string@DU?$char_traits@D@std@@V?$allocator@D@2@@std@@HU?$less@V?$basic_string@DU?$char_traits@D@std@@V?$allocator@D@2@@std@@@2@V?$allocator@U?$pair@$$CBV?$basic_string@DU?$char_traits@D@std@@V?$allocator@D@2@@std@@H@std@@@2@$0A@@std@@@std@@QAE?AV?$_Tree_iterator@V?$_Tree_val@U?$_Tree_simple_types@U?$pair@$$CBV?$basic_string@DU?$char_traits@D@std@@V?$allocator@D@2@@std@@H@std@@@std@@@std@@@2@V?$_Tree_const_iterator@V?$_Tree_val@U?$_Tree_simple_types@U?$pair@$$CBV?$basic_string@DU?$char_traits@D@std@@V?$allocator@D@2@@std@@H@std@@@std@@@std@@@2@0@Z 00401c90 f i main.obj
 0001:00000d50       ?erase@?$_Tree@V?$_Tmap_traits@V?$basic_string@DU?$char_traits@D@std@@V?$allocator@D@2@@std@@HU?$less@V?$basic_string@DU?$char_traits@D@std@@V?$allocator@D@2@@std@@@2@V?$allocator@U?$pair@$$CBV?$basic_string@DU?$char_traits@D@std@@V?$allocator@D@2@@std@@H@std@@@2@$0A@@std@@@std@@QAE?AV?$_Tree_iterator@V?$_Tree_val@U?$_Tree_simple_types@U?$pair@$$CBV?$basic_string@DU?$char_traits@D@std@@V?$allocator@D@2@@std@@H@std@@@std@@@std@@@2@V?$_Tree_const_iterator@V?$_Tree_val@U?$_Tree_simple_types@U?$pair@$$CBV?$basic_string@DU?$char_traits@D@std@@V?$allocator@D@2@@std@@H@std@@@std@@@std@@@2@@Z 00401d50 f i main.obj
 0001:00000fd0       ?_Erase@?$_Tree@V?$_Tmap_traits@V?$basic_string@DU?$char_traits@D@std@@V?$allocator@D@2@@std@@VUnitType@BWAPI@@U?$less@V?$basic_string@DU?$char_traits@D@std@@V?$allocator@D@2@@std@@@2@V?$allocator@U?$pair@$$CBV?$basic_string@DU?$char_traits@D@std@@V?$allocator@D@2@@std@@VUnitType@BWAPI@@@std@@@2@$0A@@std@@@std@@IAEXPAU?$_Tree_node@U?$pair@$$CBV?$basic_string@DU?$char_traits@D@std@@V?$allocator@D@2@@std@@VUnitType@BWAPI@@@std@@PAX@2@@Z 00401fd0 f i BWAPI:UnitType.obj
 0001:00000fd0       ?_Erase@?$_Tree@V?$_Tmap_traits@V?$basic_string@DU?$char_traits@D@std@@V?$allocator@D@2@@std@@VTechType@BWAPI@@U?$less@V?$basic_string@DU?$char_traits@D@std@@V?$allocator@D@2@@std@@@2@V?$allocator@U?$pair@$$CBV?$basic_string@DU?$char_traits@D@std@@V?$allocator@D@2@@std@@VTechType@BWAPI@@@std@@@2@$0A@@std@@@std@@IAEXPAU?$_Tree_node@U?$pair@$$CBV?$basic_string@DU?$char_traits@D@std@@V?$allocator@D@2@@std@@VTechType@BWAPI@@@std@@PAX@2@@Z 00401fd0 f i BWAPI:TechType.obj
 0001:00000fd0       ?_Erase@?$_Tree@V?$_Tmap_traits@V?$basic_string@DU?$char_traits@D@std@@V?$allocator@D@2@@std@@VError@BWAPI@@U?$less@V?$basic_string@DU?$char_traits@D@std@@V?$allocator@D@2@@std@@@2@V?$allocator@U?$pair@$$CBV?$basic_string@DU?$char_traits@D@std@@V?$allocator@D@2@@std@@VError@BWAPI@@@std@@@2@$0A@@std@@@std@@IAEXPAU?$_Tree_node@U?$pair@$$CBV?$basic_string@DU?$char_traits@D@std@@V?$allocator@D@2@@std@@VError@BWAPI@@@std@@PAX@2@@Z 00401fd0 f i BWAPI:Error.obj
 0001:00000fd0       ?_Erase@?$_Tree@V?$_Tmap_traits@V?$basic_string@DU?$char_traits@D@std@@V?$allocator@D@2@@std@@VOrder@BWAPI@@U?$less@V?$basic_string@DU?$char_traits@D@std@@V?$allocator@D@2@@std@@@2@V?$allocator@U?$pair@$$CBV?$basic_string@DU?$char_traits@D@std@@V?$allocator@D@2@@std@@VOrder@BWAPI@@@std@@@2@$0A@@std@@@std@@IAEXPAU?$_Tree_node@U?$pair@$$CBV?$basic_string@DU?$char_traits@D@std@@V?$allocator@D@2@@std@@VOrder@BWAPI@@@std@@PAX@2@@Z 00401fd0 f i BWAPI:Order.obj
 0001:00000fd0       ?_Erase@?$_Tree@V?$_Tmap_traits@V?$basic_string@DU?$char_traits@D@std@@V?$allocator@D@2@@std@@VBulletType@BWAPI@@U?$less@V?$basic_string@DU?$char_traits@D@std@@V?$allocator@D@2@@std@@@2@V?$allocator@U?$pair@$$CBV?$basic_string@DU?$char_traits@D@std@@V?$allocator@D@2@@std@@VBulletType@BWAPI@@@std@@@2@$0A@@std@@@std@@IAEXPAU?$_Tree_node@U?$pair@$$CBV?$basic_string@DU?$char_traits@D@std@@V?$allocator@D@2@@std@@VBulletType@BWAPI@@@std@@PAX@2@@Z 00401fd0 f i BWAPI:BulletType.obj
 0001:00000fd0       ?_Erase@?$_Tree@V?$_Tmap_traits@V?$basic_string@DU?$char_traits@D@std@@V?$allocator@D@2@@std@@VExplosionType@BWAPI@@U?$less@V?$basic_string@DU?$char_traits@D@std@@V?$allocator@D@2@@std@@@2@V?$allocator@U?$pair@$$CBV?$basic_string@DU?$char_traits@D@std@@V?$allocator@D@2@@std@@VExplosionType@BWAPI@@@std@@@2@$0A@@std@@@std@@IAEXPAU?$_Tree_node@U?$pair@$$CBV?$basic_string@DU?$char_traits@D@std@@V?$allocator@D@2@@std@@VExplosionType@BWAPI@@@std@@PAX@2@@Z 00401fd0 f i BWAPI:ExplosionType.obj
 0001:00000fd0       ?_Erase@?$_Tree@V?$_Tmap_traits@V?$basic_string@DU?$char_traits@D@std@@V?$allocator@D@2@@std@@VRace@BWAPI@@U?$less@V?$basic_string@DU?$char_traits@D@std@@V?$allocator@D@2@@std@@@2@V?$allocator@U?$pair@$$CBV?$basic_string@DU?$char_traits@D@std@@V?$allocator@D@2@@std@@VRace@BWAPI@@@std@@@2@$0A@@std@@@std@@IAEXPAU?$_Tree_node@U?$pair@$$CBV?$basic_string@DU?$char_traits@D@std@@V?$allocator@D@2@@std@@VRace@BWAPI@@@std@@PAX@2@@Z 00401fd0 f i BWAPI:Race.obj
 0001:00000fd0       ?_Erase@?$_Tree@V?$_Tmap_traits@V?$basic_string@DU?$char_traits@D@std@@V?$allocator@D@2@@std@@VUnitCommandType@BWAPI@@U?$less@V?$basic_string@DU?$char_traits@D@std@@V?$allocator@D@2@@std@@@2@V?$allocator@U?$pair@$$CBV?$basic_string@DU?$char_traits@D@std@@V?$allocator@D@2@@std@@VUnitCommandType@BWAPI@@@std@@@2@$0A@@std@@@std@@IAEXPAU?$_Tree_node@U?$pair@$$CBV?$basic_string@DU?$char_traits@D@std@@V?$allocator@D@2@@std@@VUnitCommandType@BWAPI@@@std@@PAX@2@@Z 00401fd0 f i BWAPI:UnitCommandType.obj
 0001:00000fd0       ?_Erase@?$_Tree@V?$_Tmap_traits@V?$basic_string@DU?$char_traits@D@std@@V?$allocator@D@2@@std@@HU?$less@V?$basic_string@DU?$char_traits@D@std@@V?$allocator@D@2@@std@@@2@V?$allocator@U?$pair@$$CBV?$basic_string@DU?$char_traits@D@std@@V?$allocator@D@2@@std@@H@std@@@2@$0A@@std@@@std@@IAEXPAU?$_Tree_node@U?$pair@$$CBV?$basic_string@DU?$char_traits@D@std@@V?$allocator@D@2@@std@@H@std@@PAX@2@@Z 00401fd0 f i main.obj
 0001:00000fd0       ?_Erase@?$_Tree@V?$_Tmap_traits@V?$basic_string@DU?$char_traits@D@std@@V?$allocator@D@2@@std@@VGameType@BWAPI@@U?$less@V?$basic_string@DU?$char_traits@D@std@@V?$allocator@D@2@@std@@@2@V?$allocator@U?$pair@$$CBV?$basic_string@DU?$char_traits@D@std@@V?$allocator@D@2@@std@@VGameType@BWAPI@@@std@@@2@$0A@@std@@@std@@IAEXPAU?$_Tree_node@U?$pair@$$CBV?$basic_string@DU?$char_traits@D@std@@V?$allocator@D@2@@std@@VGameType@BWAPI@@@std@@PAX@2@@Z 00401fd0 f i BWAPI:GameType.obj
 0001:00000fd0       ?_Erase@?$_Tree@V?$_Tmap_traits@V?$basic_string@DU?$char_traits@D@std@@V?$allocator@D@2@@std@@VWeaponType@BWAPI@@U?$less@V?$basic_string@DU?$char_traits@D@std@@V?$allocator@D@2@@std@@@2@V?$allocator@U?$pair@$$CBV?$basic_string@DU?$char_traits@D@std@@V?$allocator@D@2@@std@@VWeaponType@BWAPI@@@std@@@2@$0A@@std@@@std@@IAEXPAU?$_Tree_node@U?$pair@$$CBV?$basic_string@DU?$char_traits@D@std@@V?$allocator@D@2@@std@@VWeaponType@BWAPI@@@std@@PAX@2@@Z 00401fd0 f i BWAPI:WeaponType.obj
 0001:00000fd0       ?_Erase@?$_Tree@V?$_Tmap_traits@V?$basic_string@DU?$char_traits@D@std@@V?$allocator@D@2@@std@@VPlayerType@BWAPI@@U?$less@V?$basic_string@DU?$char_traits@D@std@@V?$allocator@D@2@@std@@@2@V?$allocator@U?$pair@$$CBV?$basic_string@DU?$char_traits@D@std@@V?$allocator@D@2@@std@@VPlayerType@BWAPI@@@std@@@2@$0A@@std@@@std@@IAEXPAU?$_Tree_node@U?$pair@$$CBV?$basic_string@DU?$char_traits@D@std@@V?$allocator@D@2@@std@@VPlayerType@BWAPI@@@std@@PAX@2@@Z 00401fd0 f i BWAPI:PlayerType.obj
 0001:00000fd0       ?_Erase@?$_Tree@V?$_Tmap_traits@V?$basic_string@DU?$char_traits@D@std@@V?$allocator@D@2@@std@@VUpgradeType@BWAPI@@U?$less@V?$basic_string@DU?$char_traits@D@std@@V?$allocator@D@2@@std@@@2@V?$allocator@U?$pair@$$CBV?$basic_string@DU?$char_traits@D@std@@V?$allocator@D@2@@std@@VUpgradeType@BWAPI@@@std@@@2@$0A@@std@@@std@@IAEXPAU?$_Tree_node@U?$pair@$$CBV?$basic_string@DU?$char_traits@D@std@@V?$allocator@D@2@@std@@VUpgradeType@BWAPI@@@std@@PAX@2@@Z 00401fd0 f i BWAPI:UpgradeType.obj
 0001:00000fd0       ?_Erase@?$_Tree@V?$_Tmap_traits@V?$basic_string@DU?$char_traits@D@std@@V?$allocator@D@2@@std@@VUnitSizeType@BWAPI@@U?$less@V?$basic_string@DU?$char_traits@D@std@@V?$allocator@D@2@@std@@@2@V?$allocator@U?$pair@$$CBV?$basic_string@DU?$char_traits@D@std@@V?$allocator@D@2@@std@@VUnitSizeType@BWAPI@@@std@@@2@$0A@@std@@@std@@IAEXPAU?$_Tree_node@U?$pair@$$CBV?$basic_string@DU?$char_traits@D@std@@V?$allocator@D@2@@std@@VUnitSizeType@BWAPI@@@std@@PAX@2@@Z 00401fd0 f i BWAPI:UnitSizeType.obj
 0001:00000fd0       ?_Erase@?$_Tree@V?$_Tmap_traits@V?$basic_string@DU?$char_traits@D@std@@V?$allocator@D@2@@std@@VDamageType@BWAPI@@U?$less@V?$basic_string@DU?$char_traits@D@std@@V?$allocator@D@2@@std@@@2@V?$allocator@U?$pair@$$CBV?$basic_string@DU?$char_traits@D@std@@V?$allocator@D@2@@std@@VDamageType@BWAPI@@@std@@@2@$0A@@std@@@std@@IAEXPAU?$_Tree_node@U?$pair@$$CBV?$basic_string@DU?$char_traits@D@std@@V?$allocator@D@2@@std@@VDamageType@BWAPI@@@std@@PAX@2@@Z 00401fd0 f i BWAPI:DamageType.obj
 0001:00001040       ?_Lrotate@?$_Tree@V?$_Tmap_traits@HEU?$less@H@std@@V?$allocator@U?$pair@$$CBHE@std@@@2@$0A@@std@@@std@@IAEXPAU?$_Tree_node@U?$pair@$$CBHE@std@@PAX@2@@Z 00402040 f i SparCraft:PortfolioGreedySearch.obj
 0001:00001040       ?_Lrotate@?$_Tree@V?$_Tmap_traits@V?$basic_string@DU?$char_traits@D@std@@V?$allocator@D@2@@std@@HU?$less@V?$basic_string@DU?$char_traits@D@std@@V?$allocator@D@2@@std@@@2@V?$allocator@U?$pair@$$CBV?$basic_string@DU?$char_traits@D@std@@V?$allocator@D@2@@std@@H@std@@@2@$0A@@std@@@std@@IAEXPAU?$_Tree_node@U?$pair@$$CBV?$basic_string@DU?$char_traits@D@std@@V?$allocator@D@2@@std@@H@std@@PAX@2@@Z 00402040 f i main.obj
 0001:00001040       ?_Lrotate@?$_Tree@V?$_Tset_traits@VUpgradeType@BWAPI@@U?$less@VUpgradeType@BWAPI@@@std@@V?$allocator@VUpgradeType@BWAPI@@@4@$0A@@std@@@std@@IAEXPAU?$_Tree_node@VUpgradeType@BWAPI@@PAX@2@@Z 00402040 f i BWAPI:UnitType.obj
 0001:00001040       ?_Lrotate@?$_Tree@V?$_Tset_traits@EU?$less@E@std@@V?$allocator@E@2@$0A@@std@@@std@@IAEXPAU?$_Tree_node@EPAX@2@@Z 00402040 f i SparCraft:GameState.obj
 0001:00001040       ?_Lrotate@?$_Tree@V?$_Tmap_traits@VUnitType@BWAPI@@HU?$less@VUnitType@BWAPI@@@std@@V?$allocator@U?$pair@$$CBVUnitType@BWAPI@@H@std@@@4@$0A@@std@@@std@@IAEXPAU?$_Tree_node@U?$pair@$$CBVUnitType@BWAPI@@H@std@@PAX@2@@Z 00402040 f i BWAPI:UnitType.obj
 0001:00001040       ?_Lrotate@?$_Tree@V?$_Tset_traits@VWeaponType@BWAPI@@U?$less@VWeaponType@BWAPI@@@std@@V?$allocator@VWeaponType@BWAPI@@@4@$0A@@std@@@std@@IAEXPAU?$_Tree_node@VWeaponType@BWAPI@@PAX@2@@Z 00402040 f i BWAPI:WeaponType.obj
 0001:00001040       ?_Lrotate@?$_Tree@V?$_Tset_traits@VUnitType@BWAPI@@U?$less@VUnitType@BWAPI@@@std@@V?$allocator@VUnitType@BWAPI@@@4@$0A@@std@@@std@@IAEXPAU?$_Tree_node@VUnitType@BWAPI@@PAX@2@@Z 00402040 f i BWAPI:UnitType.obj
 0001:00001040       ?_Lrotate@?$_Tree@V?$_Tset_traits@VTechType@BWAPI@@U?$less@VTechType@BWAPI@@@std@@V?$allocator@VTechType@BWAPI@@@4@$0A@@std@@@std@@IAEXPAU?$_Tree_node@VTechType@BWAPI@@PAX@2@@Z 00402040 f i BWAPI:UnitType.obj
 0001:00001090       ?_Rrotate@?$_Tree@V?$_Tset_traits@VUnitType@BWAPI@@U?$less@VUnitType@BWAPI@@@std@@V?$allocator@VUnitType@BWAPI@@@4@$0A@@std@@@std@@IAEXPAU?$_Tree_node@VUnitType@BWAPI@@PAX@2@@Z 00402090 f i BWAPI:UnitType.obj
 0001:00001090       ?_Rrotate@?$_Tree@V?$_Tset_traits@EU?$less@E@std@@V?$allocator@E@2@$0A@@std@@@std@@IAEXPAU?$_Tree_node@EPAX@2@@Z 00402090 f i SparCraft:GameState.obj
 0001:00001090       ?_Rrotate@?$_Tree@V?$_Tset_traits@VTechType@BWAPI@@U?$less@VTechType@BWAPI@@@std@@V?$allocator@VTechType@BWAPI@@@4@$0A@@std@@@std@@IAEXPAU?$_Tree_node@VTechType@BWAPI@@PAX@2@@Z 00402090 f i BWAPI:UnitType.obj
 0001:00001090       ?_Rrotate@?$_Tree@V?$_Tmap_traits@HEU?$less@H@std@@V?$allocator@U?$pair@$$CBHE@std@@@2@$0A@@std@@@std@@IAEXPAU?$_Tree_node@U?$pair@$$CBHE@std@@PAX@2@@Z 00402090 f i SparCraft:PortfolioGreedySearch.obj
 0001:00001090       ?_Rrotate@?$_Tree@V?$_Tset_traits@VUpgradeType@BWAPI@@U?$less@VUpgradeType@BWAPI@@@std@@V?$allocator@VUpgradeType@BWAPI@@@4@$0A@@std@@@std@@IAEXPAU?$_Tree_node@VUpgradeType@BWAPI@@PAX@2@@Z 00402090 f i BWAPI:UnitType.obj
 0001:00001090       ?_Rrotate@?$_Tree@V?$_Tmap_traits@VUnitType@BWAPI@@HU?$less@VUnitType@BWAPI@@@std@@V?$allocator@U?$pair@$$CBVUnitType@BWAPI@@H@std@@@4@$0A@@std@@@std@@IAEXPAU?$_Tree_node@U?$pair@$$CBVUnitType@BWAPI@@H@std@@PAX@2@@Z 00402090 f i BWAPI:UnitType.obj
 0001:00001090       ?_Rrotate@?$_Tree@V?$_Tmap_traits@V?$basic_string@DU?$char_traits@D@std@@V?$allocator@D@2@@std@@HU?$less@V?$basic_string@DU?$char_traits@D@std@@V?$allocator@D@2@@std@@@2@V?$allocator@U?$pair@$$CBV?$basic_string@DU?$char_traits@D@std@@V?$allocator@D@2@@std@@H@std@@@2@$0A@@std@@@std@@IAEXPAU?$_Tree_node@U?$pair@$$CBV?$basic_string@DU?$char_traits@D@std@@V?$allocator@D@2@@std@@H@std@@PAX@2@@Z 00402090 f i main.obj
 0001:00001090       ?_Rrotate@?$_Tree@V?$_Tset_traits@VWeaponType@BWAPI@@U?$less@VWeaponType@BWAPI@@@std@@V?$allocator@VWeaponType@BWAPI@@@4@$0A@@std@@@std@@IAEXPAU?$_Tree_node@VWeaponType@BWAPI@@PAX@2@@Z 00402090 f i BWAPI:WeaponType.obj
 0001:000010f0       ?_Max@?$_Tree_val@U?$_Tree_simple_types@U?$pair@$$CBV?$basic_string@DU?$char_traits@D@std@@V?$allocator@D@2@@std@@VGameType@BWAPI@@@std@@@std@@@std@@SAPAU?$_Tree_node@U?$pair@$$CBV?$basic_string@DU?$char_traits@D@std@@V?$allocator@D@2@@std@@VGameType@BWAPI@@@std@@PAX@2@PAU32@@Z 004020f0 f i BWAPI:GameType.obj
 0001:000010f0       ?_Max@?$_Tree_val@U?$_Tree_simple_types@U?$pair@$$CBV?$basic_string@DU?$char_traits@D@std@@V?$allocator@D@2@@std@@VWeaponType@BWAPI@@@std@@@std@@@std@@SAPAU?$_Tree_node@U?$pair@$$CBV?$basic_string@DU?$char_traits@D@std@@V?$allocator@D@2@@std@@VWeaponType@BWAPI@@@std@@PAX@2@PAU32@@Z 004020f0 f i BWAPI:WeaponType.obj
 0001:000010f0       ?_Max@?$_Tree_val@U?$_Tree_simple_types@VUnitType@BWAPI@@@std@@@std@@SAPAU?$_Tree_node@VUnitType@BWAPI@@PAX@2@PAU32@@Z 004020f0 f i BWAPI:UnitType.obj
 0001:000010f0       ?_Max@?$_Tree_val@U?$_Tree_simple_types@U?$pair@$$CBHE@std@@@std@@@std@@SAPAU?$_Tree_node@U?$pair@$$CBHE@std@@PAX@2@PAU32@@Z 004020f0 f i SparCraft:PortfolioGreedySearch.obj
 0001:000010f0       ?_Max@?$_Tree_val@U?$_Tree_simple_types@VError@BWAPI@@@std@@@std@@SAPAU?$_Tree_node@VError@BWAPI@@PAX@2@PAU32@@Z 004020f0 f i BWAPI:Error.obj
 0001:000010f0       ?_Max@?$_Tree_val@U?$_Tree_simple_types@VUpgradeType@BWAPI@@@std@@@std@@SAPAU?$_Tree_node@VUpgradeType@BWAPI@@PAX@2@PAU32@@Z 004020f0 f i BWAPI:UnitType.obj
 0001:000010f0       ?_Max@?$_Tree_val@U?$_Tree_simple_types@U?$pair@$$CBV?$basic_string@DU?$char_traits@D@std@@V?$allocator@D@2@@std@@VExplosionType@BWAPI@@@std@@@std@@@std@@SAPAU?$_Tree_node@U?$pair@$$CBV?$basic_string@DU?$char_traits@D@std@@V?$allocator@D@2@@std@@VExplosionType@BWAPI@@@std@@PAX@2@PAU32@@Z 004020f0 f i BWAPI:ExplosionType.obj
 0001:000010f0       ?_Max@?$_Tree_val@U?$_Tree_simple_types@E@std@@@std@@SAPAU?$_Tree_node@EPAX@2@PAU32@@Z 004020f0 f i SparCraft:GameState.obj
 0001:000010f0       ?_Max@?$_Tree_val@U?$_Tree_simple_types@U?$pair@$$CBV?$basic_string@DU?$char_traits@D@std@@V?$allocator@D@2@@std@@VUnitSizeType@BWAPI@@@std@@@std@@@std@@SAPAU?$_Tree_node@U?$pair@$$CBV?$basic_string@DU?$char_traits@D@std@@V?$allocator@D@2@@std@@VUnitSizeType@BWAPI@@@std@@PAX@2@PAU32@@Z 004020f0 f i BWAPI:UnitSizeType.obj
 0001:000010f0       ?_Max@?$_Tree_val@U?$_Tree_simple_types@U?$pair@$$CBV?$basic_string@DU?$char_traits@D@std@@V?$allocator@D@2@@std@@VDamageType@BWAPI@@@std@@@std@@@std@@SAPAU?$_Tree_node@U?$pair@$$CBV?$basic_string@DU?$char_traits@D@std@@V?$allocator@D@2@@std@@VDamageType@BWAPI@@@std@@PAX@2@PAU32@@Z 004020f0 f i BWAPI:DamageType.obj
 0001:000010f0       ?_Max@?$_Tree_val@U?$_Tree_simple_types@VOrder@BWAPI@@@std@@@std@@SAPAU?$_Tree_node@VOrder@BWAPI@@PAX@2@PAU32@@Z 004020f0 f i BWAPI:Order.obj
 0001:000010f0       ?_Max@?$_Tree_val@U?$_Tree_simple_types@U?$pair@$$CBV?$basic_string@DU?$char_traits@D@std@@V?$allocator@D@2@@std@@VUpgradeType@BWAPI@@@std@@@std@@@std@@SAPAU?$_Tree_node@U?$pair@$$CBV?$basic_string@DU?$char_traits@D@std@@V?$allocator@D@2@@std@@VUpgradeType@BWAPI@@@std@@PAX@2@PAU32@@Z 004020f0 f i BWAPI:UpgradeType.obj
 0001:000010f0       ?_Max@?$_Tree_val@U?$_Tree_simple_types@VTechType@BWAPI@@@std@@@std@@SAPAU?$_Tree_node@VTechType@BWAPI@@PAX@2@PAU32@@Z 004020f0 f i BWAPI:UnitType.obj
 0001:000010f0       ?_Max@?$_Tree_val@U?$_Tree_simple_types@VWeaponType@BWAPI@@@std@@@std@@SAPAU?$_Tree_node@VWeaponType@BWAPI@@PAX@2@PAU32@@Z 004020f0 f i BWAPI:WeaponType.obj
 0001:000010f0       ?_Max@?$_Tree_val@U?$_Tree_simple_types@VUnitSizeType@BWAPI@@@std@@@std@@SAPAU?$_Tree_node@VUnitSizeType@BWAPI@@PAX@2@PAU32@@Z 004020f0 f i BWAPI:UnitSizeType.obj
 0001:000010f0       ?_Max@?$_Tree_val@U?$_Tree_simple_types@VGameType@BWAPI@@@std@@@std@@SAPAU?$_Tree_node@VGameType@BWAPI@@PAX@2@PAU32@@Z 004020f0 f i BWAPI:GameType.obj
 0001:000010f0       ?_Max@?$_Tree_val@U?$_Tree_simple_types@U?$pair@$$CBV?$basic_string@DU?$char_traits@D@std@@V?$allocator@D@2@@std@@VTechType@BWAPI@@@std@@@std@@@std@@SAPAU?$_Tree_node@U?$pair@$$CBV?$basic_string@DU?$char_traits@D@std@@V?$allocator@D@2@@std@@VTechType@BWAPI@@@std@@PAX@2@PAU32@@Z 004020f0 f i BWAPI:TechType.obj
 0001:000010f0       ?_Max@?$_Tree_val@U?$_Tree_simple_types@VPlayerType@BWAPI@@@std@@@std@@SAPAU?$_Tree_node@VPlayerType@BWAPI@@PAX@2@PAU32@@Z 004020f0 f i BWAPI:PlayerType.obj
 0001:000010f0       ?_Max@?$_Tree_val@U?$_Tree_simple_types@U?$pair@$$CBV?$basic_string@DU?$char_traits@D@std@@V?$allocator@D@2@@std@@VError@BWAPI@@@std@@@std@@@std@@SAPAU?$_Tree_node@U?$pair@$$CBV?$basic_string@DU?$char_traits@D@std@@V?$allocator@D@2@@std@@VError@BWAPI@@@std@@PAX@2@PAU32@@Z 004020f0 f i BWAPI:Error.obj
 0001:000010f0       ?_Max@?$_Tree_val@U?$_Tree_simple_types@U?$pair@$$CBV?$basic_string@DU?$char_traits@D@std@@V?$allocator@D@2@@std@@VRace@BWAPI@@@std@@@std@@@std@@SAPAU?$_Tree_node@U?$pair@$$CBV?$basic_string@DU?$char_traits@D@std@@V?$allocator@D@2@@std@@VRace@BWAPI@@@std@@PAX@2@PAU32@@Z 004020f0 f i BWAPI:Race.obj
 0001:000010f0       ?_Max@?$_Tree_val@U?$_Tree_simple_types@VExplosionType@BWAPI@@@std@@@std@@SAPAU?$_Tree_node@VExplosionType@BWAPI@@PAX@2@PAU32@@Z 004020f0 f i BWAPI:ExplosionType.obj
 0001:000010f0       ?_Max@?$_Tree_val@U?$_Tree_simple_types@VRace@BWAPI@@@std@@@std@@SAPAU?$_Tree_node@VRace@BWAPI@@PAX@2@PAU32@@Z 004020f0 f i BWAPI:Race.obj
 0001:000010f0       ?_Max@?$_Tree_val@U?$_Tree_simple_types@U?$pair@$$CBV?$basic_string@DU?$char_traits@D@std@@V?$allocator@D@2@@std@@VBulletType@BWAPI@@@std@@@std@@@std@@SAPAU?$_Tree_node@U?$pair@$$CBV?$basic_string@DU?$char_traits@D@std@@V?$allocator@D@2@@std@@VBulletType@BWAPI@@@std@@PAX@2@PAU32@@Z 004020f0 f i BWAPI:BulletType.obj
 0001:000010f0       ?_Max@?$_Tree_val@U?$_Tree_simple_types@U?$pair@$$CBV?$basic_string@DU?$char_traits@D@std@@V?$allocator@D@2@@std@@VUnitCommandType@BWAPI@@@std@@@std@@@std@@SAPAU?$_Tree_node@U?$pair@$$CBV?$basic_string@DU?$char_traits@D@std@@V?$allocator@D@2@@std@@VUnitCommandType@BWAPI@@@std@@PAX@2@PAU32@@Z 004020f0 f i BWAPI:UnitCommandType.obj
 0001:000010f0       ?_Max@?$_Tree_val@U?$_Tree_simple_types@U?$pair@$$CBV?$basic_string@DU?$char_traits@D@std@@V?$allocator@D@2@@std@@VPlayerType@BWAPI@@@std@@@std@@@std@@SAPAU?$_Tree_node@U?$pair@$$CBV?$basic_string@DU?$char_traits@D@std@@V?$allocator@D@2@@std@@VPlayerType@BWAPI@@@std@@PAX@2@PAU32@@Z 004020f0 f i BWAPI:PlayerType.obj
 0001:000010f0       ?_Max@?$_Tree_val@U?$_Tree_simple_types@U?$pair@$$CBV?$basic_string@DU?$char_traits@D@std@@V?$allocator@D@2@@std@@H@std@@@std@@@std@@SAPAU?$_Tree_node@U?$pair@$$CBV?$basic_string@DU?$char_traits@D@std@@V?$allocator@D@2@@std@@H@std@@PAX@2@PAU32@@Z 004020f0 f i main.obj
 0001:000010f0       ?_Max@?$_Tree_val@U?$_Tree_simple_types@VUnitCommandType@BWAPI@@@std@@@std@@SAPAU?$_Tree_node@VUnitCommandType@BWAPI@@PAX@2@PAU32@@Z 004020f0 f i BWAPI:UnitCommandType.obj
 0001:000010f0       ?_Max@?$_Tree_val@U?$_Tree_simple_types@U?$pair@$$CBV?$basic_string@DU?$char_traits@D@std@@V?$allocator@D@2@@std@@VOrder@BWAPI@@@std@@@std@@@std@@SAPAU?$_Tree_node@U?$pair@$$CBV?$basic_string@DU?$char_traits@D@std@@V?$allocator@D@2@@std@@VOrder@BWAPI@@@std@@PAX@2@PAU32@@Z 004020f0 f i BWAPI:Order.obj
 0001:000010f0       ?_Max@?$_Tree_val@U?$_Tree_simple_types@VDamageType@BWAPI@@@std@@@std@@SAPAU?$_Tree_node@VDamageType@BWAPI@@PAX@2@PAU32@@Z 004020f0 f i BWAPI:DamageType.obj
 0001:000010f0       ?_Max@?$_Tree_val@U?$_Tree_simple_types@U?$pair@$$CBVUnitType@BWAPI@@H@std@@@std@@@std@@SAPAU?$_Tree_node@U?$pair@$$CBVUnitType@BWAPI@@H@std@@PAX@2@PAU32@@Z 004020f0 f i BWAPI:UnitType.obj
 0001:000010f0       ?_Max@?$_Tree_val@U?$_Tree_simple_types@VBulletType@BWAPI@@@std@@@std@@SAPAU?$_Tree_node@VBulletType@BWAPI@@PAX@2@PAU32@@Z 004020f0 f i BWAPI:BulletType.obj
 0001:000010f0       ?_Max@?$_Tree_val@U?$_Tree_simple_types@U?$pair@$$CBV?$basic_string@DU?$char_traits@D@std@@V?$allocator@D@2@@std@@VUnitType@BWAPI@@@std@@@std@@@std@@SAPAU?$_Tree_node@U?$pair@$$CBV?$basic_string@DU?$char_traits@D@std@@V?$allocator@D@2@@std@@VUnitType@BWAPI@@@std@@PAX@2@PAU32@@Z 004020f0 f i BWAPI:UnitType.obj
 0001:00001110       ?_Buyheadnode@?$_Tree_alloc@$0A@U?$_Tree_base_types@U?$pair@$$CBV?$basic_string@DU?$char_traits@D@std@@V?$allocator@D@2@@std@@VError@BWAPI@@@std@@V?$allocator@U?$pair@$$CBV?$basic_string@DU?$char_traits@D@std@@V?$allocator@D@2@@std@@VError@BWAPI@@@std@@@2@@std@@@std@@QAEPAU?$_Tree_node@U?$pair@$$CBV?$basic_string@DU?$char_traits@D@std@@V?$allocator@D@2@@std@@VError@BWAPI@@@std@@PAX@2@XZ 00402110 f i BWAPI:Error.obj
 0001:00001110       ?_Buyheadnode@?$_Tree_alloc@$0A@U?$_Tree_base_types@U?$pair@$$CBV?$basic_string@DU?$char_traits@D@std@@V?$allocator@D@2@@std@@VPlayerType@BWAPI@@@std@@V?$allocator@U?$pair@$$CBV?$basic_string@DU?$char_traits@D@std@@V?$allocator@D@2@@std@@VPlayerType@BWAPI@@@std@@@2@@std@@@std@@QAEPAU?$_Tree_node@U?$pair@$$CBV?$basic_string@DU?$char_traits@D@std@@V?$allocator@D@2@@std@@VPlayerType@BWAPI@@@std@@PAX@2@XZ 00402110 f i BWAPI:PlayerType.obj
 0001:00001110       ?_Buyheadnode@?$_Tree_alloc@$0A@U?$_Tree_base_types@U?$pair@$$CBV?$basic_string@DU?$char_traits@D@std@@V?$allocator@D@2@@std@@VRace@BWAPI@@@std@@V?$allocator@U?$pair@$$CBV?$basic_string@DU?$char_traits@D@std@@V?$allocator@D@2@@std@@VRace@BWAPI@@@std@@@2@@std@@@std@@QAEPAU?$_Tree_node@U?$pair@$$CBV?$basic_string@DU?$char_traits@D@std@@V?$allocator@D@2@@std@@VRace@BWAPI@@@std@@PAX@2@XZ 00402110 f i BWAPI:Race.obj
 0001:00001110       ?_Buyheadnode@?$_Tree_alloc@$0A@U?$_Tree_base_types@U?$pair@$$CBV?$basic_string@DU?$char_traits@D@std@@V?$allocator@D@2@@std@@VExplosionType@BWAPI@@@std@@V?$allocator@U?$pair@$$CBV?$basic_string@DU?$char_traits@D@std@@V?$allocator@D@2@@std@@VExplosionType@BWAPI@@@std@@@2@@std@@@std@@QAEPAU?$_Tree_node@U?$pair@$$CBV?$basic_string@DU?$char_traits@D@std@@V?$allocator@D@2@@std@@VExplosionType@BWAPI@@@std@@PAX@2@XZ 00402110 f i BWAPI:ExplosionType.obj
 0001:00001110       ?_Buyheadnode@?$_Tree_alloc@$0A@U?$_Tree_base_types@U?$pair@$$CBV?$basic_string@DU?$char_traits@D@std@@V?$allocator@D@2@@std@@VUnitCommandType@BWAPI@@@std@@V?$allocator@U?$pair@$$CBV?$basic_string@DU?$char_traits@D@std@@V?$allocator@D@2@@std@@VUnitCommandType@BWAPI@@@std@@@2@@std@@@std@@QAEPAU?$_Tree_node@U?$pair@$$CBV?$basic_string@DU?$char_traits@D@std@@V?$allocator@D@2@@std@@VUnitCommandType@BWAPI@@@std@@PAX@2@XZ 00402110 f i BWAPI:UnitCommandType.obj
 0001:00001110       ?_Buyheadnode@?$_Tree_alloc@$0A@U?$_Tree_base_types@U?$pair@$$CBV?$basic_string@DU?$char_traits@D@std@@V?$allocator@D@2@@std@@VUpgradeType@BWAPI@@@std@@V?$allocator@U?$pair@$$CBV?$basic_string@DU?$char_traits@D@std@@V?$allocator@D@2@@std@@VUpgradeType@BWAPI@@@std@@@2@@std@@@std@@QAEPAU?$_Tree_node@U?$pair@$$CBV?$basic_string@DU?$char_traits@D@std@@V?$allocator@D@2@@std@@VUpgradeType@BWAPI@@@std@@PAX@2@XZ 00402110 f i BWAPI:UpgradeType.obj
 0001:00001110       ?_Buyheadnode@?$_Tree_alloc@$0A@U?$_Tree_base_types@U?$pair@$$CBV?$basic_string@DU?$char_traits@D@std@@V?$allocator@D@2@@std@@VBulletType@BWAPI@@@std@@V?$allocator@U?$pair@$$CBV?$basic_string@DU?$char_traits@D@std@@V?$allocator@D@2@@std@@VBulletType@BWAPI@@@std@@@2@@std@@@std@@QAEPAU?$_Tree_node@U?$pair@$$CBV?$basic_string@DU?$char_traits@D@std@@V?$allocator@D@2@@std@@VBulletType@BWAPI@@@std@@PAX@2@XZ 00402110 f i BWAPI:BulletType.obj
 0001:00001110       ?_Buyheadnode@?$_Tree_alloc@$0A@U?$_Tree_base_types@U?$pair@$$CBV?$basic_string@DU?$char_traits@D@std@@V?$allocator@D@2@@std@@VUnitType@BWAPI@@@std@@V?$allocator@U?$pair@$$CBV?$basic_string@DU?$char_traits@D@std@@V?$allocator@D@2@@std@@VUnitType@BWAPI@@@std@@@2@@std@@@std@@QAEPAU?$_Tree_node@U?$pair@$$CBV?$basic_string@DU?$char_traits@D@std@@V?$allocator@D@2@@std@@VUnitType@BWAPI@@@std@@PAX@2@XZ 00402110 f i BWAPI:UnitType.obj
 0001:00001110       ?_Buyheadnode@?$_Tree_alloc@$0A@U?$_Tree_base_types@U?$pair@$$CBV?$basic_string@DU?$char_traits@D@std@@V?$allocator@D@2@@std@@H@std@@V?$allocator@U?$pair@$$CBV?$basic_string@DU?$char_traits@D@std@@V?$allocator@D@2@@std@@H@std@@@2@@std@@@std@@QAEPAU?$_Tree_node@U?$pair@$$CBV?$basic_string@DU?$char_traits@D@std@@V?$allocator@D@2@@std@@H@std@@PAX@2@XZ 00402110 f i main.obj
 0001:00001110       ?_Buyheadnode@?$_Tree_alloc@$0A@U?$_Tree_base_types@U?$pair@$$CBV?$basic_string@DU?$char_traits@D@std@@V?$allocator@D@2@@std@@VUnitSizeType@BWAPI@@@std@@V?$allocator@U?$pair@$$CBV?$basic_string@DU?$char_traits@D@std@@V?$allocator@D@2@@std@@VUnitSizeType@BWAPI@@@std@@@2@@std@@@std@@QAEPAU?$_Tree_node@U?$pair@$$CBV?$basic_string@DU?$char_traits@D@std@@V?$allocator@D@2@@std@@VUnitSizeType@BWAPI@@@std@@PAX@2@XZ 00402110 f i BWAPI:UnitSizeType.obj
 0001:00001110       ?_Buyheadnode@?$_Tree_alloc@$0A@U?$_Tree_base_types@U?$pair@$$CBV?$basic_string@DU?$char_traits@D@std@@V?$allocator@D@2@@std@@VWeaponType@BWAPI@@@std@@V?$allocator@U?$pair@$$CBV?$basic_string@DU?$char_traits@D@std@@V?$allocator@D@2@@std@@VWeaponType@BWAPI@@@std@@@2@@std@@@std@@QAEPAU?$_Tree_node@U?$pair@$$CBV?$basic_string@DU?$char_traits@D@std@@V?$allocator@D@2@@std@@VWeaponType@BWAPI@@@std@@PAX@2@XZ 00402110 f i BWAPI:WeaponType.obj
 0001:00001110       ?_Buyheadnode@?$_Tree_alloc@$0A@U?$_Tree_base_types@U?$pair@$$CBV?$basic_string@DU?$char_traits@D@std@@V?$allocator@D@2@@std@@VOrder@BWAPI@@@std@@V?$allocator@U?$pair@$$CBV?$basic_string@DU?$char_traits@D@std@@V?$allocator@D@2@@std@@VOrder@BWAPI@@@std@@@2@@std@@@std@@QAEPAU?$_Tree_node@U?$pair@$$CBV?$basic_string@DU?$char_traits@D@std@@V?$allocator@D@2@@std@@VOrder@BWAPI@@@std@@PAX@2@XZ 00402110 f i BWAPI:Order.obj
 0001:00001110       ?_Buyheadnode@?$_Tree_alloc@$0A@U?$_Tree_base_types@U?$pair@$$CBV?$basic_string@DU?$char_traits@D@std@@V?$allocator@D@2@@std@@VGameType@BWAPI@@@std@@V?$allocator@U?$pair@$$CBV?$basic_string@DU?$char_traits@D@std@@V?$allocator@D@2@@std@@VGameType@BWAPI@@@std@@@2@@std@@@std@@QAEPAU?$_Tree_node@U?$pair@$$CBV?$basic_string@DU?$char_traits@D@std@@V?$allocator@D@2@@std@@VGameType@BWAPI@@@std@@PAX@2@XZ 00402110 f i BWAPI:GameType.obj
 0001:00001110       ?_Buyheadnode@?$_Tree_alloc@$0A@U?$_Tree_base_types@U?$pair@$$CBV?$basic_string@DU?$char_traits@D@std@@V?$allocator@D@2@@std@@VDamageType@BWAPI@@@std@@V?$allocator@U?$pair@$$CBV?$basic_string@DU?$char_traits@D@std@@V?$allocator@D@2@@std@@VDamageType@BWAPI@@@std@@@2@@std@@@std@@QAEPAU?$_Tree_node@U?$pair@$$CBV?$basic_string@DU?$char_traits@D@std@@V?$allocator@D@2@@std@@VDamageType@BWAPI@@@std@@PAX@2@XZ 00402110 f i BWAPI:DamageType.obj
 0001:00001110       ?_Buyheadnode@?$_Tree_alloc@$0A@U?$_Tree_base_types@U?$pair@$$CBV?$basic_string@DU?$char_traits@D@std@@V?$allocator@D@2@@std@@VTechType@BWAPI@@@std@@V?$allocator@U?$pair@$$CBV?$basic_string@DU?$char_traits@D@std@@V?$allocator@D@2@@std@@VTechType@BWAPI@@@std@@@2@@std@@@std@@QAEPAU?$_Tree_node@U?$pair@$$CBV?$basic_string@DU?$char_traits@D@std@@V?$allocator@D@2@@std@@VTechType@BWAPI@@@std@@PAX@2@XZ 00402110 f i BWAPI:TechType.obj
 0001:00001140       ??E?$_Tree_unchecked_const_iterator@V?$_Tree_val@U?$_Tree_simple_types@U?$pair@$$CBHE@std@@@std@@@std@@U_Iterator_base0@2@@std@@QAEAAV01@XZ 00402140 f i SparCraft:PortfolioGreedySearch.obj
 0001:00001140       ??E?$_Tree_unchecked_const_iterator@V?$_Tree_val@U?$_Tree_simple_types@VDamageType@BWAPI@@@std@@@std@@U_Iterator_base0@2@@std@@QAEAAV01@XZ 00402140 f i BWAPI:DamageType.obj
 0001:00001140       ??E?$_Tree_unchecked_const_iterator@V?$_Tree_val@U?$_Tree_simple_types@U?$pair@$$CBV?$basic_string@DU?$char_traits@D@std@@V?$allocator@D@2@@std@@VUnitType@BWAPI@@@std@@@std@@@std@@U_Iterator_base0@2@@std@@QAEAAV01@XZ 00402140 f i BWAPI:UnitType.obj
 0001:00001140       ??E?$_Tree_unchecked_const_iterator@V?$_Tree_val@U?$_Tree_simple_types@U?$pair@$$CBV?$basic_string@DU?$char_traits@D@std@@V?$allocator@D@2@@std@@VOrder@BWAPI@@@std@@@std@@@std@@U_Iterator_base0@2@@std@@QAEAAV01@XZ 00402140 f i BWAPI:Order.obj
 0001:00001140       ??E?$_Tree_unchecked_const_iterator@V?$_Tree_val@U?$_Tree_simple_types@VTechType@BWAPI@@@std@@@std@@U_Iterator_base0@2@@std@@QAEAAV01@XZ 00402140 f i BWAPI:UnitType.obj
 0001:00001140       ??E?$_Tree_unchecked_const_iterator@V?$_Tree_val@U?$_Tree_simple_types@VUnitCommandType@BWAPI@@@std@@@std@@U_Iterator_base0@2@@std@@QAEAAV01@XZ 00402140 f i BWAPI:UnitCommandType.obj
 0001:00001140       ??E?$_Tree_unchecked_const_iterator@V?$_Tree_val@U?$_Tree_simple_types@U?$pair@$$CBV?$basic_string@DU?$char_traits@D@std@@V?$allocator@D@2@@std@@VUnitSizeType@BWAPI@@@std@@@std@@@std@@U_Iterator_base0@2@@std@@QAEAAV01@XZ 00402140 f i BWAPI:UnitSizeType.obj
 0001:00001140       ??E?$_Tree_unchecked_const_iterator@V?$_Tree_val@U?$_Tree_simple_types@U?$pair@$$CBV?$basic_string@DU?$char_traits@D@std@@V?$allocator@D@2@@std@@VWeaponType@BWAPI@@@std@@@std@@@std@@U_Iterator_base0@2@@std@@QAEAAV01@XZ 00402140 f i BWAPI:WeaponType.obj
 0001:00001140       ??E?$_Tree_unchecked_const_iterator@V?$_Tree_val@U?$_Tree_simple_types@VUpgradeType@BWAPI@@@std@@@std@@U_Iterator_base0@2@@std@@QAEAAV01@XZ 00402140 f i BWAPI:UnitType.obj
 0001:00001140       ??E?$_Tree_unchecked_const_iterator@V?$_Tree_val@U?$_Tree_simple_types@U?$pair@$$CBV?$basic_string@DU?$char_traits@D@std@@V?$allocator@D@2@@std@@VUnitCommandType@BWAPI@@@std@@@std@@@std@@U_Iterator_base0@2@@std@@QAEAAV01@XZ 00402140 f i BWAPI:UnitCommandType.obj
 0001:00001140       ??E?$_Tree_unchecked_const_iterator@V?$_Tree_val@U?$_Tree_simple_types@U?$pair@$$CBV?$basic_string@DU?$char_traits@D@std@@V?$allocator@D@2@@std@@VUpgradeType@BWAPI@@@std@@@std@@@std@@U_Iterator_base0@2@@std@@QAEAAV01@XZ 00402140 f i BWAPI:UpgradeType.obj
 0001:00001140       ??E?$_Tree_unchecked_const_iterator@V?$_Tree_val@U?$_Tree_simple_types@VUnitType@BWAPI@@@std@@@std@@U_Iterator_base0@2@@std@@QAEAAV01@XZ 00402140 f i SparCraft:Display.obj
 0001:00001140       ??E?$_Tree_unchecked_const_iterator@V?$_Tree_val@U?$_Tree_simple_types@U?$pair@$$CBV?$basic_string@DU?$char_traits@D@std@@V?$allocator@D@2@@std@@VRace@BWAPI@@@std@@@std@@@std@@U_Iterator_base0@2@@std@@QAEAAV01@XZ 00402140 f i BWAPI:Race.obj
 0001:00001140       ??E?$_Tree_unchecked_const_iterator@V?$_Tree_val@U?$_Tree_simple_types@VError@BWAPI@@@std@@@std@@U_Iterator_base0@2@@std@@QAEAAV01@XZ 00402140 f i BWAPI:Error.obj
 0001:00001140       ??E?$_Tree_unchecked_const_iterator@V?$_Tree_val@U?$_Tree_simple_types@VUnitSizeType@BWAPI@@@std@@@std@@U_Iterator_base0@2@@std@@QAEAAV01@XZ 00402140 f i BWAPI:UnitSizeType.obj
 0001:00001140       ??E?$_Tree_unchecked_const_iterator@V?$_Tree_val@U?$_Tree_simple_types@E@std@@@std@@U_Iterator_base0@2@@std@@QAEAAV01@XZ 00402140 f i SparCraft:GameState.obj
 0001:00001140       ??E?$_Tree_unchecked_const_iterator@V?$_Tree_val@U?$_Tree_simple_types@U?$pair@$$CBV?$basic_string@DU?$char_traits@D@std@@V?$allocator@D@2@@std@@VError@BWAPI@@@std@@@std@@@std@@U_Iterator_base0@2@@std@@QAEAAV01@XZ 00402140 f i BWAPI:Error.obj
 0001:00001140       ??E?$_Tree_unchecked_const_iterator@V?$_Tree_val@U?$_Tree_simple_types@U?$pair@$$CBV?$basic_string@DU?$char_traits@D@std@@V?$allocator@D@2@@std@@VExplosionType@BWAPI@@@std@@@std@@@std@@U_Iterator_base0@2@@std@@QAEAAV01@XZ 00402140 f i BWAPI:ExplosionType.obj
 0001:00001140       ??E?$_Tree_unchecked_const_iterator@V?$_Tree_val@U?$_Tree_simple_types@VRace@BWAPI@@@std@@@std@@U_Iterator_base0@2@@std@@QAEAAV01@XZ 00402140 f i BWAPI:Race.obj
 0001:00001140       ??E?$_Tree_unchecked_const_iterator@V?$_Tree_val@U?$_Tree_simple_types@VPlayerType@BWAPI@@@std@@@std@@U_Iterator_base0@2@@std@@QAEAAV01@XZ 00402140 f i BWAPI:PlayerType.obj
 0001:00001140       ??E?$_Tree_unchecked_const_iterator@V?$_Tree_val@U?$_Tree_simple_types@U?$pair@$$CBV?$basic_string@DU?$char_traits@D@std@@V?$allocator@D@2@@std@@VTechType@BWAPI@@@std@@@std@@@std@@U_Iterator_base0@2@@std@@QAEAAV01@XZ 00402140 f i BWAPI:TechType.obj
 0001:00001140       ??E?$_Tree_unchecked_const_iterator@V?$_Tree_val@U?$_Tree_simple_types@VGameType@BWAPI@@@std@@@std@@U_Iterator_base0@2@@std@@QAEAAV01@XZ 00402140 f i BWAPI:GameType.obj
 0001:00001140       ??E?$_Tree_unchecked_const_iterator@V?$_Tree_val@U?$_Tree_simple_types@U?$pair@$$CBV?$basic_string@DU?$char_traits@D@std@@V?$allocator@D@2@@std@@H@std@@@std@@@std@@U_Iterator_base0@2@@std@@QAEAAV01@XZ 00402140 f i main.obj
 0001:00001140       ??E?$_Tree_unchecked_const_iterator@V?$_Tree_val@U?$_Tree_simple_types@VOrder@BWAPI@@@std@@@std@@U_Iterator_base0@2@@std@@QAEAAV01@XZ 00402140 f i BWAPI:Order.obj
 0001:00001140       ??E?$_Tree_unchecked_const_iterator@V?$_Tree_val@U?$_Tree_simple_types@U?$pair@$$CBV?$basic_string@DU?$char_traits@D@std@@V?$allocator@D@2@@std@@VDamageType@BWAPI@@@std@@@std@@@std@@U_Iterator_base0@2@@std@@QAEAAV01@XZ 00402140 f i BWAPI:DamageType.obj
 0001:00001140       ??E?$_Tree_unchecked_const_iterator@V?$_Tree_val@U?$_Tree_simple_types@U?$pair@$$CBVUnitType@BWAPI@@H@std@@@std@@@std@@U_Iterator_base0@2@@std@@QAEAAV01@XZ 00402140 f i BWAPI:UnitType.obj
 0001:00001140       ??E?$_Tree_unchecked_const_iterator@V?$_Tree_val@U?$_Tree_simple_types@U?$pair@$$CBV?$basic_string@DU?$char_traits@D@std@@V?$allocator@D@2@@std@@VGameType@BWAPI@@@std@@@std@@@std@@U_Iterator_base0@2@@std@@QAEAAV01@XZ 00402140 f i BWAPI:GameType.obj
 0001:00001140       ??E?$_Tree_unchecked_const_iterator@V?$_Tree_val@U?$_Tree_simple_types@VExplosionType@BWAPI@@@std@@@std@@U_Iterator_base0@2@@std@@QAEAAV01@XZ 00402140 f i BWAPI:ExplosionType.obj
 0001:00001140       ??E?$_Tree_unchecked_const_iterator@V?$_Tree_val@U?$_Tree_simple_types@U?$pair@$$CBV?$basic_string@DU?$char_traits@D@std@@V?$allocator@D@2@@std@@VPlayerType@BWAPI@@@std@@@std@@@std@@U_Iterator_base0@2@@std@@QAEAAV01@XZ 00402140 f i BWAPI:PlayerType.obj
 0001:00001140       ??E?$_Tree_unchecked_const_iterator@V?$_Tree_val@U?$_Tree_simple_types@VWeaponType@BWAPI@@@std@@@std@@U_Iterator_base0@2@@std@@QAEAAV01@XZ 00402140 f i SparCraft:WeaponProperties.obj
 0001:00001140       ??E?$_Tree_unchecked_const_iterator@V?$_Tree_val@U?$_Tree_simple_types@U?$pair@$$CBV?$basic_string@DU?$char_traits@D@std@@V?$allocator@D@2@@std@@VBulletType@BWAPI@@@std@@@std@@@std@@U_Iterator_base0@2@@std@@QAEAAV01@XZ 00402140 f i BWAPI:BulletType.obj
 0001:00001140       ??E?$_Tree_unchecked_const_iterator@V?$_Tree_val@U?$_Tree_simple_types@VBulletType@BWAPI@@@std@@@std@@U_Iterator_base0@2@@std@@QAEAAV01@XZ 00402140 f i BWAPI:BulletType.obj
 0001:00001190       ??$destroy@V?$basic_string@DU?$char_traits@D@std@@V?$allocator@D@2@@std@@@?$_Wrap_alloc@V?$allocator@V?$basic_string@DU?$char_traits@D@std@@V?$allocator@D@2@@std@@@std@@@std@@QAEXPAV?$basic_string@DU?$char_traits@D@std@@V?$allocator@D@2@@1@@Z 00402190 f i main.obj
 0001:000011c0       ?compare@?$char_traits@D@std@@SAHPBD0I@Z 004021c0 f i SearchExperiment.obj
 0001:00001220       ??1locale@std@@QAE@XZ      00402220 f i SearchExperiment.obj
 0001:00001240       ??_D?$basic_stringstream@DU?$char_traits@D@std@@V?$allocator@D@2@@std@@QAEXXZ 00402240 f i SearchExperiment.obj
 0001:00001290       ??1?$vector@VPosition@SparCraft@@V?$allocator@VPosition@SparCraft@@@std@@@std@@QAE@XZ 00402290 f i SparCraft:Display.obj
 0001:00001290       ??1?$vector@U?$pair@HH@std@@V?$allocator@U?$pair@HH@std@@@2@@std@@QAE@XZ 00402290 f i SparCraft:AnimationFrameData.obj
 0001:00001290       ??1?$vector@VGameState@SparCraft@@V?$allocator@VGameState@SparCraft@@@std@@@std@@QAE@XZ 00402290 f i SearchExperiment.obj
 0001:00001290       ??1AlphaBetaMove@SparCraft@@QAE@XZ 00402290 f i SearchExperiment.obj
 0001:00001290       ??1?$vector@NV?$allocator@N@std@@@std@@QAE@XZ 00402290 f i SearchExperiment.obj
 0001:00001290       ??1?$vector@VUnitAction@SparCraft@@V?$allocator@VUnitAction@SparCraft@@@std@@@std@@QAE@XZ 00402290 f i SearchExperiment.obj
 0001:00001290       ??1?$_Vb_val@V?$allocator@_N@std@@@std@@QAE@XZ 00402290 f i SearchExperiment.obj
 0001:00001290       ??1?$vector@IV?$allocator@I@std@@@std@@QAE@XZ 00402290 f i SparCraft:Display.obj
 0001:00001290       ??1?$vector@EV?$allocator@E@std@@@std@@QAE@XZ 00402290 f i SearchExperiment.obj
 0001:00001290       ?_Tidy@?$vector@VUnitAction@SparCraft@@V?$allocator@VUnitAction@SparCraft@@@std@@@std@@IAEXXZ 00402290 f i SearchExperiment.obj
 0001:00001290       ??1?$vector@HV?$allocator@H@std@@@std@@QAE@XZ 00402290 f i SearchExperiment.obj
 0001:000012c0       ?resetVectors@Map@SparCraft@@AAEXXZ 004022c0 f i SearchExperiment.obj
 0001:00001560       ??0Map@SparCraft@@QAE@XZ   00402560 f i SearchExperiment.obj
 0001:000015c0       ??0Map@SparCraft@@QAE@ABI0@Z 004025c0 f i SearchExperiment.obj
 0001:00001680       ?load@Map@SparCraft@@QAEXABV?$basic_string@DU?$char_traits@D@std@@V?$allocator@D@2@@std@@@Z 00402680 f i SearchExperiment.obj
 0001:000019a0       ??_D?$basic_ofstream@DU?$char_traits@D@std@@@std@@QAEXXZ 004029a0 f i SearchExperiment.obj
 0001:000019e0       ??_D?$basic_ifstream@DU?$char_traits@D@std@@@std@@QAEXXZ 004029e0 f i SearchExperiment.obj
 0001:00001a20       ?destroy@sp_counted_base@detail@boost@@UAEXXZ 00402a20 f i SearchExperiment.obj
 0001:00001a30       ??_G?$sp_counted_impl_p@VTranspositionTable@SparCraft@@@detail@boost@@UAEPAXI@Z 00402a30 f i SearchExperiment.obj
 0001:00001a30       ??_E?$sp_counted_impl_p@VTranspositionTable@SparCraft@@@detail@boost@@UAEPAXI@Z 00402a30 f i * CIL library *:* CIL module *
 0001:00001a30       ??_E?$sp_counted_impl_p@VPlayer_Kiter@SparCraft@@@detail@boost@@UAEPAXI@Z 00402a30 f i * CIL library *:* CIL module *
 0001:00001a30       ??_E?$sp_counted_impl_p@VPlayer_AttackDPS@SparCraft@@@detail@boost@@UAEPAXI@Z 00402a30 f i * CIL library *:* CIL module *
 0001:00001a30       ??_E?$sp_counted_impl_p@VPlayer_AttackClosest@SparCraft@@@detail@boost@@UAEPAXI@Z 00402a30 f i * CIL library *:* CIL module *
 0001:00001a30       ??_G?$sp_counted_impl_p@VPlayer_PortfolioGreedySearch@SparCraft@@@detail@boost@@UAEPAXI@Z 00402a30 f i SearchExperiment.obj
 0001:00001a30       ??_G?$sp_counted_impl_p@VPlayer_AttackWeakest@SparCraft@@@detail@boost@@UAEPAXI@Z 00402a30 f i SearchExperiment.obj
 0001:00001a30       ??_E?$sp_counted_impl_p@VPlayer_PortfolioGreedySearch@SparCraft@@@detail@boost@@UAEPAXI@Z 00402a30 f i * CIL library *:* CIL module *
 0001:00001a30       ??_G?$sp_counted_impl_p@VPlayer_Random@SparCraft@@@detail@boost@@UAEPAXI@Z 00402a30 f i SearchExperiment.obj
 0001:00001a30       ??_E?$sp_counted_impl_p@VPlayer_AlphaBeta@SparCraft@@@detail@boost@@UAEPAXI@Z 00402a30 f i * CIL library *:* CIL module *
 0001:00001a30       ??_G?$sp_counted_impl_p@VPlayer_UCT@SparCraft@@@detail@boost@@UAEPAXI@Z 00402a30 f i SearchExperiment.obj
 0001:00001a30       ??_E?$sp_counted_impl_p@VPlayer_Cluster@SparCraft@@@detail@boost@@UAEPAXI@Z 00402a30 f i * CIL library *:* CIL module *
 0001:00001a30       ??_E?$sp_counted_impl_p@VPlayer_NOKDPS@SparCraft@@@detail@boost@@UAEPAXI@Z 00402a30 f i * CIL library *:* CIL module *
 0001:00001a30       ??_E?$sp_counted_impl_p@VPlayer_AttackWeakest@SparCraft@@@detail@boost@@UAEPAXI@Z 00402a30 f i * CIL library *:* CIL module *
 0001:00001a30       ??_G?$sp_counted_impl_p@VPlayer_IUCT@SparCraft@@@detail@boost@@UAEPAXI@Z 00402a30 f i SearchExperiment.obj
 0001:00001a30       ??_G?$sp_counted_impl_p@VPlayer_KiterDPS@SparCraft@@@detail@boost@@UAEPAXI@Z 00402a30 f i SearchExperiment.obj
 0001:00001a30       ??_E?$sp_counted_impl_p@VPlayer_IUCT@SparCraft@@@detail@boost@@UAEPAXI@Z 00402a30 f i * CIL library *:* CIL module *
 0001:00001a30       ??_G?$sp_counted_impl_p@VPlayer_AlphaBeta@SparCraft@@@detail@boost@@UAEPAXI@Z 00402a30 f i SearchExperiment.obj
 0001:00001a30       ??_G?$sp_counted_impl_p@VPlayer_Kiter_NOKDPS@SparCraft@@@detail@boost@@UAEPAXI@Z 00402a30 f i SearchExperiment.obj
 0001:00001a30       ??_Esp_counted_base@detail@boost@@UAEPAXI@Z 00402a30 f i * CIL library *:* CIL module *
 0001:00001a30       ??_G?$sp_counted_impl_p@VPlayer_Cluster@SparCraft@@@detail@boost@@UAEPAXI@Z 00402a30 f i SearchExperiment.obj
 0001:00001a30       ??_G?$sp_counted_impl_p@VPlayer_Kiter@SparCraft@@@detail@boost@@UAEPAXI@Z 00402a30 f i SearchExperiment.obj
 0001:00001a30       ??_E?$sp_counted_impl_p@VPlayer_KiterDPS@SparCraft@@@detail@boost@@UAEPAXI@Z 00402a30 f i * CIL library *:* CIL module *
 0001:00001a30       ??_G?$sp_counted_impl_p@VPlayer_AttackClosest@SparCraft@@@detail@boost@@UAEPAXI@Z 00402a30 f i SearchExperiment.obj
 0001:00001a30       ??_G?$sp_counted_impl_p@VPlayer_AttackDPS@SparCraft@@@detail@boost@@UAEPAXI@Z 00402a30 f i SearchExperiment.obj
 0001:00001a30       ??_Gsp_counted_base@detail@boost@@UAEPAXI@Z 00402a30 f i SearchExperiment.obj
 0001:00001a30       ??_E?$sp_counted_impl_p@VPlayer_Random@SparCraft@@@detail@boost@@UAEPAXI@Z 00402a30 f i * CIL library *:* CIL module *
 0001:00001a30       ??_E?$sp_counted_impl_p@VPlayer_Kiter_NOKDPS@SparCraft@@@detail@boost@@UAEPAXI@Z 00402a30 f i * CIL library *:* CIL module *
 0001:00001a30       ??_G?$sp_counted_impl_p@VPlayer_NOKDPS@SparCraft@@@detail@boost@@UAEPAXI@Z 00402a30 f i SearchExperiment.obj
 0001:00001a30       ??_E?$sp_counted_impl_p@VPlayer_UCT@SparCraft@@@detail@boost@@UAEPAXI@Z 00402a30 f i * CIL library *:* CIL module *
 0001:00001a50       ??1shared_count@detail@boost@@QAE@XZ 00402a50 f i SearchExperiment.obj
 0001:00001a90       ??0AlphaBetaSearchParameters@SparCraft@@QAE@XZ 00402a90 f i SearchExperiment.obj
 0001:00001b00       ??1?$shared_ptr@VPlayer@SparCraft@@@boost@@QAE@XZ 00402b00 f i SearchExperiment.obj
 0001:00001b00       ??1?$shared_ptr@VTranspositionTable@SparCraft@@@boost@@QAE@XZ 00402b00 f i SearchExperiment.obj
 0001:00001b40       ??0IUCTSearchParameters@SparCraft@@QAE@XZ 00402b40 f i SearchExperiment.obj
 0001:00001b40       ??0UCTSearchParameters@SparCraft@@QAE@XZ 00402b40 f i SearchExperiment.obj
 0001:00001bc0       ??0SearchExperiment@SparCraft@@QAE@ABV?$basic_string@DU?$char_traits@D@std@@V?$allocator@D@2@@std@@@Z 00402bc0 f   SearchExperiment.obj
 0001:00001f10       ??1SearchExperiment@SparCraft@@QAE@XZ 00402f10 f   SearchExperiment.obj
 0001:000022f0       ??1Map@SparCraft@@QAE@XZ   004032f0 f i SearchExperiment.obj
 0001:000023a0       ?setupResults@SearchExperiment@SparCraft@@AAEXXZ 004033a0 f   SearchExperiment.obj
 0001:00002a60       ?writeConfig@SearchExperiment@SparCraft@@AAEXABV?$basic_string@DU?$char_traits@D@std@@V?$allocator@D@2@@std@@@Z 00403a60 f   SearchExperiment.obj
 0001:00002c50       ?writeResultsSummary@SearchExperiment@SparCraft@@QAEXXZ 00403c50 f   SearchExperiment.obj
 0001:00002f20       ?getResultsSummaryFileName@SearchExperiment@SparCraft@@AAE?AV?$basic_string@DU?$char_traits@D@std@@V?$allocator@D@2@@std@@XZ 00403f20 f   SearchExperiment.obj
 0001:00003050       ?getResultsOutFileName@SearchExperiment@SparCraft@@AAE?AV?$basic_string@DU?$char_traits@D@std@@V?$allocator@D@2@@std@@XZ 00404050 f   SearchExperiment.obj
 0001:00003180       ?getConfigOutFileName@SearchExperiment@SparCraft@@AAE?AV?$basic_string@DU?$char_traits@D@std@@V?$allocator@D@2@@std@@XZ 00404180 f   SearchExperiment.obj
 0001:000032b0       ?getDateTimeString@SearchExperiment@SparCraft@@AAE?AV?$basic_string@DU?$char_traits@D@std@@V?$allocator@D@2@@std@@XZ 004042b0 f   SearchExperiment.obj
 0001:000032f0       ?setCurrentDateTime@SearchExperiment@SparCraft@@AAEXXZ 004042f0 f   SearchExperiment.obj
 0001:000034a0       ?getLines@SearchExperiment@SparCraft@@AAE?AV?$vector@V?$basic_string@DU?$char_traits@D@std@@V?$allocator@D@2@@std@@V?$allocator@V?$basic_string@DU?$char_traits@D@std@@V?$allocator@D@2@@std@@@2@@std@@ABV?$basic_string@DU?$char_traits@D@std@@V?$allocator@D@2@@4@@Z 004044a0 f   SearchExperiment.obj
 0001:000036a0       ?parseConfigFile@SearchExperiment@SparCraft@@AAEXABV?$basic_string@DU?$char_traits@D@std@@V?$allocator@D@2@@std@@@Z 004046a0 f   SearchExperiment.obj
 0001:00003ef0       ??_D?$basic_istringstream@DU?$char_traits@D@std@@V?$allocator@D@2@@std@@QAEXXZ 00404ef0 f i SearchExperiment.obj
 0001:00003f40       ?addState@SearchExperiment@SparCraft@@AAEXABV?$basic_string@DU?$char_traits@D@std@@V?$allocator@D@2@@std@@@Z 00404f40 f   SearchExperiment.obj
 0001:000046b0       ?parseStateDescriptionFile@SearchExperiment@SparCraft@@AAEXABV?$basic_string@DU?$char_traits@D@std@@V?$allocator@D@2@@std@@@Z 004056b0 f   SearchExperiment.obj
 0001:00004a00       ?getUnitType@SearchExperiment@SparCraft@@AAE?AVUnitType@BWAPI@@ABV?$basic_string@DU?$char_traits@D@std@@V?$allocator@D@2@@std@@@Z 00405a00 f   SearchExperiment.obj
 0001:00004a80       ?addPlayer@SearchExperiment@SparCraft@@AAEXABV?$basic_string@DU?$char_traits@D@std@@V?$allocator@D@2@@std@@@Z 00405a80 f   SearchExperiment.obj
 0001:00005e20       ??1AlphaBetaSearchParameters@SparCraft@@QAE@XZ 00406e20 f i SearchExperiment.obj
 0001:00005eb0       ??1IUCTSearchParameters@SparCraft@@QAE@XZ 00406eb0 f i SearchExperiment.obj
 0001:00005eb0       ??1UCTSearchParameters@SparCraft@@QAE@XZ 00406eb0 f i SearchExperiment.obj
 0001:00005f40       ?getSymmetricState@SearchExperiment@SparCraft@@AAE?AVGameState@2@AAV?$vector@V?$basic_string@DU?$char_traits@D@std@@V?$allocator@D@2@@std@@V?$allocator@V?$basic_string@DU?$char_traits@D@std@@V?$allocator@D@2@@std@@@2@@std@@AAV?$vector@HV?$allocator@H@std@@@5@ABH2@Z 00406f40 f   SearchExperiment.obj
 0001:00006190       ??0GameState@SparCraft@@QAE@ABV01@@Z 00407190 f i SearchExperiment.obj
 0001:000062d0       ??4?$Array@VUnit@SparCraft@@$00@SparCraft@@QAEAAV01@ABV01@@Z 004072d0 f i SparCraft:Display.obj
 0001:000062d0       ??0?$Array@VUnit@SparCraft@@$00@SparCraft@@QAE@ABV01@@Z 004072d0 f i SearchExperiment.obj
 0001:00006360       ?addSeparatedState@SearchExperiment@SparCraft@@AAEXAAV?$vector@V?$basic_string@DU?$char_traits@D@std@@V?$allocator@D@2@@std@@V?$allocator@V?$basic_string@DU?$char_traits@D@std@@V?$allocator@D@2@@std@@@2@@std@@AAV?$vector@HV?$allocator@H@std@@@4@HHHHABH2@Z 00407360 f   SearchExperiment.obj
 0001:00006650       ?getExpDescription@SearchExperiment@SparCraft@@AAE?AV?$vector@V?$vector@V?$basic_string@DU?$char_traits@D@std@@V?$allocator@D@2@@std@@V?$allocator@V?$basic_string@DU?$char_traits@D@std@@V?$allocator@D@2@@std@@@2@@std@@V?$allocator@V?$vector@V?$basic_string@DU?$char_traits@D@std@@V?$allocator@D@2@@std@@V?$allocator@V?$basic_string@DU?$char_traits@D@std@@V?$allocator@D@2@@std@@@2@@std@@@2@@std@@ABI00@Z 00407650 f   SearchExperiment.obj
 0001:000074d0       ?getBaseFilename@SearchExperiment@SparCraft@@AAE?AV?$basic_string@DU?$char_traits@D@std@@V?$allocator@D@2@@std@@ABV34@@Z 004084d0 f   SearchExperiment.obj
 0001:00007560       ?runExperiment@SearchExperiment@SparCraft@@QAEXXZ 00408560 f   SearchExperiment.obj
 0001:000085f0       ??1Game@SparCraft@@QAE@XZ  004095f0 f i SearchExperiment.obj
 0001:00008660       ?printStateUnits@SearchExperiment@SparCraft@@AAEXAAV?$basic_ofstream@DU?$char_traits@D@std@@@std@@AAVGameState@2@@Z 00409660 f   SearchExperiment.obj
 0001:00008960       ??0?$basic_string@DU?$char_traits@D@std@@V?$allocator@D@2@@std@@QAE@ABV01@@Z 00409960 f i SearchExperiment.obj
 0001:00008990       ??0?$basic_string@DU?$char_traits@D@std@@V?$allocator@D@2@@std@@QAE@$$QAV01@@Z 00409990 f i SearchExperiment.obj
 0001:00008a00       ?substr@?$basic_string@DU?$char_traits@D@std@@V?$allocator@D@2@@std@@QBE?AV12@II@Z 00409a00 f i SearchExperiment.obj
 0001:00008a40       ?push_back@?$vector@V?$basic_string@DU?$char_traits@D@std@@V?$allocator@D@2@@std@@V?$allocator@V?$basic_string@DU?$char_traits@D@std@@V?$allocator@D@2@@std@@@2@@std@@QAEX$$QAV?$basic_string@DU?$char_traits@D@std@@V?$allocator@D@2@@2@@Z 00409a40 f i SearchExperiment.obj
 0001:00008ac0       ?push_back@?$vector@V?$basic_string@DU?$char_traits@D@std@@V?$allocator@D@2@@std@@V?$allocator@V?$basic_string@DU?$char_traits@D@std@@V?$allocator@D@2@@std@@@2@@std@@QAEXABV?$basic_string@DU?$char_traits@D@std@@V?$allocator@D@2@@2@@Z 00409ac0 f i SearchExperiment.obj
 0001:00008b90       ?getID@?$EnumData@VPlayerModels@SparCraft@@@SparCraft@@SA?BEABV?$basic_string@DU?$char_traits@D@std@@V?$allocator@D@2@@std@@@Z 00409b90 f i SearchExperiment.obj
 0001:00008c50       ?getName@?$EnumData@VPlayerModels@SparCraft@@@SparCraft@@SAABV?$basic_string@DU?$char_traits@D@std@@V?$allocator@D@2@@std@@ABE@Z 00409c50 f i SearchExperiment.obj
 0001:00008d70       ?getID@?$EnumData@VEvaluationMethods@SparCraft@@@SparCraft@@SA?BEABV?$basic_string@DU?$char_traits@D@std@@V?$allocator@D@2@@std@@@Z 00409d70 f i SearchExperiment.obj
 0001:00008e30       ?getID@?$EnumData@VMoveOrderMethod@SparCraft@@@SparCraft@@SA?BEABV?$basic_string@DU?$char_traits@D@std@@V?$allocator@D@2@@std@@@Z 00409e30 f i SearchExperiment.obj
 0001:00008ef0       ?getID@?$EnumData@VPlayerToMove@SparCraft@@@SparCraft@@SA?BEABV?$basic_string@DU?$char_traits@D@std@@V?$allocator@D@2@@std@@@Z 00409ef0 f i SearchExperiment.obj
 0001:00008fb0       ??0?$basic_stringstream@DU?$char_traits@D@std@@V?$allocator@D@2@@std@@QAE@H@Z 00409fb0 f i SearchExperiment.obj
 0001:00009070       ?str@?$basic_stringstream@DU?$char_traits@D@std@@V?$allocator@D@2@@std@@QBE?AV?$basic_string@DU?$char_traits@D@std@@V?$allocator@D@2@@2@XZ 0040a070 f i SearchExperiment.obj
 0001:000090a0       ?overflow@?$basic_stringbuf@DU?$char_traits@D@std@@V?$allocator@D@2@@std@@MAEHH@Z 0040a0a0 f i SearchExperiment.obj
 0001:00009260       ?pbackfail@?$basic_stringbuf@DU?$char_traits@D@std@@V?$allocator@D@2@@std@@MAEHH@Z 0040a260 f i SearchExperiment.obj
 0001:000092c0       ?underflow@?$basic_stringbuf@DU?$char_traits@D@std@@V?$allocator@D@2@@std@@MAEHXZ 0040a2c0 f i SearchExperiment.obj
 0001:00009320       ?seekoff@?$basic_stringbuf@DU?$char_traits@D@std@@V?$allocator@D@2@@std@@MAE?AV?$fpos@H@2@_JHH@Z 0040a320 f i SearchExperiment.obj
 0001:00009510       ?seekpos@?$basic_stringbuf@DU?$char_traits@D@std@@V?$allocator@D@2@@std@@MAE?AV?$fpos@H@2@V32@H@Z 0040a510 f i SearchExperiment.obj
 0001:00009640       ?seed@?$mersenne_twister_engine@I$0CA@$0CHA@$0BIN@$0BP@$0JJAILANP@$0L@$0PPPPPPPP@$06$0JNCMFGIA@$0P@$0OPMGAAAA@$0BC@$0GMAHIJGF@@random@boost@@QAEXABI@Z 0040a640 f i SearchExperiment.obj
 0001:00009690       ??4?$vector@V?$vector@_NV?$allocator@_N@std@@@std@@V?$allocator@V?$vector@_NV?$allocator@_N@std@@@std@@@2@@std@@QAEAAV01@$$QAV01@@Z 0040a690 f i SearchExperiment.obj
 0001:00009700       ?_Tidy@?$vector@V?$vector@_NV?$allocator@_N@std@@@std@@V?$allocator@V?$vector@_NV?$allocator@_N@std@@@std@@@2@@std@@IAEXXZ 0040a700 f i SearchExperiment.obj
 0001:00009700       ??1?$vector@V?$vector@_NV?$allocator@_N@std@@@std@@V?$allocator@V?$vector@_NV?$allocator@_N@std@@@std@@@2@@std@@QAE@XZ 0040a700 f i SearchExperiment.obj
 0001:00009740       ??1?$vector@_NV?$allocator@_N@std@@@std@@QAE@XZ 0040a740 f i SearchExperiment.obj
 0001:00009770       ??0?$basic_ofstream@DU?$char_traits@D@std@@@std@@QAE@PBDHH@Z 0040a770 f i SearchExperiment.obj
 0001:00009870       ?close@?$basic_ofstream@DU?$char_traits@D@std@@@std@@QAEXXZ 0040a870 f i SearchExperiment.obj
 0001:000098f0       ??1?$basic_filebuf@DU?$char_traits@D@std@@@std@@UAE@XZ 0040a8f0 f i SearchExperiment.obj
 0001:00009970       ?_Lock@?$basic_filebuf@DU?$char_traits@D@std@@@std@@UAEXXZ 0040a970 f i SearchExperiment.obj
 0001:00009980       ?_Unlock@?$basic_filebuf@DU?$char_traits@D@std@@@std@@UAEXXZ 0040a980 f i SearchExperiment.obj
 0001:00009990       ?overflow@?$basic_filebuf@DU?$char_traits@D@std@@@std@@MAEHH@Z 0040a990 f i SearchExperiment.obj
 0001:00009b80       ?pbackfail@?$basic_filebuf@DU?$char_traits@D@std@@@std@@MAEHH@Z 0040ab80 f i SearchExperiment.obj
 0001:00009c10       ?underflow@?$basic_filebuf@DU?$char_traits@D@std@@@std@@MAEHXZ 0040ac10 f i SearchExperiment.obj
 0001:00009c50       ?uflow@?$basic_filebuf@DU?$char_traits@D@std@@@std@@MAEHXZ 0040ac50 f i SearchExperiment.obj
 0001:00009e70       ?seekoff@?$basic_filebuf@DU?$char_traits@D@std@@@std@@MAE?AV?$fpos@H@2@_JHH@Z 0040ae70 f i SearchExperiment.obj
 0001:00009f80       ?seekpos@?$basic_filebuf@DU?$char_traits@D@std@@@std@@MAE?AV?$fpos@H@2@V32@H@Z 0040af80 f i SearchExperiment.obj
 0001:0000a070       ?setbuf@?$basic_filebuf@DU?$char_traits@D@std@@@std@@MAEPAV?$basic_streambuf@DU?$char_traits@D@std@@@2@PAD_J@Z 0040b070 f i SearchExperiment.obj
 0001:0000a100       ?sync@?$basic_filebuf@DU?$char_traits@D@std@@@std@@MAEHXZ 0040b100 f i SearchExperiment.obj
 0001:0000a130       ?imbue@?$basic_filebuf@DU?$char_traits@D@std@@@std@@MAEXABVlocale@2@@Z 0040b130 f i SearchExperiment.obj
 0001:0000a170       ??0?$basic_ifstream@DU?$char_traits@D@std@@@std@@QAE@PBDHH@Z 0040b170 f i SearchExperiment.obj
 0001:0000a280       ?close@?$basic_ifstream@DU?$char_traits@D@std@@@std@@QAEXXZ 0040b280 f i SearchExperiment.obj
 0001:0000a300       ??0?$Array2D@VUnit@SparCraft@@$01$0DC@@SparCraft@@QAE@ABV01@@Z 0040b300 f i SearchExperiment.obj
 0001:0000a350       ??1?$vector@V?$vector@V?$basic_string@DU?$char_traits@D@std@@V?$allocator@D@2@@std@@V?$allocator@V?$basic_string@DU?$char_traits@D@std@@V?$allocator@D@2@@std@@@2@@std@@V?$allocator@V?$vector@V?$basic_string@DU?$char_traits@D@std@@V?$allocator@D@2@@std@@V?$allocator@V?$basic_string@DU?$char_traits@D@std@@V?$allocator@D@2@@std@@@2@@std@@@2@@std@@QAE@XZ 0040b350 f i SearchExperiment.obj
 0001:0000a350       ?_Tidy@?$vector@V?$vector@V?$basic_string@DU?$char_traits@D@std@@V?$allocator@D@2@@std@@V?$allocator@V?$basic_string@DU?$char_traits@D@std@@V?$allocator@D@2@@std@@@2@@std@@V?$allocator@V?$vector@V?$basic_string@DU?$char_traits@D@std@@V?$allocator@D@2@@std@@V?$allocator@V?$basic_string@DU?$char_traits@D@std@@V?$allocator@D@2@@std@@@2@@std@@@2@@std@@IAEXXZ 0040b350 f i SearchExperiment.obj
 0001:0000a390       ?push_back@?$vector@EV?$allocator@E@std@@@std@@QAEXABE@Z 0040b390 f i SearchExperiment.obj
 0001:0000a3f0       ?push_back@?$vector@V?$shared_ptr@VPlayer@SparCraft@@@boost@@V?$allocator@V?$shared_ptr@VPlayer@SparCraft@@@boost@@@std@@@std@@QAEX$$QAV?$shared_ptr@VPlayer@SparCraft@@@boost@@@Z 0040b3f0 f i SearchExperiment.obj
 0001:0000a490       ?_Tidy@?$vector@V?$shared_ptr@VPlayer@SparCraft@@@boost@@V?$allocator@V?$shared_ptr@VPlayer@SparCraft@@@boost@@@std@@@std@@IAEXXZ 0040b490 f i SearchExperiment.obj
 0001:0000a490       ??1?$vector@V?$shared_ptr@VPlayer@SparCraft@@@boost@@V?$allocator@V?$shared_ptr@VPlayer@SparCraft@@@boost@@@std@@@std@@QAE@XZ 0040b490 f i SearchExperiment.obj
 0001:0000a4d0       ?push_back@?$vector@V?$shared_ptr@VPlayer@SparCraft@@@boost@@V?$allocator@V?$shared_ptr@VPlayer@SparCraft@@@boost@@@std@@@std@@QAEXABV?$shared_ptr@VPlayer@SparCraft@@@boost@@@Z 0040b4d0 f i SearchExperiment.obj
 0001:0000a550       ?push_back@?$vector@VGameState@SparCraft@@V?$allocator@VGameState@SparCraft@@@std@@@std@@QAEXABVGameState@SparCraft@@@Z 0040b550 f i SearchExperiment.obj
 0001:0000a550       ?push_back@?$vector@VGameState@SparCraft@@V?$allocator@VGameState@SparCraft@@@std@@@std@@QAEX$$QAVGameState@SparCraft@@@Z 0040b550 f i SearchExperiment.obj
 0001:0000a5d0       ?push_back@?$vector@HV?$allocator@H@std@@@std@@QAEXABH@Z 0040b5d0 f i SearchExperiment.obj
 0001:0000a630       ??4?$vector@V?$vector@V?$vector@HV?$allocator@H@std@@@std@@V?$allocator@V?$vector@HV?$allocator@H@std@@@std@@@2@@std@@V?$allocator@V?$vector@V?$vector@HV?$allocator@H@std@@@std@@V?$allocator@V?$vector@HV?$allocator@H@std@@@std@@@2@@std@@@2@@std@@QAEAAV01@$$QAV01@@Z 0040b630 f i SearchExperiment.obj
 0001:0000a630       ??4?$vector@V?$vector@V?$vector@NV?$allocator@N@std@@@std@@V?$allocator@V?$vector@NV?$allocator@N@std@@@std@@@2@@std@@V?$allocator@V?$vector@V?$vector@NV?$allocator@N@std@@@std@@V?$allocator@V?$vector@NV?$allocator@N@std@@@std@@@2@@std@@@2@@std@@QAEAAV01@$$QAV01@@Z 0040b630 f i SearchExperiment.obj
 0001:0000a6a0       ?_Tidy@?$vector@V?$vector@V?$vector@NV?$allocator@N@std@@@std@@V?$allocator@V?$vector@NV?$allocator@N@std@@@std@@@2@@std@@V?$allocator@V?$vector@V?$vector@NV?$allocator@N@std@@@std@@V?$allocator@V?$vector@NV?$allocator@N@std@@@std@@@2@@std@@@2@@std@@IAEXXZ 0040b6a0 f i SearchExperiment.obj
 0001:0000a6a0       ??1?$vector@V?$vector@V?$vector@HV?$allocator@H@std@@@std@@V?$allocator@V?$vector@HV?$allocator@H@std@@@std@@@2@@std@@V?$allocator@V?$vector@V?$vector@HV?$allocator@H@std@@@std@@V?$allocator@V?$vector@HV?$allocator@H@std@@@std@@@2@@std@@@2@@std@@QAE@XZ 0040b6a0 f i SearchExperiment.obj
 0001:0000a6a0       ?_Tidy@?$vector@V?$vector@V?$vector@HV?$allocator@H@std@@@std@@V?$allocator@V?$vector@HV?$allocator@H@std@@@std@@@2@@std@@V?$allocator@V?$vector@V?$vector@HV?$allocator@H@std@@@std@@V?$allocator@V?$vector@HV?$allocator@H@std@@@std@@@2@@std@@@2@@std@@IAEXXZ 0040b6a0 f i SearchExperiment.obj
 0001:0000a6a0       ??1?$vector@V?$vector@V?$vector@NV?$allocator@N@std@@@std@@V?$allocator@V?$vector@NV?$allocator@N@std@@@std@@@2@@std@@V?$allocator@V?$vector@V?$vector@NV?$allocator@N@std@@@std@@V?$allocator@V?$vector@NV?$allocator@N@std@@@std@@@2@@std@@@2@@std@@QAE@XZ 0040b6a0 f i SearchExperiment.obj
 0001:0000a6e0       ??4?$vector@V?$vector@HV?$allocator@H@std@@@std@@V?$allocator@V?$vector@HV?$allocator@H@std@@@std@@@2@@std@@QAEAAV01@$$QAV01@@Z 0040b6e0 f i SearchExperiment.obj
 0001:0000a750       ??1?$vector@V?$vector@NV?$allocator@N@std@@@std@@V?$allocator@V?$vector@NV?$allocator@N@std@@@std@@@2@@std@@QAE@XZ 0040b750 f i SearchExperiment.obj
 0001:0000a750       ?_Tidy@?$vector@V?$vector@HV?$allocator@H@std@@@std@@V?$allocator@V?$vector@HV?$allocator@H@std@@@std@@@2@@std@@IAEXXZ 0040b750 f i SearchExperiment.obj
 0001:0000a750       ?_Tidy@?$vector@V?$vector@NV?$allocator@N@std@@@std@@V?$allocator@V?$vector@NV?$allocator@N@std@@@std@@@2@@std@@IAEXXZ 0040b750 f i SearchExperiment.obj
 0001:0000a750       ??1?$vector@V?$vector@HV?$allocator@H@std@@@std@@V?$allocator@V?$vector@HV?$allocator@H@std@@@std@@@2@@std@@QAE@XZ 0040b750 f i SearchExperiment.obj
 0001:0000a790       ??0?$basic_istringstream@DU?$char_traits@D@std@@V?$allocator@D@2@@std@@QAE@ABV?$basic_string@DU?$char_traits@D@std@@V?$allocator@D@2@@1@H@Z 0040b790 f i SearchExperiment.obj
 0001:0000a840       ??_E?$basic_stringstream@DU?$char_traits@D@std@@V?$allocator@D@2@@std@@UAEPAXI@Z 0040b840 f i * CIL library *:* CIL module *
 0001:0000a840       ??_G?$basic_stringstream@DU?$char_traits@D@std@@V?$allocator@D@2@@std@@UAEPAXI@Z 0040b840 f i SearchExperiment.obj
 0001:0000a8b0       ??_E?$basic_stringbuf@DU?$char_traits@D@std@@V?$allocator@D@2@@std@@UAEPAXI@Z 0040b8b0 f i * CIL library *:* CIL module *
 0001:0000a8b0       ??_G?$basic_stringbuf@DU?$char_traits@D@std@@V?$allocator@D@2@@std@@UAEPAXI@Z 0040b8b0 f i SearchExperiment.obj
 0001:0000a8e0       ??_G?$basic_ofstream@DU?$char_traits@D@std@@@std@@UAEPAXI@Z 0040b8e0 f i SearchExperiment.obj
 0001:0000a8e0       ??_E?$basic_ofstream@DU?$char_traits@D@std@@@std@@UAEPAXI@Z 0040b8e0 f i * CIL library *:* CIL module *
 0001:0000a930       ??_E?$basic_filebuf@DU?$char_traits@D@std@@@std@@UAEPAXI@Z 0040b930 f i * CIL library *:* CIL module *
 0001:0000a930       ??_G?$basic_filebuf@DU?$char_traits@D@std@@@std@@UAEPAXI@Z 0040b930 f i SearchExperiment.obj
 0001:0000a950       ??_E?$basic_ifstream@DU?$char_traits@D@std@@@std@@UAEPAXI@Z 0040b950 f i * CIL library *:* CIL module *
 0001:0000a950       ??_G?$basic_ifstream@DU?$char_traits@D@std@@@std@@UAEPAXI@Z 0040b950 f i SearchExperiment.obj
 0001:0000a9a0       ??_E?$basic_istringstream@DU?$char_traits@D@std@@V?$allocator@D@2@@std@@UAEPAXI@Z 0040b9a0 f i * CIL library *:* CIL module *
 0001:0000a9a0       ??_G?$basic_istringstream@DU?$char_traits@D@std@@V?$allocator@D@2@@std@@UAEPAXI@Z 0040b9a0 f i SearchExperiment.obj
 0001:0000aa10       ??0?$Array@VUnit@SparCraft@@$0DC@@SparCraft@@QAE@ABV01@@Z 0040ba10 f i SearchExperiment.obj
 0001:0000aac0       ??0?$basic_string@DU?$char_traits@D@std@@V?$allocator@D@2@@std@@QAE@ID@Z 0040bac0 f i SearchExperiment.obj
 0001:0000ab20       ?_Assign_rv@?$basic_string@DU?$char_traits@D@std@@V?$allocator@D@2@@std@@QAEX$$QAV12@@Z 0040bb20 f i SearchExperiment.obj
 0001:0000ab80       ?append@?$basic_string@DU?$char_traits@D@std@@V?$allocator@D@2@@std@@QAEAAV12@ID@Z 0040bb80 f i SearchExperiment.obj
 0001:0000ac30       ?_Reserve@?$vector@V?$basic_string@DU?$char_traits@D@std@@V?$allocator@D@2@@std@@V?$allocator@V?$basic_string@DU?$char_traits@D@std@@V?$allocator@D@2@@std@@@2@@std@@IAEXI@Z 0040bc30 f i SearchExperiment.obj
 0001:0000acd0       ?find@?$_Tree@V?$_Tmap_traits@V?$basic_string@DU?$char_traits@D@std@@V?$allocator@D@2@@std@@HU?$less@V?$basic_string@DU?$char_traits@D@std@@V?$allocator@D@2@@std@@@2@V?$allocator@U?$pair@$$CBV?$basic_string@DU?$char_traits@D@std@@V?$allocator@D@2@@std@@H@std@@@2@$0A@@std@@@std@@QAE?AV?$_Tree_iterator@V?$_Tree_val@U?$_Tree_simple_types@U?$pair@$$CBV?$basic_string@DU?$char_traits@D@std@@V?$allocator@D@2@@std@@H@std@@@std@@@std@@@2@ABV?$basic_string@DU?$char_traits@D@std@@V?$allocator@D@2@@2@@Z 0040bcd0 f i SearchExperiment.obj
 0001:0000ad60       ??0?$basic_stringbuf@DU?$char_traits@D@std@@V?$allocator@D@2@@std@@QAE@ABV?$basic_string@DU?$char_traits@D@std@@V?$allocator@D@2@@1@H@Z 0040bd60 f i SearchExperiment.obj
 0001:0000ae00       ?str@?$basic_stringbuf@DU?$char_traits@D@std@@V?$allocator@D@2@@std@@QBE?AV?$basic_string@DU?$char_traits@D@std@@V?$allocator@D@2@@2@XZ 0040be00 f i SearchExperiment.obj
 0001:0000aed0       ?_Tidy@?$basic_stringbuf@DU?$char_traits@D@std@@V?$allocator@D@2@@std@@IAEXXZ 0040bed0 f i SearchExperiment.obj
 0001:0000af30       ?_Construct_n@?$vector@V?$vector@_NV?$allocator@_N@std@@@std@@V?$allocator@V?$vector@_NV?$allocator@_N@std@@@std@@@2@@std@@QAEXIPBV?$vector@_NV?$allocator@_N@std@@@2@@Z 0040bf30 f i SearchExperiment.obj
 0001:0000afc0       ?_Trim@?$vector@_NV?$allocator@_N@std@@@std@@QAEXI@Z 0040bfc0 f i SearchExperiment.obj
 0001:0000b020       ?open@?$basic_filebuf@DU?$char_traits@D@std@@@std@@QAEPAV12@PBDHH@Z 0040c020 f i SearchExperiment.obj
 0001:0000b130       ?_Endwrite@?$basic_filebuf@DU?$char_traits@D@std@@@std@@IAE_NXZ 0040c130 f i SearchExperiment.obj
 0001:0000b290       ?_Reset_back@?$basic_filebuf@DU?$char_traits@D@std@@@std@@AAEXXZ 0040c290 f i SearchExperiment.obj
 0001:0000b2c0       ?_Set_back@?$basic_filebuf@DU?$char_traits@D@std@@@std@@AAEXXZ 0040c2c0 f i SearchExperiment.obj
 0001:0000b300       ?_Construct_n@?$vector@V?$vector@V?$basic_string@DU?$char_traits@D@std@@V?$allocator@D@2@@std@@V?$allocator@V?$basic_string@DU?$char_traits@D@std@@V?$allocator@D@2@@std@@@2@@std@@V?$allocator@V?$vector@V?$basic_string@DU?$char_traits@D@std@@V?$allocator@D@2@@std@@V?$allocator@V?$basic_string@DU?$char_traits@D@std@@V?$allocator@D@2@@std@@@2@@std@@@2@@std@@QAEXIPBV?$vector@V?$basic_string@DU?$char_traits@D@std@@V?$allocator@D@2@@std@@V?$allocator@V?$basic_string@DU?$char_traits@D@std@@V?$allocator@D@2@@std@@@2@@2@@Z 0040c300 f i SearchExperiment.obj
 0001:0000b390       ?_Reserve@?$vector@EV?$allocator@E@std@@@std@@IAEXI@Z 0040c390 f i SearchExperiment.obj
 0001:0000b400       ?_Reserve@?$vector@V?$shared_ptr@VPlayer@SparCraft@@@boost@@V?$allocator@V?$shared_ptr@VPlayer@SparCraft@@@boost@@@std@@@std@@IAEXI@Z 0040c400 f i SearchExperiment.obj
 0001:0000b470       ?_Reserve@?$vector@VGameState@SparCraft@@V?$allocator@VGameState@SparCraft@@@std@@@std@@IAEXI@Z 0040c470 f i SearchExperiment.obj
 0001:0000b510       ?_Construct_n@?$vector@HV?$allocator@H@std@@@std@@QAEXIPBH@Z 0040c510 f i SearchExperiment.obj
 0001:0000b510       ?_Construct_n@?$vector@IV?$allocator@_N@std@@@std@@QAEXIPBI@Z 0040c510 f i SearchExperiment.obj
 0001:0000b550       ?_Reserve@?$vector@HV?$allocator@H@std@@@std@@IAEXI@Z 0040c550 f i SearchExperiment.obj
 0001:0000b5c0       ?_Construct_n@?$vector@V?$vector@V?$vector@HV?$allocator@H@std@@@std@@V?$allocator@V?$vector@HV?$allocator@H@std@@@std@@@2@@std@@V?$allocator@V?$vector@V?$vector@HV?$allocator@H@std@@@std@@V?$allocator@V?$vector@HV?$allocator@H@std@@@std@@@2@@std@@@2@@std@@QAEXIPBV?$vector@V?$vector@HV?$allocator@H@std@@@std@@V?$allocator@V?$vector@HV?$allocator@H@std@@@std@@@2@@2@@Z 0040c5c0 f i SearchExperiment.obj
 0001:0000b650       ?_Construct_n@?$vector@V?$vector@V?$vector@NV?$allocator@N@std@@@std@@V?$allocator@V?$vector@NV?$allocator@N@std@@@std@@@2@@std@@V?$allocator@V?$vector@V?$vector@NV?$allocator@N@std@@@std@@V?$allocator@V?$vector@NV?$allocator@N@std@@@std@@@2@@std@@@2@@std@@QAEXIPBV?$vector@V?$vector@NV?$allocator@N@std@@@std@@V?$allocator@V?$vector@NV?$allocator@N@std@@@std@@@2@@2@@Z 0040c650 f i SearchExperiment.obj
 0001:0000b6e0       ?_Construct_n@?$vector@V?$vector@HV?$allocator@H@std@@@std@@V?$allocator@V?$vector@HV?$allocator@H@std@@@std@@@2@@std@@QAEXIPBV?$vector@HV?$allocator@H@std@@@2@@Z 0040c6e0 f i SearchExperiment.obj
 0001:0000b770       ?_Construct_n@?$vector@V?$vector@NV?$allocator@N@std@@@std@@V?$allocator@V?$vector@NV?$allocator@N@std@@@std@@@2@@std@@QAEXIPBV?$vector@NV?$allocator@N@std@@@2@@Z 0040c770 f i SearchExperiment.obj
 0001:0000b800       ?append@?$basic_string@DU?$char_traits@D@std@@V?$allocator@D@2@@std@@QAEAAV12@ABV12@II@Z 0040c800 f i SearchExperiment.obj
 0001:0000b8f0       ?append@?$basic_string@DU?$char_traits@D@std@@V?$allocator@D@2@@std@@QAEAAV12@PBDI@Z 0040c8f0 f i SearchExperiment.obj
 0001:0000ba10       ?_Chassign@?$basic_string@DU?$char_traits@D@std@@V?$allocator@D@2@@std@@QAEXIID@Z 0040ca10 f i SearchExperiment.obj
 0001:0000ba60       ?_Reallocate@?$vector@V?$basic_string@DU?$char_traits@D@std@@V?$allocator@D@2@@std@@V?$allocator@V?$basic_string@DU?$char_traits@D@std@@V?$allocator@D@2@@std@@@2@@std@@IAEXI@Z 0040ca60 f i SearchExperiment.obj
 0001:0000bb00       ??R?$less@V?$basic_string@DU?$char_traits@D@std@@V?$allocator@D@2@@std@@@std@@QBE_NABV?$basic_string@DU?$char_traits@D@std@@V?$allocator@D@2@@1@0@Z 0040cb00 f i SearchExperiment.obj
 0001:0000bb60       ?_Init@?$basic_stringbuf@DU?$char_traits@D@std@@V?$allocator@D@2@@std@@IAEXPBDIH@Z 0040cb60 f i SearchExperiment.obj
 0001:0000bc10       ?_Buy@?$vector@V?$vector@_NV?$allocator@_N@std@@@std@@V?$allocator@V?$vector@_NV?$allocator@_N@std@@@std@@@2@@std@@IAE_NI@Z 0040cc10 f i SearchExperiment.obj
 0001:0000bc80       ?erase@?$vector@IV?$allocator@_N@std@@@std@@QAE?AV?$_Vector_iterator@V?$_Vector_val@U?$_Simple_types@I@std@@@std@@@2@V?$_Vector_const_iterator@V?$_Vector_val@U?$_Simple_types@I@std@@@std@@@2@0@Z 0040cc80 f i SearchExperiment.obj
 0001:0000bce0       ?_Buy@?$vector@V?$vector@V?$basic_string@DU?$char_traits@D@std@@V?$allocator@D@2@@std@@V?$allocator@V?$basic_string@DU?$char_traits@D@std@@V?$allocator@D@2@@std@@@2@@std@@V?$allocator@V?$vector@V?$basic_string@DU?$char_traits@D@std@@V?$allocator@D@2@@std@@V?$allocator@V?$basic_string@DU?$char_traits@D@std@@V?$allocator@D@2@@std@@@2@@std@@@2@@std@@IAE_NI@Z 0040cce0 f i SearchExperiment.obj
 0001:0000bce0       ?_Buy@?$vector@V?$vector@V?$vector@HV?$allocator@H@std@@@std@@V?$allocator@V?$vector@HV?$allocator@H@std@@@std@@@2@@std@@V?$allocator@V?$vector@V?$vector@HV?$allocator@H@std@@@std@@V?$allocator@V?$vector@HV?$allocator@H@std@@@std@@@2@@std@@@2@@std@@IAE_NI@Z 0040cce0 f i SearchExperiment.obj
 0001:0000bce0       ?_Buy@?$vector@VUnitAction@SparCraft@@V?$allocator@VUnitAction@SparCraft@@@std@@@std@@IAE_NI@Z 0040cce0 f i SparCraft:Player_IUCT.obj
 0001:0000bce0       ?_Buy@?$vector@V?$vector@HV?$allocator@H@std@@@std@@V?$allocator@V?$vector@HV?$allocator@H@std@@@std@@@2@@std@@IAE_NI@Z 0040cce0 f i SearchExperiment.obj
 0001:0000bce0       ?_Buy@?$vector@V?$vector@V?$vector@NV?$allocator@N@std@@@std@@V?$allocator@V?$vector@NV?$allocator@N@std@@@std@@@2@@std@@V?$allocator@V?$vector@V?$vector@NV?$allocator@N@std@@@std@@V?$allocator@V?$vector@NV?$allocator@N@std@@@std@@@2@@std@@@2@@std@@IAE_NI@Z 0040cce0 f i SearchExperiment.obj
 0001:0000bce0       ?_Buy@?$vector@V?$vector@NV?$allocator@N@std@@@std@@V?$allocator@V?$vector@NV?$allocator@N@std@@@std@@@2@@std@@IAE_NI@Z 0040cce0 f i SearchExperiment.obj
 0001:0000bd50       ?_Reallocate@?$vector@EV?$allocator@E@std@@@std@@IAEXI@Z 0040cd50 f i SearchExperiment.obj
 0001:0000bdc0       ?_Reallocate@?$vector@V?$shared_ptr@VPlayer@SparCraft@@@boost@@V?$allocator@V?$shared_ptr@VPlayer@SparCraft@@@boost@@@std@@@std@@IAEXI@Z 0040cdc0 f i SearchExperiment.obj
 0001:0000beb0       ?_Reallocate@?$vector@VGameState@SparCraft@@V?$allocator@VGameState@SparCraft@@@std@@@std@@IAEXI@Z 0040ceb0 f i SearchExperiment.obj
 0001:0000bfb0       ?_Buy@?$vector@IV?$allocator@_N@std@@@std@@IAE_NI@Z 0040cfb0 f i SearchExperiment.obj
 0001:0000bfb0       ?_Buy@?$vector@HV?$allocator@H@std@@@std@@IAE_NI@Z 0040cfb0 f i SearchExperiment.obj
 0001:0000c020       ?_Reallocate@?$vector@HV?$allocator@H@std@@@std@@IAEXI@Z 0040d020 f i SearchExperiment.obj
 0001:0000c020       ?_Reallocate@?$vector@IV?$allocator@I@std@@@std@@IAEXI@Z 0040d020 f i SparCraft:Display.obj
 0001:0000c0a0       ?_Destroy@?$vector@V?$vector@HV?$allocator@H@std@@@std@@V?$allocator@V?$vector@HV?$allocator@H@std@@@std@@@2@@std@@IAEXPAV?$vector@HV?$allocator@H@std@@@2@0@Z 0040d0a0 f i SearchExperiment.obj
 0001:0000c0a0       ?_Destroy@?$vector@V?$vector@NV?$allocator@N@std@@@std@@V?$allocator@V?$vector@NV?$allocator@N@std@@@std@@@2@@std@@IAEXPAV?$vector@NV?$allocator@N@std@@@2@0@Z 0040d0a0 f i SearchExperiment.obj
 0001:0000c0f0       ?_Reallocate@?$vector@NV?$allocator@N@std@@@std@@IAEXI@Z 0040d0f0 f i SearchExperiment.obj
 0001:0000c170       ?_Lbound@?$_Tree@V?$_Tmap_traits@V?$basic_string@DU?$char_traits@D@std@@V?$allocator@D@2@@std@@HU?$less@V?$basic_string@DU?$char_traits@D@std@@V?$allocator@D@2@@std@@@2@V?$allocator@U?$pair@$$CBV?$basic_string@DU?$char_traits@D@std@@V?$allocator@D@2@@std@@H@std@@@2@$0A@@std@@@std@@IAEPAU?$_Tree_node@U?$pair@$$CBV?$basic_string@DU?$char_traits@D@std@@V?$allocator@D@2@@std@@H@std@@PAX@2@ABV?$basic_string@DU?$char_traits@D@std@@V?$allocator@D@2@@2@@Z 0040d170 f i SearchExperiment.obj
 0001:0000c250       ??$use_facet@V?$ctype@D@std@@@std@@YAABV?$ctype@D@0@ABVlocale@0@@Z 0040d250 f i SearchExperiment.obj
 0001:0000c350       ??$?6DU?$char_traits@D@std@@V?$allocator@D@1@@std@@YAAAV?$basic_ostream@DU?$char_traits@D@std@@@0@AAV10@ABV?$basic_string@DU?$char_traits@D@std@@V?$allocator@D@2@@0@@Z 0040d350 f i SearchExperiment.obj
 0001:0000c520       ??$?0VTranspositionTable@SparCraft@@@?$shared_ptr@VTranspositionTable@SparCraft@@@boost@@QAE@PAVTranspositionTable@SparCraft@@@Z 0040d520 f i SearchExperiment.obj
 0001:0000c5d0       ??$?HDU?$char_traits@D@std@@V?$allocator@D@1@@std@@YA?AV?$basic_string@DU?$char_traits@D@std@@V?$allocator@D@2@@0@PBD$$QAV10@@Z 0040d5d0 f i SearchExperiment.obj
 0001:0000c620       ??$?HDU?$char_traits@D@std@@V?$allocator@D@1@@std@@YA?AV?$basic_string@DU?$char_traits@D@std@@V?$allocator@D@2@@0@PBDABV10@@Z 0040d620 f i SearchExperiment.obj
 0001:0000c710       ??$?0VPlayer_AttackClosest@SparCraft@@@?$shared_ptr@VPlayer@SparCraft@@@boost@@QAE@PAVPlayer_AttackClosest@SparCraft@@@Z 0040d710 f i SearchExperiment.obj
 0001:0000c7c0       ??$?0VPlayer_AttackDPS@SparCraft@@@?$shared_ptr@VPlayer@SparCraft@@@boost@@QAE@PAVPlayer_AttackDPS@SparCraft@@@Z 0040d7c0 f i SearchExperiment.obj
 0001:0000c870       ??$?0VPlayer_AttackWeakest@SparCraft@@@?$shared_ptr@VPlayer@SparCraft@@@boost@@QAE@PAVPlayer_AttackWeakest@SparCraft@@@Z 0040d870 f i SearchExperiment.obj
 0001:0000c920       ??$?0VPlayer_Kiter@SparCraft@@@?$shared_ptr@VPlayer@SparCraft@@@boost@@QAE@PAVPlayer_Kiter@SparCraft@@@Z 0040d920 f i SearchExperiment.obj
 0001:0000c9d0       ??$?0VPlayer_KiterDPS@SparCraft@@@?$shared_ptr@VPlayer@SparCraft@@@boost@@QAE@PAVPlayer_KiterDPS@SparCraft@@@Z 0040d9d0 f i SearchExperiment.obj
 0001:0000ca80       ??$?0VPlayer_Kiter_NOKDPS@SparCraft@@@?$shared_ptr@VPlayer@SparCraft@@@boost@@QAE@PAVPlayer_Kiter_NOKDPS@SparCraft@@@Z 0040da80 f i SearchExperiment.obj
 0001:0000cb30       ??$?0VPlayer_Cluster@SparCraft@@@?$shared_ptr@VPlayer@SparCraft@@@boost@@QAE@PAVPlayer_Cluster@SparCraft@@@Z 0040db30 f i SearchExperiment.obj
 0001:0000cbe0       ??$?0VPlayer_NOKDPS@SparCraft@@@?$shared_ptr@VPlayer@SparCraft@@@boost@@QAE@PAVPlayer_NOKDPS@SparCraft@@@Z 0040dbe0 f i SearchExperiment.obj
 0001:0000cc90       ??$?0VPlayer_Random@SparCraft@@@?$shared_ptr@VPlayer@SparCraft@@@boost@@QAE@PAVPlayer_Random@SparCraft@@@Z 0040dc90 f i SearchExperiment.obj
 0001:0000cd40       ??$?0VPlayer_PortfolioGreedySearch@SparCraft@@@?$shared_ptr@VPlayer@SparCraft@@@boost@@QAE@PAVPlayer_PortfolioGreedySearch@SparCraft@@@Z 0040dd40 f i SearchExperiment.obj
 0001:0000cdf0       ??$?0VPlayer_AlphaBeta@SparCraft@@@?$shared_ptr@VPlayer@SparCraft@@@boost@@QAE@PAVPlayer_AlphaBeta@SparCraft@@@Z 0040ddf0 f i SearchExperiment.obj
 0001:0000cea0       ??$?0VPlayer_UCT@SparCraft@@@?$shared_ptr@VPlayer@SparCraft@@@boost@@QAE@PAVPlayer_UCT@SparCraft@@@Z 0040dea0 f i SearchExperiment.obj
 0001:0000cf50       ??$?0VPlayer_IUCT@SparCraft@@@?$shared_ptr@VPlayer@SparCraft@@@boost@@QAE@PAVPlayer_IUCT@SparCraft@@@Z 0040df50 f i SearchExperiment.obj
 0001:0000d000       ??$?HDU?$char_traits@D@std@@V?$allocator@D@1@@std@@YA?AV?$basic_string@DU?$char_traits@D@std@@V?$allocator@D@2@@0@$$QAV10@PBD@Z 0040e000 f i SearchExperiment.obj
 0001:0000d050       ??$?HDU?$char_traits@D@std@@V?$allocator@D@1@@std@@YA?AV?$basic_string@DU?$char_traits@D@std@@V?$allocator@D@2@@0@$$QAV10@0@Z 0040e050 f i SearchExperiment.obj
 0001:0000d0b0       ??$?HDU?$char_traits@D@std@@V?$allocator@D@1@@std@@YA?AV?$basic_string@DU?$char_traits@D@std@@V?$allocator@D@2@@0@$$QAV10@ABV10@@Z 0040e0b0 f i SearchExperiment.obj
 0001:0000d0e0       ??$use_facet@V?$codecvt@DDH@std@@@std@@YAABV?$codecvt@DDH@0@ABVlocale@0@@Z 0040e0e0 f i SearchExperiment.obj
 0001:0000d1e0       ?insert@?$basic_string@DU?$char_traits@D@std@@V?$allocator@D@2@@std@@QAEAAV12@IABV12@II@Z 0040e1e0 f i SearchExperiment.obj
 0001:0000d320       ?insert@?$basic_string@DU?$char_traits@D@std@@V?$allocator@D@2@@std@@QAEAAV12@IPBDI@Z 0040e320 f i SearchExperiment.obj
 0001:0000d450       ??$getline@DU?$char_traits@D@std@@V?$allocator@D@2@@std@@YAAAV?$basic_istream@DU?$char_traits@D@std@@@0@$$QAV10@AAV?$basic_string@DU?$char_traits@D@std@@V?$allocator@D@2@@0@D@Z 0040e450 f i SearchExperiment.obj
 0001:0000d5c0       ??$?5DU?$char_traits@D@std@@V?$allocator@D@1@@std@@YAAAV?$basic_istream@DU?$char_traits@D@std@@@0@$$QAV10@AAV?$basic_string@DU?$char_traits@D@std@@V?$allocator@D@2@@0@@Z 0040e5c0 f i SearchExperiment.obj
 0001:0000d780       ??$?6U?$char_traits@D@std@@@std@@YAAAV?$basic_ostream@DU?$char_traits@D@std@@@0@AAV10@D@Z 0040e780 f i SearchExperiment.obj
 0001:0000d950       ??$_Destroy_range@U?$_Wrap_alloc@V?$allocator@V?$vector@V?$basic_string@DU?$char_traits@D@std@@V?$allocator@D@2@@std@@V?$allocator@V?$basic_string@DU?$char_traits@D@std@@V?$allocator@D@2@@std@@@2@@std@@@std@@@std@@@std@@YAXPAV?$vector@V?$basic_string@DU?$char_traits@D@std@@V?$allocator@D@2@@std@@V?$allocator@V?$basic_string@DU?$char_traits@D@std@@V?$allocator@D@2@@std@@@2@@0@0AAU?$_Wrap_alloc@V?$allocator@V?$vector@V?$basic_string@DU?$char_traits@D@std@@V?$allocator@D@2@@std@@V?$allocator@V?$basic_string@DU?$char_traits@D@std@@V?$allocator@D@2@@std@@@2@@std@@@std@@@0@U_Nonscalar_ptr_iterator_tag@0@@Z 0040e950 f i SearchExperiment.obj
 0001:0000d9d0       ??$_Destroy_range@U?$_Wrap_alloc@V?$allocator@V?$vector@_NV?$allocator@_N@std@@@std@@@std@@@std@@@std@@YAXPAV?$vector@_NV?$allocator@_N@std@@@0@0AAU?$_Wrap_alloc@V?$allocator@V?$vector@_NV?$allocator@_N@std@@@std@@@std@@@0@U_Nonscalar_ptr_iterator_tag@0@@Z 0040e9d0 f i SearchExperiment.obj
 0001:0000da20       ??$_Uninit_fill_n@PAV?$vector@_NV?$allocator@_N@std@@@std@@IV12@V?$allocator@V?$vector@_NV?$allocator@_N@std@@@std@@@2@V12@@std@@YAXPAV?$vector@_NV?$allocator@_N@std@@@0@IPBV10@AAU?$_Wrap_alloc@V?$allocator@V?$vector@_NV?$allocator@_N@std@@@std@@@std@@@0@0U_Nonscalar_ptr_iterator_tag@0@@Z 0040ea20 f i SearchExperiment.obj
 0001:0000dac0       ??$_Uninit_fill_n@PAV?$vector@V?$basic_string@DU?$char_traits@D@std@@V?$allocator@D@2@@std@@V?$allocator@V?$basic_string@DU?$char_traits@D@std@@V?$allocator@D@2@@std@@@2@@std@@IV12@V?$allocator@V?$vector@V?$basic_string@DU?$char_traits@D@std@@V?$allocator@D@2@@std@@V?$allocator@V?$basic_string@DU?$char_traits@D@std@@V?$allocator@D@2@@std@@@2@@std@@@2@V12@@std@@YAXPAV?$vector@V?$basic_string@DU?$char_traits@D@std@@V?$allocator@D@2@@std@@V?$allocator@V?$basic_string@DU?$char_traits@D@std@@V?$allocator@D@2@@std@@@2@@0@IPBV10@AAU?$_Wrap_alloc@V?$allocator@V?$vector@V?$basic_string@DU?$char_traits@D@std@@V?$allocator@D@2@@std@@V?$allocator@V?$basic_string@DU?$char_traits@D@std@@V?$allocator@D@2@@std@@@2@@std@@@std@@@0@0U_Nonscalar_ptr_iterator_tag@0@@Z 0040eac0 f i SearchExperiment.obj
 0001:0000db60       ??$_Destroy_range@U?$_Wrap_alloc@V?$allocator@V?$shared_ptr@VPlayer@SparCraft@@@boost@@@std@@@std@@@std@@YAXPAV?$shared_ptr@VPlayer@SparCraft@@@boost@@0AAU?$_Wrap_alloc@V?$allocator@V?$shared_ptr@VPlayer@SparCraft@@@boost@@@std@@@0@U_Nonscalar_ptr_iterator_tag@0@@Z 0040eb60 f i SearchExperiment.obj
 0001:0000dbb0       ??$_Destroy_range@U?$_Wrap_alloc@V?$allocator@V?$vector@V?$vector@NV?$allocator@N@std@@@std@@V?$allocator@V?$vector@NV?$allocator@N@std@@@std@@@2@@std@@@std@@@std@@@std@@YAXPAV?$vector@V?$vector@NV?$allocator@N@std@@@std@@V?$allocator@V?$vector@NV?$allocator@N@std@@@std@@@2@@0@0AAU?$_Wrap_alloc@V?$allocator@V?$vector@V?$vector@NV?$allocator@N@std@@@std@@V?$allocator@V?$vector@NV?$allocator@N@std@@@std@@@2@@std@@@std@@@0@U_Nonscalar_ptr_iterator_tag@0@@Z 0040ebb0 f i SearchExperiment.obj
 0001:0000dbb0       ??$_Destroy_range@U?$_Wrap_alloc@V?$allocator@V?$vector@V?$vector@HV?$allocator@H@std@@@std@@V?$allocator@V?$vector@HV?$allocator@H@std@@@std@@@2@@std@@@std@@@std@@@std@@YAXPAV?$vector@V?$vector@HV?$allocator@H@std@@@std@@V?$allocator@V?$vector@HV?$allocator@H@std@@@std@@@2@@0@0AAU?$_Wrap_alloc@V?$allocator@V?$vector@V?$vector@HV?$allocator@H@std@@@std@@V?$allocator@V?$vector@HV?$allocator@H@std@@@std@@@2@@std@@@std@@@0@U_Nonscalar_ptr_iterator_tag@0@@Z 0040ebb0 f i SearchExperiment.obj
 0001:0000dc30       ??$_Uninit_fill_n@PAV?$vector@V?$vector@HV?$allocator@H@std@@@std@@V?$allocator@V?$vector@HV?$allocator@H@std@@@std@@@2@@std@@IV12@V?$allocator@V?$vector@V?$vector@HV?$allocator@H@std@@@std@@V?$allocator@V?$vector@HV?$allocator@H@std@@@std@@@2@@std@@@2@V12@@std@@YAXPAV?$vector@V?$vector@HV?$allocator@H@std@@@std@@V?$allocator@V?$vector@HV?$allocator@H@std@@@std@@@2@@0@IPBV10@AAU?$_Wrap_alloc@V?$allocator@V?$vector@V?$vector@HV?$allocator@H@std@@@std@@V?$allocator@V?$vector@HV?$allocator@H@std@@@std@@@2@@std@@@std@@@0@0U_Nonscalar_ptr_iterator_tag@0@@Z 0040ec30 f i SearchExperiment.obj
 0001:0000dcd0       ??$_Uninit_fill_n@PAV?$vector@V?$vector@NV?$allocator@N@std@@@std@@V?$allocator@V?$vector@NV?$allocator@N@std@@@std@@@2@@std@@IV12@V?$allocator@V?$vector@V?$vector@NV?$allocator@N@std@@@std@@V?$allocator@V?$vector@NV?$allocator@N@std@@@std@@@2@@std@@@2@V12@@std@@YAXPAV?$vector@V?$vector@NV?$allocator@N@std@@@std@@V?$allocator@V?$vector@NV?$allocator@N@std@@@std@@@2@@0@IPBV10@AAU?$_Wrap_alloc@V?$allocator@V?$vector@V?$vector@NV?$allocator@N@std@@@std@@V?$allocator@V?$vector@NV?$allocator@N@std@@@std@@@2@@std@@@std@@@0@0U_Nonscalar_ptr_iterator_tag@0@@Z 0040ecd0 f i SearchExperiment.obj
 0001:0000dd70       ??$_Uninit_fill_n@PAV?$vector@HV?$allocator@H@std@@@std@@IV12@V?$allocator@V?$vector@HV?$allocator@H@std@@@std@@@2@V12@@std@@YAXPAV?$vector@HV?$allocator@H@std@@@0@IPBV10@AAU?$_Wrap_alloc@V?$allocator@V?$vector@HV?$allocator@H@std@@@std@@@std@@@0@0U_Nonscalar_ptr_iterator_tag@0@@Z 0040ed70 f i SearchExperiment.obj
 0001:0000de10       ??$_Uninit_fill_n@PAV?$vector@NV?$allocator@N@std@@@std@@IV12@V?$allocator@V?$vector@NV?$allocator@N@std@@@std@@@2@V12@@std@@YAXPAV?$vector@NV?$allocator@N@std@@@0@IPBV10@AAU?$_Wrap_alloc@V?$allocator@V?$vector@NV?$allocator@N@std@@@std@@@std@@@0@0U_Nonscalar_ptr_iterator_tag@0@@Z 0040ee10 f i SearchExperiment.obj
 0001:0000deb0       ??$generate_uniform_int@V?$mersenne_twister_engine@I$0CA@$0CHA@$0BIN@$0BP@$0JJAILANP@$0L@$0PPPPPPPP@$06$0JNCMFGIA@$0P@$0OPMGAAAA@$0BC@$0GMAHIJGF@@random@boost@@H@detail@random@boost@@YAHAAV?$mersenne_twister_engine@I$0CA@$0CHA@$0BIN@$0BP@$0JJAILANP@$0L@$0PPPPPPPP@$06$0JNCMFGIA@$0P@$0OPMGAAAA@$0BC@$0GMAHIJGF@@12@HHU?$bool_@$00@mpl@2@@Z 0040eeb0 f i SearchExperiment.obj
 0001:0000e000       ??$?0VTranspositionTable@SparCraft@@@shared_count@detail@boost@@QAE@PAVTranspositionTable@SparCraft@@@Z 0040f000 f i SearchExperiment.obj
 0001:0000e0a0       ??$?0VPlayer_AttackClosest@SparCraft@@@shared_count@detail@boost@@QAE@PAVPlayer_AttackClosest@SparCraft@@@Z 0040f0a0 f i SearchExperiment.obj
 0001:0000e140       ??$?0VPlayer_AttackDPS@SparCraft@@@shared_count@detail@boost@@QAE@PAVPlayer_AttackDPS@SparCraft@@@Z 0040f140 f i SearchExperiment.obj
 0001:0000e1e0       ??$?0VPlayer_AttackWeakest@SparCraft@@@shared_count@detail@boost@@QAE@PAVPlayer_AttackWeakest@SparCraft@@@Z 0040f1e0 f i SearchExperiment.obj
 0001:0000e280       ??$?0VPlayer_Kiter@SparCraft@@@shared_count@detail@boost@@QAE@PAVPlayer_Kiter@SparCraft@@@Z 0040f280 f i SearchExperiment.obj
 0001:0000e320       ??$?0VPlayer_KiterDPS@SparCraft@@@shared_count@detail@boost@@QAE@PAVPlayer_KiterDPS@SparCraft@@@Z 0040f320 f i SearchExperiment.obj
 0001:0000e3c0       ??$?0VPlayer_Kiter_NOKDPS@SparCraft@@@shared_count@detail@boost@@QAE@PAVPlayer_Kiter_NOKDPS@SparCraft@@@Z 0040f3c0 f i SearchExperiment.obj
 0001:0000e460       ??$?0VPlayer_Cluster@SparCraft@@@shared_count@detail@boost@@QAE@PAVPlayer_Cluster@SparCraft@@@Z 0040f460 f i SearchExperiment.obj
 0001:0000e500       ??$?0VPlayer_NOKDPS@SparCraft@@@shared_count@detail@boost@@QAE@PAVPlayer_NOKDPS@SparCraft@@@Z 0040f500 f i SearchExperiment.obj
 0001:0000e5a0       ??$?0VPlayer_Random@SparCraft@@@shared_count@detail@boost@@QAE@PAVPlayer_Random@SparCraft@@@Z 0040f5a0 f i SearchExperiment.obj
 0001:0000e640       ??$?0VPlayer_PortfolioGreedySearch@SparCraft@@@shared_count@detail@boost@@QAE@PAVPlayer_PortfolioGreedySearch@SparCraft@@@Z 0040f640 f i SearchExperiment.obj
 0001:0000e6e0       ??$?0VPlayer_AlphaBeta@SparCraft@@@shared_count@detail@boost@@QAE@PAVPlayer_AlphaBeta@SparCraft@@@Z 0040f6e0 f i SearchExperiment.obj
 0001:0000e780       ??$?0VPlayer_UCT@SparCraft@@@shared_count@detail@boost@@QAE@PAVPlayer_UCT@SparCraft@@@Z 0040f780 f i SearchExperiment.obj
 0001:0000e810       ??$?0VPlayer_IUCT@SparCraft@@@shared_count@detail@boost@@QAE@PAVPlayer_IUCT@SparCraft@@@Z 0040f810 f i SearchExperiment.obj
 0001:0000e8a0       ??$destroy@V?$vector@V?$basic_string@DU?$char_traits@D@std@@V?$allocator@D@2@@std@@V?$allocator@V?$basic_string@DU?$char_traits@D@std@@V?$allocator@D@2@@std@@@2@@std@@@?$_Wrap_alloc@V?$allocator@V?$vector@V?$basic_string@DU?$char_traits@D@std@@V?$allocator@D@2@@std@@V?$allocator@V?$basic_string@DU?$char_traits@D@std@@V?$allocator@D@2@@std@@@2@@std@@@std@@@std@@QAEXPAV?$vector@V?$basic_string@DU?$char_traits@D@std@@V?$allocator@D@2@@std@@V?$allocator@V?$basic_string@DU?$char_traits@D@std@@V?$allocator@D@2@@std@@@2@@1@@Z 0040f8a0 f i SearchExperiment.obj
 0001:0000e8e0       ??$_Uninit_move@PAV?$basic_string@DU?$char_traits@D@std@@V?$allocator@D@2@@std@@PAV12@V?$allocator@V?$basic_string@DU?$char_traits@D@std@@V?$allocator@D@2@@std@@@2@V12@@std@@YAPAV?$basic_string@DU?$char_traits@D@std@@V?$allocator@D@2@@0@PAV10@00AAU?$_Wrap_alloc@V?$allocator@V?$basic_string@DU?$char_traits@D@std@@V?$allocator@D@2@@std@@@std@@@0@0U_Nonscalar_ptr_iterator_tag@0@@Z 0040f8e0 f i SearchExperiment.obj
 0001:0000e970       ??$destroy@V?$vector@_NV?$allocator@_N@std@@@std@@@?$_Wrap_alloc@V?$allocator@V?$vector@_NV?$allocator@_N@std@@@std@@@std@@@std@@QAEXPAV?$vector@_NV?$allocator@_N@std@@@1@@Z 0040f970 f i SearchExperiment.obj
 0001:0000e9b0       ??$_Uninit_move@PAV?$shared_ptr@VPlayer@SparCraft@@@boost@@PAV12@V?$allocator@V?$shared_ptr@VPlayer@SparCraft@@@boost@@@std@@V12@@std@@YAPAV?$shared_ptr@VPlayer@SparCraft@@@boost@@PAV12@00AAU?$_Wrap_alloc@V?$allocator@V?$shared_ptr@VPlayer@SparCraft@@@boost@@@std@@@0@0U_Nonscalar_ptr_iterator_tag@0@@Z 0040f9b0 f i SearchExperiment.obj
 0001:0000ea00       ??$_Uninit_move@PAVGameState@SparCraft@@PAV12@V?$allocator@VGameState@SparCraft@@@std@@V12@@std@@YAPAVGameState@SparCraft@@PAV12@00AAU?$_Wrap_alloc@V?$allocator@VGameState@SparCraft@@@std@@@0@0U_Nonscalar_ptr_iterator_tag@0@@Z 0040fa00 f i SearchExperiment.obj
 0001:0000ea40       ??$destroy@V?$vector@V?$vector@HV?$allocator@H@std@@@std@@V?$allocator@V?$vector@HV?$allocator@H@std@@@std@@@2@@std@@@?$_Wrap_alloc@V?$allocator@V?$vector@V?$vector@HV?$allocator@H@std@@@std@@V?$allocator@V?$vector@HV?$allocator@H@std@@@std@@@2@@std@@@std@@@std@@QAEXPAV?$vector@V?$vector@HV?$allocator@H@std@@@std@@V?$allocator@V?$vector@HV?$allocator@H@std@@@std@@@2@@1@@Z 0040fa40 f i SearchExperiment.obj
 0001:0000ea40       ??$destroy@V?$vector@V?$vector@NV?$allocator@N@std@@@std@@V?$allocator@V?$vector@NV?$allocator@N@std@@@std@@@2@@std@@@?$_Wrap_alloc@V?$allocator@V?$vector@V?$vector@NV?$allocator@N@std@@@std@@V?$allocator@V?$vector@NV?$allocator@N@std@@@std@@@2@@std@@@std@@@std@@QAEXPAV?$vector@V?$vector@NV?$allocator@N@std@@@std@@V?$allocator@V?$vector@NV?$allocator@N@std@@@std@@@2@@1@@Z 0040fa40 f i SearchExperiment.obj
 0001:0000ea80       ??$destroy@V?$vector@HV?$allocator@H@std@@@std@@@?$_Wrap_alloc@V?$allocator@V?$vector@HV?$allocator@H@std@@@std@@@std@@@std@@QAEXPAV?$vector@HV?$allocator@H@std@@@1@@Z 0040fa80 f i SearchExperiment.obj
 0001:0000ea80       ??$destroy@V?$vector@NV?$allocator@N@std@@@std@@@?$_Wrap_alloc@V?$allocator@V?$vector@NV?$allocator@N@std@@@std@@@std@@@std@@QAEXPAV?$vector@NV?$allocator@N@std@@@1@@Z 0040fa80 f i SearchExperiment.obj
 0001:0000eab0       ?dispose@?$sp_counted_impl_p@VTranspositionTable@SparCraft@@@detail@boost@@UAEXXZ 0040fab0 f i SearchExperiment.obj
 0001:0000ead0       ?get_deleter@?$sp_counted_impl_p@VPlayer_UCT@SparCraft@@@detail@boost@@UAEPAXABVtype_info@@@Z 0040fad0 f i SearchExperiment.obj
 0001:0000ead0       ?get_deleter@?$sp_counted_impl_p@VPlayer_NOKDPS@SparCraft@@@detail@boost@@UAEPAXABVtype_info@@@Z 0040fad0 f i SearchExperiment.obj
 0001:0000ead0       ?get_deleter@?$sp_counted_impl_p@VTranspositionTable@SparCraft@@@detail@boost@@UAEPAXABVtype_info@@@Z 0040fad0 f i SearchExperiment.obj
 0001:0000ead0       ?get_deleter@?$sp_counted_impl_p@VPlayer_AttackClosest@SparCraft@@@detail@boost@@UAEPAXABVtype_info@@@Z 0040fad0 f i SearchExperiment.obj
 0001:0000ead0       ?get_deleter@?$sp_counted_impl_p@VPlayer_IUCT@SparCraft@@@detail@boost@@UAEPAXABVtype_info@@@Z 0040fad0 f i SearchExperiment.obj
 0001:0000ead0       ?get_deleter@?$sp_counted_impl_p@VPlayer_AttackWeakest@SparCraft@@@detail@boost@@UAEPAXABVtype_info@@@Z 0040fad0 f i SearchExperiment.obj
 0001:0000ead0       ?get_deleter@?$sp_counted_impl_p@VPlayer_PortfolioGreedySearch@SparCraft@@@detail@boost@@UAEPAXABVtype_info@@@Z 0040fad0 f i SearchExperiment.obj
 0001:0000ead0       ?get_deleter@?$sp_counted_impl_p@VPlayer_AttackDPS@SparCraft@@@detail@boost@@UAEPAXABVtype_info@@@Z 0040fad0 f i SearchExperiment.obj
 0001:0000ead0       ?get_deleter@?$sp_counted_impl_p@VPlayer_Random@SparCraft@@@detail@boost@@UAEPAXABVtype_info@@@Z 0040fad0 f i SearchExperiment.obj
 0001:0000ead0       ?get_deleter@?$sp_counted_impl_p@VPlayer_KiterDPS@SparCraft@@@detail@boost@@UAEPAXABVtype_info@@@Z 0040fad0 f i SearchExperiment.obj
 0001:0000ead0       ?get_deleter@?$sp_counted_impl_p@VPlayer_Cluster@SparCraft@@@detail@boost@@UAEPAXABVtype_info@@@Z 0040fad0 f i SearchExperiment.obj
 0001:0000ead0       ?get_deleter@?$sp_counted_impl_p@VPlayer_Kiter@SparCraft@@@detail@boost@@UAEPAXABVtype_info@@@Z 0040fad0 f i SearchExperiment.obj
 0001:0000ead0       ?get_deleter@?$sp_counted_impl_p@VPlayer_Kiter_NOKDPS@SparCraft@@@detail@boost@@UAEPAXABVtype_info@@@Z 0040fad0 f i SearchExperiment.obj
 0001:0000ead0       ?get_deleter@?$sp_counted_impl_p@VPlayer_AlphaBeta@SparCraft@@@detail@boost@@UAEPAXABVtype_info@@@Z 0040fad0 f i SearchExperiment.obj
 0001:0000eae0       ?get_untyped_deleter@?$sp_counted_impl_p@VPlayer_Kiter@SparCraft@@@detail@boost@@UAEPAXXZ 0040fae0 f i SearchExperiment.obj
 0001:0000eae0       ?get_untyped_deleter@?$sp_counted_impl_p@VPlayer_AttackDPS@SparCraft@@@detail@boost@@UAEPAXXZ 0040fae0 f i SearchExperiment.obj
 0001:0000eae0       ?get_untyped_deleter@?$sp_counted_impl_p@VPlayer_AttackWeakest@SparCraft@@@detail@boost@@UAEPAXXZ 0040fae0 f i SearchExperiment.obj
 0001:0000eae0       ?get_untyped_deleter@?$sp_counted_impl_p@VPlayer_AttackClosest@SparCraft@@@detail@boost@@UAEPAXXZ 0040fae0 f i SearchExperiment.obj
 0001:0000eae0       ?get_untyped_deleter@?$sp_counted_impl_p@VPlayer_NOKDPS@SparCraft@@@detail@boost@@UAEPAXXZ 0040fae0 f i SearchExperiment.obj
 0001:0000eae0       ?get_untyped_deleter@?$sp_counted_impl_p@VPlayer_IUCT@SparCraft@@@detail@boost@@UAEPAXXZ 0040fae0 f i SearchExperiment.obj
 0001:0000eae0       ?get_untyped_deleter@?$sp_counted_impl_p@VPlayer_PortfolioGreedySearch@SparCraft@@@detail@boost@@UAEPAXXZ 0040fae0 f i SearchExperiment.obj
 0001:0000eae0       ?get_untyped_deleter@?$sp_counted_impl_p@VPlayer_Cluster@SparCraft@@@detail@boost@@UAEPAXXZ 0040fae0 f i SearchExperiment.obj
 0001:0000eae0       ?get_untyped_deleter@?$sp_counted_impl_p@VPlayer_KiterDPS@SparCraft@@@detail@boost@@UAEPAXXZ 0040fae0 f i SearchExperiment.obj
 0001:0000eae0       ?get_untyped_deleter@?$sp_counted_impl_p@VPlayer_Kiter_NOKDPS@SparCraft@@@detail@boost@@UAEPAXXZ 0040fae0 f i SearchExperiment.obj
 0001:0000eae0       ?get_untyped_deleter@?$sp_counted_impl_p@VTranspositionTable@SparCraft@@@detail@boost@@UAEPAXXZ 0040fae0 f i SearchExperiment.obj
 0001:0000eae0       ?get_untyped_deleter@?$sp_counted_impl_p@VPlayer_Random@SparCraft@@@detail@boost@@UAEPAXXZ 0040fae0 f i SearchExperiment.obj
 0001:0000eae0       ?get_untyped_deleter@?$sp_counted_impl_p@VPlayer_AlphaBeta@SparCraft@@@detail@boost@@UAEPAXXZ 0040fae0 f i SearchExperiment.obj
 0001:0000eae0       ?get_untyped_deleter@?$sp_counted_impl_p@VPlayer_UCT@SparCraft@@@detail@boost@@UAEPAXXZ 0040fae0 f i SearchExperiment.obj
 0001:0000eaf0       ?dispose@?$sp_counted_impl_p@VPlayer_Kiter@SparCraft@@@detail@boost@@UAEXXZ 0040faf0 f i SearchExperiment.obj
 0001:0000eaf0       ?dispose@?$sp_counted_impl_p@VPlayer_PortfolioGreedySearch@SparCraft@@@detail@boost@@UAEXXZ 0040faf0 f i SearchExperiment.obj
 0001:0000eaf0       ?dispose@?$sp_counted_impl_p@VPlayer_Kiter_NOKDPS@SparCraft@@@detail@boost@@UAEXXZ 0040faf0 f i SearchExperiment.obj
 0001:0000eaf0       ?dispose@?$sp_counted_impl_p@VPlayer_Cluster@SparCraft@@@detail@boost@@UAEXXZ 0040faf0 f i SearchExperiment.obj
 0001:0000eaf0       ?dispose@?$sp_counted_impl_p@VPlayer_Random@SparCraft@@@detail@boost@@UAEXXZ 0040faf0 f i SearchExperiment.obj
 0001:0000eaf0       ?dispose@?$sp_counted_impl_p@VPlayer_AttackWeakest@SparCraft@@@detail@boost@@UAEXXZ 0040faf0 f i SearchExperiment.obj
 0001:0000eaf0       ?dispose@?$sp_counted_impl_p@VPlayer_NOKDPS@SparCraft@@@detail@boost@@UAEXXZ 0040faf0 f i SearchExperiment.obj
 0001:0000eaf0       ?dispose@?$sp_counted_impl_p@VPlayer_AttackDPS@SparCraft@@@detail@boost@@UAEXXZ 0040faf0 f i SearchExperiment.obj
 0001:0000eaf0       ?dispose@?$sp_counted_impl_p@VPlayer_AttackClosest@SparCraft@@@detail@boost@@UAEXXZ 0040faf0 f i SearchExperiment.obj
 0001:0000eaf0       ?dispose@?$sp_counted_impl_p@VPlayer_KiterDPS@SparCraft@@@detail@boost@@UAEXXZ 0040faf0 f i SearchExperiment.obj
 0001:0000eb00       ?dispose@?$sp_counted_impl_p@VPlayer_AlphaBeta@SparCraft@@@detail@boost@@UAEXXZ 0040fb00 f i SearchExperiment.obj
 0001:0000eb10       ?dispose@?$sp_counted_impl_p@VPlayer_UCT@SparCraft@@@detail@boost@@UAEXXZ 0040fb10 f i SearchExperiment.obj
 0001:0000eb10       ?dispose@?$sp_counted_impl_p@VPlayer_IUCT@SparCraft@@@detail@boost@@UAEXXZ 0040fb10 f i SearchExperiment.obj
 0001:0000eb40       ??R?$mersenne_twister_engine@I$0CA@$0CHA@$0BIN@$0BP@$0JJAILANP@$0L@$0PPPPPPPP@$06$0JNCMFGIA@$0P@$0OPMGAAAA@$0BC@$0GMAHIJGF@@random@boost@@QAEIXZ 0040fb40 f i SearchExperiment.obj
 0001:0000eb90       ??$generate_uniform_int@V?$mersenne_twister_engine@I$0CA@$0CHA@$0BIN@$0BP@$0JJAILANP@$0L@$0PPPPPPPP@$06$0JNCMFGIA@$0P@$0OPMGAAAA@$0BC@$0GMAHIJGF@@random@boost@@I@detail@random@boost@@YAIAAV?$mersenne_twister_engine@I$0CA@$0CHA@$0BIN@$0BP@$0JJAILANP@$0L@$0PPPPPPPP@$06$0JNCMFGIA@$0P@$0OPMGAAAA@$0BC@$0GMAHIJGF@@12@IIU?$bool_@$00@mpl@2@@Z 0040fb90 f i SearchExperiment.obj
 0001:0000ec90       ??$checked_delete@VPlayer_UCT@SparCraft@@@boost@@YAXPAVPlayer_UCT@SparCraft@@@Z 0040fc90 f i SearchExperiment.obj
 0001:0000ec90       ??$checked_delete@VPlayer_IUCT@SparCraft@@@boost@@YAXPAVPlayer_IUCT@SparCraft@@@Z 0040fc90 f i SearchExperiment.obj
 0001:0000ecc0       ??1UCTSearchResults@SparCraft@@QAE@XZ 0040fcc0 f i SearchExperiment.obj
 0001:0000ecc0       ??1IUCTSearchResults@SparCraft@@QAE@XZ 0040fcc0 f i SearchExperiment.obj
 0001:0000ed30       ??0?$vector@V?$basic_string@DU?$char_traits@D@std@@V?$allocator@D@2@@std@@V?$allocator@V?$basic_string@DU?$char_traits@D@std@@V?$allocator@D@2@@std@@@2@@std@@QAE@ABV01@@Z 0040fd30 f i SearchExperiment.obj
 0001:0000ede0       ?_Tidy@?$vector@VTTEntry@SparCraft@@V?$allocator@VTTEntry@SparCraft@@@std@@@std@@IAEXXZ 0040fde0 f i SearchExperiment.obj
 0001:0000ee30       ??0?$vector@IV?$allocator@_N@std@@@std@@QAE@ABV01@@Z 0040fe30 f i SearchExperiment.obj
 0001:0000ee30       ??0?$vector@HV?$allocator@H@std@@@std@@QAE@ABV01@@Z 0040fe30 f i SearchExperiment.obj
 0001:0000ee80       ??0?$vector@V?$vector@HV?$allocator@H@std@@@std@@V?$allocator@V?$vector@HV?$allocator@H@std@@@std@@@2@@std@@QAE@ABV01@@Z 0040fe80 f i SearchExperiment.obj
 0001:0000ef30       ??0?$vector@NV?$allocator@N@std@@@std@@QAE@ABV01@@Z 0040ff30 f i SearchExperiment.obj
 0001:0000ef80       ??0?$vector@V?$vector@NV?$allocator@N@std@@@std@@V?$allocator@V?$vector@NV?$allocator@N@std@@@std@@@2@@std@@QAE@ABV01@@Z 0040ff80 f i SearchExperiment.obj
 0001:0000f030       ?_Buy@?$vector@V?$basic_string@DU?$char_traits@D@std@@V?$allocator@D@2@@std@@V?$allocator@V?$basic_string@DU?$char_traits@D@std@@V?$allocator@D@2@@std@@@2@@std@@IAE_NI@Z 00410030 f i SearchExperiment.obj
 0001:0000f0a0       ?_Buy@?$vector@V?$shared_ptr@VPlayer@SparCraft@@@boost@@V?$allocator@V?$shared_ptr@VPlayer@SparCraft@@@boost@@@std@@@std@@IAE_NI@Z 004100a0 f i SparCraft:PortfolioGreedySearch.obj
 0001:0000f0a0       ?_Buy@?$vector@U?$pair@HH@std@@V?$allocator@U?$pair@HH@std@@@2@@std@@IAE_NI@Z 004100a0 f i SparCraft:AnimationFrameData.obj
 0001:0000f0a0       ?_Buy@?$vector@NV?$allocator@N@std@@@std@@IAE_NI@Z 004100a0 f i SearchExperiment.obj
 0001:0000f110       ?twist@?$mersenne_twister_engine@I$0CA@$0CHA@$0BIN@$0BP@$0JJAILANP@$0L@$0PPPPPPPP@$06$0JNCMFGIA@$0P@$0OPMGAAAA@$0BC@$0GMAHIJGF@@random@boost@@AAEXXZ 00410110 f i SearchExperiment.obj
 0001:0000f2b0       ??$_Uninit_copy@V?$_Vector_const_iterator@V?$_Vector_val@U?$_Simple_types@V?$basic_string@DU?$char_traits@D@std@@V?$allocator@D@2@@std@@@std@@@std@@@std@@PAV?$basic_string@DU?$char_traits@D@std@@V?$allocator@D@2@@2@V?$allocator@V?$basic_string@DU?$char_traits@D@std@@V?$allocator@D@2@@std@@@2@@std@@YAPAV?$basic_string@DU?$char_traits@D@std@@V?$allocator@D@2@@0@V?$_Vector_const_iterator@V?$_Vector_val@U?$_Simple_types@V?$basic_string@DU?$char_traits@D@std@@V?$allocator@D@2@@std@@@std@@@std@@@0@0PAV10@AAU?$_Wrap_alloc@V?$allocator@V?$basic_string@DU?$char_traits@D@std@@V?$allocator@D@2@@std@@@std@@@0@U_Nonscalar_ptr_iterator_tag@0@@Z 004102b0 f i SearchExperiment.obj
 0001:0000f370       ??$_Uninit_copy@V?$_Vector_const_iterator@V?$_Vector_val@U?$_Simple_types@I@std@@@std@@@std@@PAIV?$allocator@I@2@@std@@YAPAIV?$_Vector_const_iterator@V?$_Vector_val@U?$_Simple_types@I@std@@@std@@@0@0PAIAAU?$_Wrap_alloc@V?$allocator@I@std@@@0@U_Nonscalar_ptr_iterator_tag@0@@Z 00410370 f i SearchExperiment.obj
 0001:0000f370       ??$_Uninit_copy@V?$_Vector_const_iterator@V?$_Vector_val@U?$_Simple_types@H@std@@@std@@@std@@PAHV?$allocator@H@2@@std@@YAPAHV?$_Vector_const_iterator@V?$_Vector_val@U?$_Simple_types@H@std@@@std@@@0@0PAHAAU?$_Wrap_alloc@V?$allocator@H@std@@@0@U_Nonscalar_ptr_iterator_tag@0@@Z 00410370 f i SearchExperiment.obj
 0001:0000f3a0       ??$_Uninit_copy@V?$_Vector_const_iterator@V?$_Vector_val@U?$_Simple_types@V?$vector@HV?$allocator@H@std@@@std@@@std@@@std@@@std@@PAV?$vector@HV?$allocator@H@std@@@2@V?$allocator@V?$vector@HV?$allocator@H@std@@@std@@@2@@std@@YAPAV?$vector@HV?$allocator@H@std@@@0@V?$_Vector_const_iterator@V?$_Vector_val@U?$_Simple_types@V?$vector@HV?$allocator@H@std@@@std@@@std@@@std@@@0@0PAV10@AAU?$_Wrap_alloc@V?$allocator@V?$vector@HV?$allocator@H@std@@@std@@@std@@@0@U_Nonscalar_ptr_iterator_tag@0@@Z 004103a0 f i SearchExperiment.obj
 0001:0000f440       ??$_Uninit_copy@V?$_Vector_const_iterator@V?$_Vector_val@U?$_Simple_types@N@std@@@std@@@std@@PANV?$allocator@N@2@@std@@YAPANV?$_Vector_const_iterator@V?$_Vector_val@U?$_Simple_types@N@std@@@std@@@0@0PANAAU?$_Wrap_alloc@V?$allocator@N@std@@@0@U_Nonscalar_ptr_iterator_tag@0@@Z 00410440 f i SearchExperiment.obj
 0001:0000f470       ??$_Uninit_copy@V?$_Vector_const_iterator@V?$_Vector_val@U?$_Simple_types@V?$vector@NV?$allocator@N@std@@@std@@@std@@@std@@@std@@PAV?$vector@NV?$allocator@N@std@@@2@V?$allocator@V?$vector@NV?$allocator@N@std@@@std@@@2@@std@@YAPAV?$vector@NV?$allocator@N@std@@@0@V?$_Vector_const_iterator@V?$_Vector_val@U?$_Simple_types@V?$vector@NV?$allocator@N@std@@@std@@@std@@@std@@@0@0PAV10@AAU?$_Wrap_alloc@V?$allocator@V?$vector@NV?$allocator@N@std@@@std@@@std@@@0@U_Nonscalar_ptr_iterator_tag@0@@Z 00410470 f i SearchExperiment.obj
 0001:0000f510       ??1TTEntry@SparCraft@@QAE@XZ 00410510 f i SearchExperiment.obj
 0001:0000f530       ??1TTBestMove@SparCraft@@QAE@XZ 00410530 f i SearchExperiment.obj
 0001:0000f57f       ?_Add_vtordisp2@?$basic_ostream@DU?$char_traits@D@std@@@std@@$4PPPPPPPM@FI@AEXXZ 0041057f f i SearchExperiment.obj
 0001:0000f58b       ??_E?$basic_stringstream@DU?$char_traits@D@std@@V?$allocator@D@2@@std@@$4PPPPPPPM@A@AEPAXI@Z 0041058b f i SearchExperiment.obj
 0001:0000f593       ?_Add_vtordisp1@?$basic_istream@DU?$char_traits@D@std@@@std@@$4PPPPPPPM@FI@AEXXZ 00410593 f i SearchExperiment.obj
 0001:0000f59f       ??_E?$basic_ifstream@DU?$char_traits@D@std@@@std@@$4PPPPPPPM@A@AEPAXI@Z 0041059f f i SearchExperiment.obj
 0001:0000f5a7       ?_Add_vtordisp1@?$basic_istream@DU?$char_traits@D@std@@@std@@$4PPPPPPPM@EI@AEXXZ 004105a7 f i SearchExperiment.obj
 0001:0000f5b3       ??_E?$basic_ofstream@DU?$char_traits@D@std@@@std@@$4PPPPPPPM@A@AEPAXI@Z 004105b3 f i SearchExperiment.obj
 0001:0000f5bb       ?_Add_vtordisp2@?$basic_ostream@DU?$char_traits@D@std@@@std@@$4PPPPPPPM@FA@AEXXZ 004105bb f i SearchExperiment.obj
 0001:0000f5c7       ?_Add_vtordisp1@?$basic_istream@DU?$char_traits@D@std@@@std@@$4PPPPPPPM@FA@AEXXZ 004105c7 f i SearchExperiment.obj
 0001:0000f5d3       ??_E?$basic_istringstream@DU?$char_traits@D@std@@V?$allocator@D@2@@std@@$4PPPPPPPM@A@AEPAXI@Z 004105d3 f i SearchExperiment.obj
 0001:0000f5e0       ?getMapData@Map@SparCraft@@QBE?B_NABI0@Z 004105e0 f i TutorialCode.obj
 0001:0000f650       ?FatalError@System@SparCraft@@YAXABV?$basic_string@DU?$char_traits@D@std@@V?$allocator@D@2@@std@@@Z 00410650 f   SparCraft:Common.obj
 0001:0000f6a0       ?checkSupportedUnitType@System@SparCraft@@YAXABVUnitType@BWAPI@@@Z 004106a0 f   SparCraft:Common.obj
 0001:0000f840       ?init@SparCraft@@YAXXZ     00410840 f   SparCraft:SparCraft.obj
 0001:0000f8d0       ?getElapsedTimeInMilliSec@Timer@SparCraft@@QAENXZ 004108d0 f   SparCraft:Timer.obj
 0001:0000f950       ?getType@Player_AttackClosest@SparCraft@@UAEEXZ 00410950 f i SparCraft:Player_AttackClosest.obj
 0001:0000f960       ?getMoves@Player_AttackClosest@SparCraft@@UAEXAAVGameState@2@ABVMoveArray@2@AAV?$vector@VUnitAction@SparCraft@@V?$allocator@VUnitAction@SparCraft@@@std@@@std@@@Z 00410960 f   SparCraft:Player_AttackClosest.obj
 0001:0000fcc0       ?push_back@?$vector@VUnitAction@SparCraft@@V?$allocator@VUnitAction@SparCraft@@@std@@@std@@QAEXABVUnitAction@SparCraft@@@Z 00410cc0 f i SparCraft:Player_AttackClosest.obj
 0001:0000fd50       ?_Reserve@?$vector@VUnitAction@SparCraft@@V?$allocator@VUnitAction@SparCraft@@@std@@@std@@IAEXI@Z 00410d50 f i SparCraft:Player_AttackClosest.obj
 0001:0000fdf0       ?_Grow_to@?$vector@VUnitAction@SparCraft@@V?$allocator@VUnitAction@SparCraft@@@std@@@std@@IBEII@Z 00410df0 f i SparCraft:Player_AttackClosest.obj
 0001:0000fe40       ?_Reallocate@?$vector@VUnitAction@SparCraft@@V?$allocator@VUnitAction@SparCraft@@@std@@@std@@IAEXI@Z 00410e40 f i SparCraft:Player_AttackClosest.obj
 0001:0000fed0       ?allocate@?$_Wrap_alloc@V?$allocator@VUnitAction@SparCraft@@@std@@@std@@QAEPAVUnitAction@SparCraft@@I@Z 00410ed0 f i SparCraft:Player_AttackClosest.obj
 0001:0000ff10       ??$_Uninit_copy@PAVUnitAction@SparCraft@@PAV12@V?$allocator@VUnitAction@SparCraft@@@std@@@std@@YAPAVUnitAction@SparCraft@@PAV12@00AAU?$_Wrap_alloc@V?$allocator@VUnitAction@SparCraft@@@std@@@0@U_Nonscalar_ptr_iterator_tag@0@@Z 00410f10 f i SparCraft:Player_IUCT.obj
 0001:0000ff10       ??$_Uninit_move@PAVUnitAction@SparCraft@@PAV12@V?$allocator@VUnitAction@SparCraft@@@std@@V12@@std@@YAPAVUnitAction@SparCraft@@PAV12@00AAU?$_Wrap_alloc@V?$allocator@VUnitAction@SparCraft@@@std@@@0@0U_Nonscalar_ptr_iterator_tag@0@@Z 00410f10 f i SparCraft:Player_AttackClosest.obj
 0001:0000ff40       ?getType@Player_AlphaBeta@SparCraft@@UAEEXZ 00410f40 f i SparCraft:Player_AlphaBeta.obj
 0001:0000ff50       ??_EPlayer_AlphaBeta@SparCraft@@UAEPAXI@Z 00410f50 f i * CIL library *:* CIL module *
 0001:0000ff50       ??_GPlayer_AlphaBeta@SparCraft@@UAEPAXI@Z 00410f50 f i SparCraft:Player_AlphaBeta.obj
 0001:0000ff70       ??0Player_AlphaBeta@SparCraft@@QAE@ABEABVAlphaBetaSearchParameters@1@V?$shared_ptr@VTranspositionTable@SparCraft@@@boost@@@Z 00410f70 f   SparCraft:Player_AlphaBeta.obj
 0001:000100c0       ??4AlphaBetaSearchParameters@SparCraft@@QAEAAV01@ABV01@@Z 004110c0 f i SparCraft:Player_AlphaBeta.obj
 0001:00010150       ??1Player_AlphaBeta@SparCraft@@UAE@XZ 00411150 f   SparCraft:Player_AlphaBeta.obj
 0001:000101f0       ??1AlphaBetaSearch@SparCraft@@QAE@XZ 004111f0 f i SparCraft:Player_AlphaBeta.obj
 0001:000102d0       ??1AlphaBetaSearchResults@SparCraft@@QAE@XZ 004112d0 f i SparCraft:Player_AlphaBeta.obj
 0001:00010340       ??1?$Array2D@V?$vector@VUnitAction@SparCraft@@V?$allocator@VUnitAction@SparCraft@@@std@@@std@@$0DC@$09@SparCraft@@QAE@XZ 00411340 f i SparCraft:Player_AlphaBeta.obj
 0001:00010360       ??1?$Array@V?$vector@VUnitAction@SparCraft@@V?$allocator@VUnitAction@SparCraft@@@std@@@std@@$09@SparCraft@@QAE@XZ 00411360 f i SparCraft:Player_AlphaBeta.obj
 0001:00010380       ?setTranspositionTable@Player_AlphaBeta@SparCraft@@QAEXV?$shared_ptr@VTranspositionTable@SparCraft@@@boost@@@Z 00411380 f   SparCraft:Player_AlphaBeta.obj
 0001:00010450       ?getMoves@Player_AlphaBeta@SparCraft@@UAEXAAVGameState@2@ABVMoveArray@2@AAV?$vector@VUnitAction@SparCraft@@V?$allocator@VUnitAction@SparCraft@@@std@@@std@@@Z 00411450 f   SparCraft:Player_AlphaBeta.obj
 0001:000104a0       ??4?$vector@EV?$allocator@E@std@@@std@@QAEAAV01@ABV01@@Z 004114a0 f i SparCraft:Player_AlphaBeta.obj
 0001:00010580       ??4?$vector@V?$vector@V?$basic_string@DU?$char_traits@D@std@@V?$allocator@D@2@@std@@V?$allocator@V?$basic_string@DU?$char_traits@D@std@@V?$allocator@D@2@@std@@@2@@std@@V?$allocator@V?$vector@V?$basic_string@DU?$char_traits@D@std@@V?$allocator@D@2@@std@@V?$allocator@V?$basic_string@DU?$char_traits@D@std@@V?$allocator@D@2@@std@@@2@@std@@@2@@std@@QAEAAV01@ABV01@@Z 00411580 f i SparCraft:Player_AlphaBeta.obj
 0001:00010720       ?_Buy@?$vector@EV?$allocator@E@std@@@std@@IAE_NI@Z 00411720 f i SparCraft:Player_AlphaBeta.obj
 0001:00010780       ??$_Copy_impl@PAV?$vector@V?$basic_string@DU?$char_traits@D@std@@V?$allocator@D@2@@std@@V?$allocator@V?$basic_string@DU?$char_traits@D@std@@V?$allocator@D@2@@std@@@2@@std@@PAV12@@std@@YAPAV?$vector@V?$basic_string@DU?$char_traits@D@std@@V?$allocator@D@2@@std@@V?$allocator@V?$basic_string@DU?$char_traits@D@std@@V?$allocator@D@2@@std@@@2@@0@PAV10@00@Z 00411780 f i SparCraft:Player_AlphaBeta.obj
 0001:000107b0       ?erase@?$vector@VUnitAction@SparCraft@@V?$allocator@VUnitAction@SparCraft@@@std@@@std@@QAE?AV?$_Vector_iterator@V?$_Vector_val@U?$_Simple_types@VUnitAction@SparCraft@@@std@@@std@@@2@V?$_Vector_const_iterator@V?$_Vector_val@U?$_Simple_types@VUnitAction@SparCraft@@@std@@@std@@@2@0@Z 004117b0 f i SparCraft:Player_AlphaBeta.obj
 0001:00010810       ??4?$vector@V?$basic_string@DU?$char_traits@D@std@@V?$allocator@D@2@@std@@V?$allocator@V?$basic_string@DU?$char_traits@D@std@@V?$allocator@D@2@@std@@@2@@std@@QAEAAV01@ABV01@@Z 00411810 f i SparCraft:Player_AlphaBeta.obj
 0001:000109a0       ??$_Insert@V?$_Vector_const_iterator@V?$_Vector_val@U?$_Simple_types@VUnitAction@SparCraft@@@std@@@std@@@std@@@?$vector@VUnitAction@SparCraft@@V?$allocator@VUnitAction@SparCraft@@@std@@@std@@QAEXV?$_Vector_const_iterator@V?$_Vector_val@U?$_Simple_types@VUnitAction@SparCraft@@@std@@@std@@@1@00Uforward_iterator_tag@1@@Z 004119a0 f i SparCraft:AlphaBetaSearch.obj
 0001:000109a0       ??$_Insert@V?$_Vector_iterator@V?$_Vector_val@U?$_Simple_types@VUnitAction@SparCraft@@@std@@@std@@@std@@@?$vector@VUnitAction@SparCraft@@V?$allocator@VUnitAction@SparCraft@@@std@@@std@@QAEXV?$_Vector_const_iterator@V?$_Vector_val@U?$_Simple_types@VUnitAction@SparCraft@@@std@@@std@@@1@V?$_Vector_iterator@V?$_Vector_val@U?$_Simple_types@VUnitAction@SparCraft@@@std@@@std@@@1@1Uforward_iterator_tag@1@@Z 004119a0 f i SparCraft:Player_AlphaBeta.obj
 0001:00010af0       ??$_Uninit_copy@PAV?$vector@V?$basic_string@DU?$char_traits@D@std@@V?$allocator@D@2@@std@@V?$allocator@V?$basic_string@DU?$char_traits@D@std@@V?$allocator@D@2@@std@@@2@@std@@PAV12@V?$allocator@V?$vector@V?$basic_string@DU?$char_traits@D@std@@V?$allocator@D@2@@std@@V?$allocator@V?$basic_string@DU?$char_traits@D@std@@V?$allocator@D@2@@std@@@2@@std@@@2@@std@@YAPAV?$vector@V?$basic_string@DU?$char_traits@D@std@@V?$allocator@D@2@@std@@V?$allocator@V?$basic_string@DU?$char_traits@D@std@@V?$allocator@D@2@@std@@@2@@0@PAV10@00AAU?$_Wrap_alloc@V?$allocator@V?$vector@V?$basic_string@DU?$char_traits@D@std@@V?$allocator@D@2@@std@@V?$allocator@V?$basic_string@DU?$char_traits@D@std@@V?$allocator@D@2@@std@@@2@@std@@@std@@@0@U_Nonscalar_ptr_iterator_tag@0@@Z 00411af0 f i SparCraft:Player_AlphaBeta.obj
 0001:00010b90       ??$_Copy_impl@PAV?$basic_string@DU?$char_traits@D@std@@V?$allocator@D@2@@std@@PAV12@@std@@YAPAV?$basic_string@DU?$char_traits@D@std@@V?$allocator@D@2@@0@PAV10@00@Z 00411b90 f i SparCraft:Player_AlphaBeta.obj
 0001:00010bc0       ??$_Uninit_copy@PAV?$basic_string@DU?$char_traits@D@std@@V?$allocator@D@2@@std@@PAV12@V?$allocator@V?$basic_string@DU?$char_traits@D@std@@V?$allocator@D@2@@std@@@2@@std@@YAPAV?$basic_string@DU?$char_traits@D@std@@V?$allocator@D@2@@0@PAV10@00AAU?$_Wrap_alloc@V?$allocator@V?$basic_string@DU?$char_traits@D@std@@V?$allocator@D@2@@std@@@std@@@0@U_Nonscalar_ptr_iterator_tag@0@@Z 00411bc0 f i SparCraft:Player_AlphaBeta.obj
 0001:00010c70       ??$_Uninit_copy@V?$_Vector_const_iterator@V?$_Vector_val@U?$_Simple_types@VUnitAction@SparCraft@@@std@@@std@@@std@@PAVUnitAction@SparCraft@@V?$allocator@VUnitAction@SparCraft@@@2@@std@@YAPAVUnitAction@SparCraft@@V?$_Vector_const_iterator@V?$_Vector_val@U?$_Simple_types@VUnitAction@SparCraft@@@std@@@std@@@0@0PAV12@AAU?$_Wrap_alloc@V?$allocator@VUnitAction@SparCraft@@@std@@@0@U_Nonscalar_ptr_iterator_tag@0@@Z 00411c70 f i SparCraft:TranspositionTable.obj
 0001:00010c70       ??$_Uninit_copy@V?$_Vector_iterator@V?$_Vector_val@U?$_Simple_types@VUnitAction@SparCraft@@@std@@@std@@@std@@PAVUnitAction@SparCraft@@V?$allocator@VUnitAction@SparCraft@@@2@@std@@YAPAVUnitAction@SparCraft@@V?$_Vector_iterator@V?$_Vector_val@U?$_Simple_types@VUnitAction@SparCraft@@@std@@@std@@@0@0PAV12@AAU?$_Wrap_alloc@V?$allocator@VUnitAction@SparCraft@@@std@@@0@U_Nonscalar_ptr_iterator_tag@0@@Z 00411c70 f i SparCraft:Player_AlphaBeta.obj
 0001:00010cb0       ??$_Rotate@PAVUnitAction@SparCraft@@HV12@@std@@YAXPAVUnitAction@SparCraft@@00PAH0@Z 00411cb0 f i SparCraft:Player_AlphaBeta.obj
 0001:00010db0       ?getType@Player_Kiter_NOKDPS@SparCraft@@UAEEXZ 00411db0 f i SparCraft:Player_Kiter_NOKDPS.obj
 0001:00010dc0       ?getMoves@Player_Kiter_NOKDPS@SparCraft@@UAEXAAVGameState@2@ABVMoveArray@2@AAV?$vector@VUnitAction@SparCraft@@V?$allocator@VUnitAction@SparCraft@@@std@@@std@@@Z 00411dc0 f   SparCraft:Player_Kiter_NOKDPS.obj
 0001:000113d0       _sqrtf                     004123d0 f i SparCraft:GameState.obj
 0001:000113f0       ?moveString@UnitAction@SparCraft@@QBE?BV?$basic_string@DU?$char_traits@D@std@@V?$allocator@D@2@@std@@XZ 004123f0 f i SparCraft:GameState.obj
 0001:000114b0       ??0GameState@SparCraft@@QAE@XZ 004124b0 f   SparCraft:GameState.obj
 0001:00011680       ??0GameState@SparCraft@@QAE@ABV?$basic_string@DU?$char_traits@D@std@@V?$allocator@D@2@@std@@@Z 00412680 f   SparCraft:GameState.obj
 0001:000117b0       ?finishedMoving@GameState@SparCraft@@QAEXXZ 004127b0 f   SparCraft:GameState.obj
 0001:000118b0       ?calculateHash@GameState@SparCraft@@QBE?BIABI@Z 004128b0 f   SparCraft:GameState.obj
 0001:000119a0       ?generateMoves@GameState@SparCraft@@QBEXAAVMoveArray@2@ABE@Z 004129a0 f   SparCraft:GameState.obj
 0001:000120c0       ?makeMoves@GameState@SparCraft@@QAEXABV?$vector@VUnitAction@SparCraft@@V?$allocator@VUnitAction@SparCraft@@@std@@@std@@@Z 004130c0 f   SparCraft:GameState.obj
 0001:000121b0       ?performUnitAction@GameState@SparCraft@@AAEXABVUnitAction@2@@Z 004131b0 f   SparCraft:GameState.obj
 0001:00012370       ?getClosestOurUnit@GameState@SparCraft@@QAEABVUnit@2@ABE0@Z 00413370 f   SparCraft:GameState.obj
 0001:000124b0       ?getClosestEnemyUnit@GameState@SparCraft@@QAEABVUnit@2@ABE0@Z 004134b0 f   SparCraft:GameState.obj
 0001:00012610       ??4Unit@SparCraft@@QAEAAV01@ABV01@@Z 00413610 f i SparCraft:GameState.obj
 0001:00012690       ?addUnit@GameState@SparCraft@@QAEXVUnitType@BWAPI@@EABVPosition@2@@Z 00413690 f   SparCraft:GameState.obj
 0001:00012820       ?sortUnits@GameState@SparCraft@@QAEXXZ 00413820 f   SparCraft:GameState.obj
 0001:00012890       ?playerDead@GameState@SparCraft@@QBE?B_NABE@Z 00413890 f   SparCraft:GameState.obj
 0001:00012940       ?whoCanMove@GameState@SparCraft@@QBE?BEXZ 00413940 f   SparCraft:GameState.obj
 0001:00012990       ??1?$map@HEU?$less@H@std@@V?$allocator@U?$pair@$$CBHE@std@@@2@@std@@QAE@XZ 00413990 f i SparCraft:PortfolioGreedySearch.obj
 0001:00012990       ??1?$set@EU?$less@E@std@@V?$allocator@E@2@@std@@QAE@XZ 00413990 f i SparCraft:GameState.obj
 0001:000129c0       ?updateGameTime@GameState@SparCraft@@QAEXXZ 004139c0 f   SparCraft:GameState.obj
 0001:00012a30       ?eval@GameState@SparCraft@@QBE?BVStateEvalScore@2@ABE0EE@Z 00413a30 f   SparCraft:GameState.obj
 0001:00012b90       ?evalSim@GameState@SparCraft@@QBE?BVStateEvalScore@2@ABE00@Z 00413b90 f   SparCraft:GameState.obj
 0001:00012da0       ?calculateStartingHealth@GameState@SparCraft@@QAEXXZ 00413da0 f   SparCraft:GameState.obj
 0001:00012ff0       ?LTD2@GameState@SparCraft@@QBE?BHABE@Z 00413ff0 f   SparCraft:GameState.obj
 0001:00013150       ?LTD@GameState@SparCraft@@QBE?BHABE@Z 00414150 f   SparCraft:GameState.obj
 0001:000132a0       ?setMap@GameState@SparCraft@@QAEXPAVMap@2@@Z 004142a0 f   SparCraft:GameState.obj
 0001:000134f0       ?isTerminal@GameState@SparCraft@@QBE?B_NXZ 004144f0 f   SparCraft:GameState.obj
 0001:00013670       ?read@GameState@SparCraft@@QAEXABV?$basic_string@DU?$char_traits@D@std@@V?$allocator@D@2@@std@@@Z 00414670 f   SparCraft:GameState.obj
 0001:00013750       ??0?$Array@VUnit@SparCraft@@$00@SparCraft@@QAE@XZ 00414750 f i SparCraft:GameState.obj
 0001:000137b0       ??0?$set@EU?$less@E@std@@V?$allocator@E@2@@std@@QAE@XZ 004147b0 f i SparCraft:GameState.obj
 0001:000137d0       ?find@?$_Tree@V?$_Tset_traits@EU?$less@E@std@@V?$allocator@E@2@$0A@@std@@@std@@QAE?AV?$_Tree_const_iterator@V?$_Tree_val@U?$_Tree_simple_types@E@std@@@std@@@2@ABE@Z 004147d0 f i SparCraft:GameState.obj
 0001:00013820       ??1?$_Tree_comp@$0A@V?$_Tmap_traits@HEU?$less@H@std@@V?$allocator@U?$pair@$$CBHE@std@@@2@$0A@@std@@@std@@QAE@XZ 00414820 f i SparCraft:PortfolioGreedySearch.obj
 0001:00013820       ??1?$_Tree_comp@$0A@V?$_Tset_traits@EU?$less@E@std@@V?$allocator@E@2@$0A@@std@@@std@@QAE@XZ 00414820 f i SparCraft:GameState.obj
 0001:00013830       ??0?$Array@VUnit@SparCraft@@$0DC@@SparCraft@@QAE@XZ 00414830 f i SparCraft:GameState.obj
 0001:000138b0       ?erase@?$_Tree@V?$_Tmap_traits@HEU?$less@H@std@@V?$allocator@U?$pair@$$CBHE@std@@@2@$0A@@std@@@std@@QAE?AV?$_Tree_iterator@V?$_Tree_val@U?$_Tree_simple_types@U?$pair@$$CBHE@std@@@std@@@std@@@2@V?$_Tree_const_iterator@V?$_Tree_val@U?$_Tree_simple_types@U?$pair@$$CBHE@std@@@std@@@std@@@2@0@Z 004148b0 f i SparCraft:PortfolioGreedySearch.obj
 0001:000138b0       ?erase@?$_Tree@V?$_Tset_traits@EU?$less@E@std@@V?$allocator@E@2@$0A@@std@@@std@@QAE?AV?$_Tree_const_iterator@V?$_Tree_val@U?$_Tree_simple_types@E@std@@@std@@@2@V32@0@Z 004148b0 f i SparCraft:GameState.obj
 0001:00013970       ?erase@?$_Tree@V?$_Tmap_traits@HEU?$less@H@std@@V?$allocator@U?$pair@$$CBHE@std@@@2@$0A@@std@@@std@@QAE?AV?$_Tree_iterator@V?$_Tree_val@U?$_Tree_simple_types@U?$pair@$$CBHE@std@@@std@@@std@@@2@V?$_Tree_const_iterator@V?$_Tree_val@U?$_Tree_simple_types@U?$pair@$$CBHE@std@@@std@@@std@@@2@@Z 00414970 f i SparCraft:PortfolioGreedySearch.obj
 0001:00013970       ?erase@?$_Tree@V?$_Tset_traits@EU?$less@E@std@@V?$allocator@E@2@$0A@@std@@@std@@QAE?AV?$_Tree_const_iterator@V?$_Tree_val@U?$_Tree_simple_types@E@std@@@std@@@2@V32@@Z 00414970 f i SparCraft:GameState.obj
 0001:00013bc0       ?_Erase@?$_Tree@V?$_Tset_traits@VBulletType@BWAPI@@U?$less@VBulletType@BWAPI@@@std@@V?$allocator@VBulletType@BWAPI@@@4@$0A@@std@@@std@@IAEXPAU?$_Tree_node@VBulletType@BWAPI@@PAX@2@@Z 00414bc0 f i BWAPI:BulletType.obj
 0001:00013bc0       ?_Erase@?$_Tree@V?$_Tset_traits@VError@BWAPI@@U?$less@VError@BWAPI@@@std@@V?$allocator@VError@BWAPI@@@4@$0A@@std@@@std@@IAEXPAU?$_Tree_node@VError@BWAPI@@PAX@2@@Z 00414bc0 f i BWAPI:Error.obj
 0001:00013bc0       ?_Erase@?$_Tree@V?$_Tset_traits@VUnitType@BWAPI@@U?$less@VUnitType@BWAPI@@@std@@V?$allocator@VUnitType@BWAPI@@@4@$0A@@std@@@std@@IAEXPAU?$_Tree_node@VUnitType@BWAPI@@PAX@2@@Z 00414bc0 f i BWAPI:UnitType.obj
 0001:00013bc0       ?_Erase@?$_Tree@V?$_Tset_traits@VUpgradeType@BWAPI@@U?$less@VUpgradeType@BWAPI@@@std@@V?$allocator@VUpgradeType@BWAPI@@@4@$0A@@std@@@std@@IAEXPAU?$_Tree_node@VUpgradeType@BWAPI@@PAX@2@@Z 00414bc0 f i BWAPI:UnitType.obj
 0001:00013bc0       ?_Erase@?$_Tree@V?$_Tset_traits@VWeaponType@BWAPI@@U?$less@VWeaponType@BWAPI@@@std@@V?$allocator@VWeaponType@BWAPI@@@4@$0A@@std@@@std@@IAEXPAU?$_Tree_node@VWeaponType@BWAPI@@PAX@2@@Z 00414bc0 f i BWAPI:WeaponType.obj
 0001:00013bc0       ?_Erase@?$_Tree@V?$_Tset_traits@VTechType@BWAPI@@U?$less@VTechType@BWAPI@@@std@@V?$allocator@VTechType@BWAPI@@@4@$0A@@std@@@std@@IAEXPAU?$_Tree_node@VTechType@BWAPI@@PAX@2@@Z 00414bc0 f i BWAPI:UnitType.obj
 0001:00013bc0       ?_Erase@?$_Tree@V?$_Tset_traits@VUnitCommandType@BWAPI@@U?$less@VUnitCommandType@BWAPI@@@std@@V?$allocator@VUnitCommandType@BWAPI@@@4@$0A@@std@@@std@@IAEXPAU?$_Tree_node@VUnitCommandType@BWAPI@@PAX@2@@Z 00414bc0 f i BWAPI:UnitCommandType.obj
 0001:00013bc0       ?_Erase@?$_Tree@V?$_Tmap_traits@HEU?$less@H@std@@V?$allocator@U?$pair@$$CBHE@std@@@2@$0A@@std@@@std@@IAEXPAU?$_Tree_node@U?$pair@$$CBHE@std@@PAX@2@@Z 00414bc0 f i SparCraft:PortfolioGreedySearch.obj
 0001:00013bc0       ?_Erase@?$_Tree@V?$_Tmap_traits@VUnitType@BWAPI@@HU?$less@VUnitType@BWAPI@@@std@@V?$allocator@U?$pair@$$CBVUnitType@BWAPI@@H@std@@@4@$0A@@std@@@std@@IAEXPAU?$_Tree_node@U?$pair@$$CBVUnitType@BWAPI@@H@std@@PAX@2@@Z 00414bc0 f i BWAPI:UnitType.obj
 0001:00013bc0       ?_Erase@?$_Tree@V?$_Tset_traits@VOrder@BWAPI@@U?$less@VOrder@BWAPI@@@std@@V?$allocator@VOrder@BWAPI@@@4@$0A@@std@@@std@@IAEXPAU?$_Tree_node@VOrder@BWAPI@@PAX@2@@Z 00414bc0 f i BWAPI:Order.obj
 0001:00013bc0       ?_Erase@?$_Tree@V?$_Tset_traits@VUnitSizeType@BWAPI@@U?$less@VUnitSizeType@BWAPI@@@std@@V?$allocator@VUnitSizeType@BWAPI@@@4@$0A@@std@@@std@@IAEXPAU?$_Tree_node@VUnitSizeType@BWAPI@@PAX@2@@Z 00414bc0 f i BWAPI:UnitSizeType.obj
 0001:00013bc0       ?_Erase@?$_Tree@V?$_Tset_traits@VGameType@BWAPI@@U?$less@VGameType@BWAPI@@@std@@V?$allocator@VGameType@BWAPI@@@4@$0A@@std@@@std@@IAEXPAU?$_Tree_node@VGameType@BWAPI@@PAX@2@@Z 00414bc0 f i BWAPI:GameType.obj
 0001:00013bc0       ?_Erase@?$_Tree@V?$_Tset_traits@VDamageType@BWAPI@@U?$less@VDamageType@BWAPI@@@std@@V?$allocator@VDamageType@BWAPI@@@4@$0A@@std@@@std@@IAEXPAU?$_Tree_node@VDamageType@BWAPI@@PAX@2@@Z 00414bc0 f i BWAPI:DamageType.obj
 0001:00013bc0       ?_Erase@?$_Tree@V?$_Tset_traits@VExplosionType@BWAPI@@U?$less@VExplosionType@BWAPI@@@std@@V?$allocator@VExplosionType@BWAPI@@@4@$0A@@std@@@std@@IAEXPAU?$_Tree_node@VExplosionType@BWAPI@@PAX@2@@Z 00414bc0 f i BWAPI:ExplosionType.obj
 0001:00013bc0       ?_Erase@?$_Tree@V?$_Tset_traits@VPlayerType@BWAPI@@U?$less@VPlayerType@BWAPI@@@std@@V?$allocator@VPlayerType@BWAPI@@@4@$0A@@std@@@std@@IAEXPAU?$_Tree_node@VPlayerType@BWAPI@@PAX@2@@Z 00414bc0 f i BWAPI:PlayerType.obj
 0001:00013bc0       ?_Erase@?$_Tree@V?$_Tset_traits@VRace@BWAPI@@U?$less@VRace@BWAPI@@@std@@V?$allocator@VRace@BWAPI@@@4@$0A@@std@@@std@@IAEXPAU?$_Tree_node@VRace@BWAPI@@PAX@2@@Z 00414bc0 f i BWAPI:Race.obj
 0001:00013bc0       ?_Erase@?$_Tree@V?$_Tset_traits@EU?$less@E@std@@V?$allocator@E@2@$0A@@std@@@std@@IAEXPAU?$_Tree_node@EPAX@2@@Z 00414bc0 f i SparCraft:GameState.obj
 0001:00013c10       ?_Min@?$_Tree_val@U?$_Tree_simple_types@E@std@@@std@@SAPAU?$_Tree_node@EPAX@2@PAU32@@Z 00414c10 f i SparCraft:GameState.obj
 0001:00013c10       ?_Min@?$_Tree_val@U?$_Tree_simple_types@U?$pair@$$CBHE@std@@@std@@@std@@SAPAU?$_Tree_node@U?$pair@$$CBHE@std@@PAX@2@PAU32@@Z 00414c10 f i SparCraft:PortfolioGreedySearch.obj
 0001:00013c30       ?_Buyheadnode@?$_Tree_alloc@$0A@U?$_Tree_base_types@EV?$allocator@E@std@@@std@@@std@@QAEPAU?$_Tree_node@EPAX@2@XZ 00414c30 f i SparCraft:GameState.obj
 0001:00013c60       ??$_Insert_nohint@ABEU_Nil@std@@@?$_Tree@V?$_Tset_traits@EU?$less@E@std@@V?$allocator@E@2@$0A@@std@@@std@@IAE?AU?$pair@V?$_Tree_const_iterator@V?$_Tree_val@U?$_Tree_simple_types@E@std@@@std@@@std@@_N@1@_NABEU_Nil@1@@Z 00414c60 f i SparCraft:GameState.obj
 0001:00013d60       ??F?$_Tree_unchecked_const_iterator@V?$_Tree_val@U?$_Tree_simple_types@U?$pair@$$CBV?$basic_string@DU?$char_traits@D@std@@V?$allocator@D@2@@std@@VUnitCommandType@BWAPI@@@std@@@std@@@std@@U_Iterator_base0@2@@std@@QAEAAV01@XZ 00414d60 f i BWAPI:UnitCommandType.obj
 0001:00013d60       ??F?$_Tree_unchecked_const_iterator@V?$_Tree_val@U?$_Tree_simple_types@U?$pair@$$CBV?$basic_string@DU?$char_traits@D@std@@V?$allocator@D@2@@std@@VOrder@BWAPI@@@std@@@std@@@std@@U_Iterator_base0@2@@std@@QAEAAV01@XZ 00414d60 f i BWAPI:Order.obj
 0001:00013d60       ??F?$_Tree_unchecked_const_iterator@V?$_Tree_val@U?$_Tree_simple_types@U?$pair@$$CBV?$basic_string@DU?$char_traits@D@std@@V?$allocator@D@2@@std@@VExplosionType@BWAPI@@@std@@@std@@@std@@U_Iterator_base0@2@@std@@QAEAAV01@XZ 00414d60 f i BWAPI:ExplosionType.obj
 0001:00013d60       ??F?$_Tree_unchecked_const_iterator@V?$_Tree_val@U?$_Tree_simple_types@U?$pair@$$CBV?$basic_string@DU?$char_traits@D@std@@V?$allocator@D@2@@std@@H@std@@@std@@@std@@U_Iterator_base0@2@@std@@QAEAAV01@XZ 00414d60 f i SparCraft:EnumData.obj
 0001:00013d60       ??F?$_Tree_unchecked_const_iterator@V?$_Tree_val@U?$_Tree_simple_types@U?$pair@$$CBV?$basic_string@DU?$char_traits@D@std@@V?$allocator@D@2@@std@@VUnitType@BWAPI@@@std@@@std@@@std@@U_Iterator_base0@2@@std@@QAEAAV01@XZ 00414d60 f i BWAPI:UnitType.obj
 0001:00013d60       ??F?$_Tree_unchecked_const_iterator@V?$_Tree_val@U?$_Tree_simple_types@U?$pair@$$CBHE@std@@@std@@@std@@U_Iterator_base0@2@@std@@QAEAAV01@XZ 00414d60 f i SparCraft:UnitScriptData.obj
 0001:00013d60       ??F?$_Tree_unchecked_const_iterator@V?$_Tree_val@U?$_Tree_simple_types@U?$pair@$$CBV?$basic_string@DU?$char_traits@D@std@@V?$allocator@D@2@@std@@VPlayerType@BWAPI@@@std@@@std@@@std@@U_Iterator_base0@2@@std@@QAEAAV01@XZ 00414d60 f i BWAPI:PlayerType.obj
 0001:00013d60       ??F?$_Tree_unchecked_const_iterator@V?$_Tree_val@U?$_Tree_simple_types@U?$pair@$$CBV?$basic_string@DU?$char_traits@D@std@@V?$allocator@D@2@@std@@VWeaponType@BWAPI@@@std@@@std@@@std@@U_Iterator_base0@2@@std@@QAEAAV01@XZ 00414d60 f i BWAPI:WeaponType.obj
 0001:00013d60       ??F?$_Tree_unchecked_const_iterator@V?$_Tree_val@U?$_Tree_simple_types@U?$pair@$$CBV?$basic_string@DU?$char_traits@D@std@@V?$allocator@D@2@@std@@VRace@BWAPI@@@std@@@std@@@std@@U_Iterator_base0@2@@std@@QAEAAV01@XZ 00414d60 f i BWAPI:Race.obj
 0001:00013d60       ??F?$_Tree_unchecked_const_iterator@V?$_Tree_val@U?$_Tree_simple_types@VWeaponType@BWAPI@@@std@@@std@@U_Iterator_base0@2@@std@@QAEAAV01@XZ 00414d60 f i BWAPI:WeaponType.obj
 0001:00013d60       ??F?$_Tree_unchecked_const_iterator@V?$_Tree_val@U?$_Tree_simple_types@VRace@BWAPI@@@std@@@std@@U_Iterator_base0@2@@std@@QAEAAV01@XZ 00414d60 f i BWAPI:Race.obj
 0001:00013d60       ??F?$_Tree_unchecked_const_iterator@V?$_Tree_val@U?$_Tree_simple_types@U?$pair@$$CBV?$basic_string@DU?$char_traits@D@std@@V?$allocator@D@2@@std@@VBulletType@BWAPI@@@std@@@std@@@std@@U_Iterator_base0@2@@std@@QAEAAV01@XZ 00414d60 f i BWAPI:BulletType.obj
 0001:00013d60       ??F?$_Tree_unchecked_const_iterator@V?$_Tree_val@U?$_Tree_simple_types@E@std@@@std@@U_Iterator_base0@2@@std@@QAEAAV01@XZ 00414d60 f i SparCraft:GameState.obj
 0001:00013d60       ??F?$_Tree_unchecked_const_iterator@V?$_Tree_val@U?$_Tree_simple_types@VDamageType@BWAPI@@@std@@@std@@U_Iterator_base0@2@@std@@QAEAAV01@XZ 00414d60 f i BWAPI:DamageType.obj
 0001:00013d60       ??F?$_Tree_unchecked_const_iterator@V?$_Tree_val@U?$_Tree_simple_types@VUnitType@BWAPI@@@std@@@std@@U_Iterator_base0@2@@std@@QAEAAV01@XZ 00414d60 f i BWAPI:UnitType.obj
 0001:00013d60       ??F?$_Tree_unchecked_const_iterator@V?$_Tree_val@U?$_Tree_simple_types@VPlayerType@BWAPI@@@std@@@std@@U_Iterator_base0@2@@std@@QAEAAV01@XZ 00414d60 f i BWAPI:PlayerType.obj
 0001:00013d60       ??F?$_Tree_unchecked_const_iterator@V?$_Tree_val@U?$_Tree_simple_types@VOrder@BWAPI@@@std@@@std@@U_Iterator_base0@2@@std@@QAEAAV01@XZ 00414d60 f i BWAPI:Order.obj
 0001:00013d60       ??F?$_Tree_unchecked_const_iterator@V?$_Tree_val@U?$_Tree_simple_types@VUpgradeType@BWAPI@@@std@@@std@@U_Iterator_base0@2@@std@@QAEAAV01@XZ 00414d60 f i BWAPI:UnitType.obj
 0001:00013d60       ??F?$_Tree_unchecked_const_iterator@V?$_Tree_val@U?$_Tree_simple_types@VUnitCommandType@BWAPI@@@std@@@std@@U_Iterator_base0@2@@std@@QAEAAV01@XZ 00414d60 f i BWAPI:UnitCommandType.obj
 0001:00013d60       ??F?$_Tree_unchecked_const_iterator@V?$_Tree_val@U?$_Tree_simple_types@VTechType@BWAPI@@@std@@@std@@U_Iterator_base0@2@@std@@QAEAAV01@XZ 00414d60 f i BWAPI:UnitType.obj
 0001:00013d60       ??F?$_Tree_unchecked_const_iterator@V?$_Tree_val@U?$_Tree_simple_types@U?$pair@$$CBV?$basic_string@DU?$char_traits@D@std@@V?$allocator@D@2@@std@@VTechType@BWAPI@@@std@@@std@@@std@@U_Iterator_base0@2@@std@@QAEAAV01@XZ 00414d60 f i BWAPI:TechType.obj
 0001:00013d60       ??F?$_Tree_unchecked_const_iterator@V?$_Tree_val@U?$_Tree_simple_types@U?$pair@$$CBV?$basic_string@DU?$char_traits@D@std@@V?$allocator@D@2@@std@@VGameType@BWAPI@@@std@@@std@@@std@@U_Iterator_base0@2@@std@@QAEAAV01@XZ 00414d60 f i BWAPI:GameType.obj
 0001:00013d60       ??F?$_Tree_unchecked_const_iterator@V?$_Tree_val@U?$_Tree_simple_types@VGameType@BWAPI@@@std@@@std@@U_Iterator_base0@2@@std@@QAEAAV01@XZ 00414d60 f i BWAPI:GameType.obj
 0001:00013d60       ??F?$_Tree_unchecked_const_iterator@V?$_Tree_val@U?$_Tree_simple_types@VBulletType@BWAPI@@@std@@@std@@U_Iterator_base0@2@@std@@QAEAAV01@XZ 00414d60 f i BWAPI:BulletType.obj
 0001:00013d60       ??F?$_Tree_unchecked_const_iterator@V?$_Tree_val@U?$_Tree_simple_types@U?$pair@$$CBVUnitType@BWAPI@@H@std@@@std@@@std@@U_Iterator_base0@2@@std@@QAEAAV01@XZ 00414d60 f i BWAPI:UnitType.obj
 0001:00013d60       ??F?$_Tree_unchecked_const_iterator@V?$_Tree_val@U?$_Tree_simple_types@U?$pair@$$CBV?$basic_string@DU?$char_traits@D@std@@V?$allocator@D@2@@std@@VUpgradeType@BWAPI@@@std@@@std@@@std@@U_Iterator_base0@2@@std@@QAEAAV01@XZ 00414d60 f i BWAPI:UpgradeType.obj
 0001:00013d60       ??F?$_Tree_unchecked_const_iterator@V?$_Tree_val@U?$_Tree_simple_types@VError@BWAPI@@@std@@@std@@U_Iterator_base0@2@@std@@QAEAAV01@XZ 00414d60 f i BWAPI:Error.obj
 0001:00013d60       ??F?$_Tree_unchecked_const_iterator@V?$_Tree_val@U?$_Tree_simple_types@U?$pair@$$CBV?$basic_string@DU?$char_traits@D@std@@V?$allocator@D@2@@std@@VError@BWAPI@@@std@@@std@@@std@@U_Iterator_base0@2@@std@@QAEAAV01@XZ 00414d60 f i BWAPI:Error.obj
 0001:00013d60       ??F?$_Tree_unchecked_const_iterator@V?$_Tree_val@U?$_Tree_simple_types@U?$pair@$$CBV?$basic_string@DU?$char_traits@D@std@@V?$allocator@D@2@@std@@VUnitSizeType@BWAPI@@@std@@@std@@@std@@U_Iterator_base0@2@@std@@QAEAAV01@XZ 00414d60 f i BWAPI:UnitSizeType.obj
 0001:00013d60       ??F?$_Tree_unchecked_const_iterator@V?$_Tree_val@U?$_Tree_simple_types@U?$pair@$$CBV?$basic_string@DU?$char_traits@D@std@@V?$allocator@D@2@@std@@VDamageType@BWAPI@@@std@@@std@@@std@@U_Iterator_base0@2@@std@@QAEAAV01@XZ 00414d60 f i BWAPI:DamageType.obj
 0001:00013d60       ??F?$_Tree_unchecked_const_iterator@V?$_Tree_val@U?$_Tree_simple_types@VUnitSizeType@BWAPI@@@std@@@std@@U_Iterator_base0@2@@std@@QAEAAV01@XZ 00414d60 f i BWAPI:UnitSizeType.obj
 0001:00013d60       ??F?$_Tree_unchecked_const_iterator@V?$_Tree_val@U?$_Tree_simple_types@VExplosionType@BWAPI@@@std@@@std@@U_Iterator_base0@2@@std@@QAEAAV01@XZ 00414d60 f i BWAPI:ExplosionType.obj
 0001:00013dc0       ??$_Sort@PAHHVUnitIndexCompare@@@std@@YAXPAH0HVUnitIndexCompare@@@Z 00414dc0 f i SparCraft:GameState.obj
 0001:00013ed0       ??$_Insert_at@ABEU_Nil@std@@@?$_Tree@V?$_Tset_traits@EU?$less@E@std@@V?$allocator@E@2@$0A@@std@@@std@@IAE?AV?$_Tree_const_iterator@V?$_Tree_val@U?$_Tree_simple_types@E@std@@@std@@@1@_NPAU?$_Tree_node@EPAX@1@ABEU_Nil@1@@Z 00414ed0 f i SparCraft:GameState.obj
 0001:000140d0       ??$_Unguarded_partition@PAHVUnitIndexCompare@@@std@@YA?AU?$pair@PAHPAH@0@PAH0VUnitIndexCompare@@@Z 004150d0 f i SparCraft:GameState.obj
 0001:00014620       ??$_Median@PAHVUnitIndexCompare@@@std@@YAXPAH00VUnitIndexCompare@@@Z 00415620 f i SparCraft:GameState.obj
 0001:000146f0       ??$_Make_heap@PAHHHVUnitIndexCompare@@@std@@YAXPAH0VUnitIndexCompare@@00@Z 004156f0 f i SparCraft:GameState.obj
 0001:00014850       ??$_Sort_heap@PAHVUnitIndexCompare@@@std@@YAXPAH0VUnitIndexCompare@@@Z 00415850 f i SparCraft:GameState.obj
 0001:000148b0       ??$_Insertion_sort1@PAHVUnitIndexCompare@@H@std@@YAXPAH0VUnitIndexCompare@@0@Z 004158b0 f i SparCraft:GameState.obj
 0001:00014a60       ??$_Buynode@ABE@?$_Tree_buy@EV?$allocator@E@std@@@std@@QAEPAU?$_Tree_node@EPAX@1@ABE@Z 00415a60 f i SparCraft:GameState.obj
 0001:00014a60       ??$_Buynode@AAE@?$_Tree_buy@EV?$allocator@E@std@@@std@@QAEPAU?$_Tree_node@EPAX@1@AAE@Z 00415a60 f i SparCraft:PortfolioGreedySearch.obj
 0001:00014a80       ?_Buynode0@?$_Tree_buy@EV?$allocator@E@std@@@std@@QAEPAU?$_Tree_node@EPAX@2@XZ 00415a80 f i SparCraft:GameState.obj
 0001:00014ac0       ??$_Med3@PAHVUnitIndexCompare@@@std@@YAXPAH00VUnitIndexCompare@@@Z 00415ac0 f i SparCraft:GameState.obj
 0001:00014bb0       ??$_Adjust_heap@PAHHHVUnitIndexCompare@@@std@@YAXPAHHH$$QAHVUnitIndexCompare@@@Z 00415bb0 f i SparCraft:GameState.obj
 0001:00014ce0       ??$_Push_heap@PAHHHVUnitIndexCompare@@@std@@YAXPAHHH$$QAHVUnitIndexCompare@@@Z 00415ce0 f i SparCraft:GameState.obj
 0001:00014e00       ?getType@Player_AttackWeakest@SparCraft@@UAEEXZ 00415e00 f i SparCraft:Player_AttackWeakest.obj
 0001:00014e10       ?getMoves@Player_AttackWeakest@SparCraft@@UAEXAAVGameState@2@ABVMoveArray@2@AAV?$vector@VUnitAction@SparCraft@@V?$allocator@VUnitAction@SparCraft@@@std@@@std@@@Z 00415e10 f   SparCraft:Player_AttackWeakest.obj
 0001:00015090       ?getType@Player_KiterDPS@SparCraft@@UAEEXZ 00416090 f i SparCraft:Player_KiterDPS.obj
 0001:000150a0       ?getMoves@Player_KiterDPS@SparCraft@@UAEXAAVGameState@2@ABVMoveArray@2@AAV?$vector@VUnitAction@SparCraft@@V?$allocator@VUnitAction@SparCraft@@@std@@@std@@@Z 004160a0 f   SparCraft:Player_KiterDPS.obj
 0001:00015480       ??0UCTSearchResults@SparCraft@@QAE@XZ 00416480 f i SparCraft:Player_UCT.obj
 0001:00015480       ??0IUCTSearchResults@SparCraft@@QAE@XZ 00416480 f i SparCraft:Player_IUCT.obj
 0001:000154f0       ??1UCTNode@SparCraft@@QAE@XZ 004164f0 f i SparCraft:Player_UCT.obj
 0001:000154f0       ??1IUCTNode@SparCraft@@QAE@XZ 004164f0 f i SparCraft:Player_IUCT.obj
 0001:00015530       ?getType@Player_IUCT@SparCraft@@UAEEXZ 00416530 f i SparCraft:Player_IUCT.obj
 0001:00015540       ??0Player_IUCT@SparCraft@@QAE@ABEABVIUCTSearchParameters@1@@Z 00416540 f   SparCraft:Player_IUCT.obj
 0001:000155c0       ??4UCTSearchParameters@SparCraft@@QAEAAV01@ABV01@@Z 004165c0 f i SparCraft:Player_UCT.obj
 0001:000155c0       ??4IUCTSearchParameters@SparCraft@@QAEAAV01@ABV01@@Z 004165c0 f i SparCraft:Player_IUCT.obj
 0001:00015660       ?getMoves@Player_IUCT@SparCraft@@UAEXAAVGameState@2@ABVMoveArray@2@AAV?$vector@VUnitAction@SparCraft@@V?$allocator@VUnitAction@SparCraft@@@std@@@std@@@Z 00416660 f   SparCraft:Player_IUCT.obj
 0001:00015790       ??1IUCTSearch@SparCraft@@QAE@XZ 00416790 f i SparCraft:Player_IUCT.obj
 0001:00015790       ??1UCTSearch@SparCraft@@QAE@XZ 00416790 f i SparCraft:Player_UCT.obj
 0001:000158a0       ??4?$vector@VUnitAction@SparCraft@@V?$allocator@VUnitAction@SparCraft@@@std@@@std@@QAEAAV01@ABV01@@Z 004168a0 f i SparCraft:Player_IUCT.obj
 0001:000159e0       ??1?$vector@VUCTNode@SparCraft@@V?$allocator@VUCTNode@SparCraft@@@std@@@std@@QAE@XZ 004169e0 f i SparCraft:Player_UCT.obj
 0001:000159e0       ??1?$vector@VIUCTNode@SparCraft@@V?$allocator@VIUCTNode@SparCraft@@@std@@@std@@QAE@XZ 004169e0 f i SparCraft:Player_IUCT.obj
 0001:000159f0       ?_Destroy@?$vector@VUCTNode@SparCraft@@V?$allocator@VUCTNode@SparCraft@@@std@@@std@@IAEXPAVUCTNode@SparCraft@@0@Z 004169f0 f i SparCraft:Player_UCT.obj
 0001:000159f0       ?_Destroy@?$vector@VIUCTNode@SparCraft@@V?$allocator@VIUCTNode@SparCraft@@@std@@@std@@IAEXPAVIUCTNode@SparCraft@@0@Z 004169f0 f i SparCraft:Player_IUCT.obj
 0001:00015a20       ?_Tidy@?$vector@VIUCTNode@SparCraft@@V?$allocator@VIUCTNode@SparCraft@@@std@@@std@@IAEXXZ 00416a20 f i SparCraft:Player_IUCT.obj
 0001:00015a20       ?_Tidy@?$vector@VUCTNode@SparCraft@@V?$allocator@VUCTNode@SparCraft@@@std@@@std@@IAEXXZ 00416a20 f i SparCraft:Player_UCT.obj
 0001:00015a70       ??$_Copy_impl@PAVUnitAction@SparCraft@@PAV12@@std@@YAPAVUnitAction@SparCraft@@PAV12@00@Z 00416a70 f i SparCraft:Player_IUCT.obj
 0001:00015aa0       ??$_Ucopy@PAVUnitAction@SparCraft@@@?$vector@VUnitAction@SparCraft@@V?$allocator@VUnitAction@SparCraft@@@std@@@std@@IAEPAVUnitAction@SparCraft@@PAV23@00@Z 00416aa0 f i SparCraft:Player_IUCT.obj
 0001:00015ac0       ??$destroy@VUCTNode@SparCraft@@@?$_Wrap_alloc@V?$allocator@VUCTNode@SparCraft@@@std@@@std@@QAEXPAVUCTNode@SparCraft@@@Z 00416ac0 f i SparCraft:Player_UCT.obj
 0001:00015ac0       ??$destroy@VIUCTNode@SparCraft@@@?$_Wrap_alloc@V?$allocator@VIUCTNode@SparCraft@@@std@@@std@@QAEXPAVIUCTNode@SparCraft@@@Z 00416ac0 f i SparCraft:Player_IUCT.obj
 0001:00015ae0       ??0UnitAction@SparCraft@@QAE@XZ 00416ae0 f i SparCraft:Unit.obj
 0001:00015b00       ??0Unit@SparCraft@@QAE@VUnitType@BWAPI@@ABEABVPosition@1@@Z 00416b00 f   SparCraft:Unit.obj
 0001:00015c00       ??MUnit@SparCraft@@QBE?B_NABV01@@Z 00416c00 f   SparCraft:Unit.obj
 0001:00015c70       ?canAttackTarget@Unit@SparCraft@@QBE?B_NABV12@ABH@Z 00416c70 f   SparCraft:Unit.obj
 0001:00015d00       ?canHealTarget@Unit@SparCraft@@QBE?B_NABV12@ABH@Z 00416d00 f   SparCraft:Unit.obj
 0001:00015d60       ?takeAttack@Unit@SparCraft@@QAEXABV12@@Z 00416d60 f   SparCraft:Unit.obj
 0001:00015f00       ?takeHeal@Unit@SparCraft@@QAEXABV12@@Z 00416f00 f   SparCraft:Unit.obj
 0001:00015f60       ?attack@Unit@SparCraft@@QAEXABVUnitAction@2@ABV12@ABH@Z 00416f60 f   SparCraft:Unit.obj
 0001:00016010       ?move@Unit@SparCraft@@QAEXABVUnitAction@2@ABH@Z 00417010 f   SparCraft:Unit.obj
 0001:000160f0       ?getDistanceSqToUnit@Unit@SparCraft@@QBE?BHABV12@ABH@Z 004170f0 f   SparCraft:Unit.obj
 0001:00016130       ?currentPosition@Unit@SparCraft@@QBEABVPosition@2@ABH@Z 00417130 f   SparCraft:Unit.obj
 0001:000161f0       ?name@Unit@SparCraft@@QBE?BV?$basic_string@DU?$char_traits@D@std@@V?$allocator@D@2@@std@@XZ 004171f0 f   SparCraft:Unit.obj
 0001:00016260       ?calculateHash@Unit@SparCraft@@QBE?BIABIABH@Z 00417260 f   SparCraft:Unit.obj
 0001:000163c0       ??_Gruntime_error@std@@UAEPAXI@Z 004173c0 f i SparCraft:Display.obj
 0001:000163c0       ??_Eruntime_error@std@@UAEPAXI@Z 004173c0 f i * CIL library *:* CIL module *
 0001:000163e0       ??1runtime_error@std@@UAE@XZ 004173e0 f i SparCraft:Display.obj
 0001:000163f0       ??0runtime_error@std@@QAE@ABV01@@Z 004173f0 f i SparCraft:Display.obj
 0001:00016410       ?getRGBATexture@Map@SparCraft@@QAEPAIXZ 00417410 f i SparCraft:Display.obj
 0001:00016500       ??0Display@SparCraft@@QAE@HH@Z 00417500 f   SparCraft:Display.obj
 0001:00016710       ?OnStart@Display@SparCraft@@QAEXXZ 00417710 f   SparCraft:Display.obj
 0001:000168a0       ??4GameState@SparCraft@@QAEAAV01@ABV01@@Z 004178a0 f i SparCraft:Display.obj
 0001:00016a00       ?HandleEvents@Display@SparCraft@@AAEXXZ 00417a00 f   SparCraft:Display.obj
 0001:00016c20       ?RenderMainMap@Display@SparCraft@@AAEXXZ 00417c20 f   SparCraft:Display.obj
 0001:00016d20       ?RenderMinimap@Display@SparCraft@@AAEXXZ 00417d20 f   SparCraft:Display.obj
 0001:00016ee0       ?DrawSearchResults@Display@SparCraft@@AAEXHH@Z 00417ee0 f   SparCraft:Display.obj
 0001:00017280       ?DrawParameters@Display@SparCraft@@AAEXHH@Z 00418280 f   SparCraft:Display.obj
 0001:00017620       ?DrawExperiment@Display@SparCraft@@AAEXHH@Z 00418620 f   SparCraft:Display.obj
 0001:00017860       ?RenderInformation@Display@SparCraft@@AAEXXZ 00418860 f   SparCraft:Display.obj
 0001:00017d50       ?RenderTerrain@Display@SparCraft@@AAEXHHHH@Z 00418d50 f   SparCraft:Display.obj
 0001:00018000       ?RenderUnits@Display@SparCraft@@AAEXXZ 00419000 f   SparCraft:Display.obj
 0001:000180d0       ?RenderUnit@Display@SparCraft@@AAEXABVUnit@2@@Z 004190d0 f   SparCraft:Display.obj
 0001:000187c0       ?DrawTextW@Display@SparCraft@@AAEXABH00ABV?$basic_string@DU?$char_traits@D@std@@V?$allocator@D@2@@std@@@Z 004197c0 f   SparCraft:Display.obj
 0001:00018880       ?LoadTextures@Display@SparCraft@@AAEXXZ 00419880 f   SparCraft:Display.obj
 0001:00018b10       ?LoadTexture@Display@SparCraft@@AAEXHPBD@Z 00419b10 f   SparCraft:Display.obj
 0001:00018c70       ?LoadMapTexture@Display@SparCraft@@QAEXPAVMap@2@H@Z 00419c70 f   SparCraft:Display.obj
 0001:00018cf0       ?OnRender@Shape@SparCraft@@QBEXXZ 00419cf0 f   SparCraft:Display.obj
 0001:00018d90       ?getTextureFileName@Display@SparCraft@@ABE?BV?$basic_string@DU?$char_traits@D@std@@V?$allocator@D@2@@std@@VUnitType@BWAPI@@@Z 00419d90 f   SparCraft:Display.obj
 0001:00019020       ??4?$Array2D@VUnit@SparCraft@@$01$0DC@@SparCraft@@QAEAAV01@ABV01@@Z 0041a020 f i SparCraft:Display.obj
 0001:00019110       ??1?$vector@UShape@SparCraft@@V?$allocator@UShape@SparCraft@@@std@@@std@@QAE@XZ 0041a110 f i SparCraft:Display.obj
 0001:00019150       ??1?$vector@UTextElement@SparCraft@@V?$allocator@UTextElement@SparCraft@@@std@@@std@@QAE@XZ 0041a150 f i SparCraft:Display.obj
 0001:00019190       ?resize@?$vector@VPosition@SparCraft@@V?$allocator@VPosition@SparCraft@@@std@@@std@@QAEXI@Z 0041a190 f i SparCraft:Display.obj
 0001:00019200       ?resize@?$vector@IV?$allocator@I@std@@@std@@QAEXI@Z 0041a200 f i SparCraft:Display.obj
 0001:00019290       ?erase@?$vector@VPosition@SparCraft@@V?$allocator@VPosition@SparCraft@@@std@@@std@@QAE?AV?$_Vector_iterator@V?$_Vector_val@U?$_Simple_types@VPosition@SparCraft@@@std@@@std@@@2@V?$_Vector_const_iterator@V?$_Vector_val@U?$_Simple_types@VPosition@SparCraft@@@std@@@std@@@2@0@Z 0041a290 f i SparCraft:Display.obj
 0001:000192f0       ?_Reserve@?$vector@VPosition@SparCraft@@V?$allocator@VPosition@SparCraft@@@std@@@std@@IAEXI@Z 0041a2f0 f i SparCraft:Display.obj
 0001:00019370       ?_Destroy@?$vector@UShape@SparCraft@@V?$allocator@UShape@SparCraft@@@std@@@std@@IAEXPAUShape@SparCraft@@0@Z 0041a370 f i SparCraft:Display.obj
 0001:000193c0       ?_Reserve@?$vector@IV?$allocator@I@std@@@std@@IAEXI@Z 0041a3c0 f i SparCraft:Display.obj
 0001:00019440       ?_Reallocate@?$vector@VPosition@SparCraft@@V?$allocator@VPosition@SparCraft@@@std@@@std@@IAEXI@Z 0041a440 f i SparCraft:Display.obj
 0001:000194c0       ??D?$_Tree_const_iterator@V?$_Tree_val@U?$_Tree_simple_types@VUpgradeType@BWAPI@@@std@@@std@@@std@@QBEABVUpgradeType@BWAPI@@XZ 0041a4c0 f i BWAPI:UnitType.obj
 0001:000194c0       ??D?$_Tree_const_iterator@V?$_Tree_val@U?$_Tree_simple_types@VWeaponType@BWAPI@@@std@@@std@@@std@@QBEABVWeaponType@BWAPI@@XZ 0041a4c0 f i SparCraft:WeaponProperties.obj
 0001:000194c0       ??D?$_Tree_const_iterator@V?$_Tree_val@U?$_Tree_simple_types@VOrder@BWAPI@@@std@@@std@@@std@@QBEABVOrder@BWAPI@@XZ 0041a4c0 f i BWAPI:Order.obj
 0001:000194c0       ??D?$_Tree_const_iterator@V?$_Tree_val@U?$_Tree_simple_types@VUnitType@BWAPI@@@std@@@std@@@std@@QBEABVUnitType@BWAPI@@XZ 0041a4c0 f i SparCraft:Display.obj
 0001:000194d0       ??E?$_Tree_const_iterator@V?$_Tree_val@U?$_Tree_simple_types@VUnitType@BWAPI@@@std@@@std@@@std@@QAEAAV01@XZ 0041a4d0 f i SparCraft:Display.obj
 0001:000194d0       ??E?$_Tree_const_iterator@V?$_Tree_val@U?$_Tree_simple_types@VUpgradeType@BWAPI@@@std@@@std@@@std@@QAEAAV01@XZ 0041a4d0 f i BWAPI:UnitType.obj
 0001:000194d0       ??E?$_Tree_const_iterator@V?$_Tree_val@U?$_Tree_simple_types@VWeaponType@BWAPI@@@std@@@std@@@std@@QAEAAV01@XZ 0041a4d0 f i SparCraft:WeaponProperties.obj
 0001:000194d0       ??E?$_Tree_const_iterator@V?$_Tree_val@U?$_Tree_simple_types@VOrder@BWAPI@@@std@@@std@@@std@@QAEAAV01@XZ 0041a4d0 f i BWAPI:Order.obj
 0001:000194e0       ??$_Uninit_def_fill_n@PAVPosition@SparCraft@@IV?$allocator@VPosition@SparCraft@@@std@@V12@@std@@YAXPAVPosition@SparCraft@@IAAU?$_Wrap_alloc@V?$allocator@VPosition@SparCraft@@@std@@@0@0U_Nonscalar_ptr_iterator_tag@0@@Z 0041a4e0 f i SparCraft:Display.obj
 0001:00019500       ??$_Destroy_range@U?$_Wrap_alloc@V?$allocator@UTextElement@SparCraft@@@std@@@std@@@std@@YAXPAUTextElement@SparCraft@@0AAU?$_Wrap_alloc@V?$allocator@UTextElement@SparCraft@@@std@@@0@U_Nonscalar_ptr_iterator_tag@0@@Z 0041a500 f i SparCraft:Display.obj
 0001:00019540       ??$_Uninit_move@PAVPosition@SparCraft@@PAV12@V?$allocator@VPosition@SparCraft@@@std@@V12@@std@@YAPAVPosition@SparCraft@@PAV12@00AAU?$_Wrap_alloc@V?$allocator@VPosition@SparCraft@@@std@@@0@0U_Nonscalar_ptr_iterator_tag@0@@Z 0041a540 f i SparCraft:Display.obj
 0001:00019570       ?begin@?$_Tree@V?$_Tset_traits@VUnitType@BWAPI@@U?$less@VUnitType@BWAPI@@@std@@V?$allocator@VUnitType@BWAPI@@@4@$0A@@std@@@std@@QAE?AV?$_Tree_const_iterator@V?$_Tree_val@U?$_Tree_simple_types@VUnitType@BWAPI@@@std@@@std@@@2@XZ 0041a570 f i SparCraft:Display.obj
 0001:00019570       ?begin@?$_Tree@V?$_Tset_traits@VUpgradeType@BWAPI@@U?$less@VUpgradeType@BWAPI@@@std@@V?$allocator@VUpgradeType@BWAPI@@@4@$0A@@std@@@std@@QAE?AV?$_Tree_const_iterator@V?$_Tree_val@U?$_Tree_simple_types@VUpgradeType@BWAPI@@@std@@@std@@@2@XZ 0041a570 f i BWAPI:UnitType.obj
 0001:00019570       ?begin@?$_Tree@V?$_Tset_traits@VWeaponType@BWAPI@@U?$less@VWeaponType@BWAPI@@@std@@V?$allocator@VWeaponType@BWAPI@@@4@$0A@@std@@@std@@QAE?AV?$_Tree_const_iterator@V?$_Tree_val@U?$_Tree_simple_types@VWeaponType@BWAPI@@@std@@@std@@@2@XZ 0041a570 f i SparCraft:WeaponProperties.obj
 0001:00019570       ?begin@?$_Tree@V?$_Tset_traits@VUnitType@BWAPI@@U?$less@VUnitType@BWAPI@@@std@@V?$allocator@VUnitType@BWAPI@@@4@$0A@@std@@@std@@QBE?AV?$_Tree_const_iterator@V?$_Tree_val@U?$_Tree_simple_types@VUnitType@BWAPI@@@std@@@std@@@2@XZ 0041a570 f i BWAPI:UnitType.obj
 0001:00019580       ?end@?$_Tree@V?$_Tset_traits@VUnitType@BWAPI@@U?$less@VUnitType@BWAPI@@@std@@V?$allocator@VUnitType@BWAPI@@@4@$0A@@std@@@std@@QAE?AV?$_Tree_const_iterator@V?$_Tree_val@U?$_Tree_simple_types@VUnitType@BWAPI@@@std@@@std@@@2@XZ 0041a580 f i SparCraft:Display.obj
 0001:00019580       ?end@?$_Tree@V?$_Tset_traits@VUnitType@BWAPI@@U?$less@VUnitType@BWAPI@@@std@@V?$allocator@VUnitType@BWAPI@@@4@$0A@@std@@@std@@QBE?AV?$_Tree_const_iterator@V?$_Tree_val@U?$_Tree_simple_types@VUnitType@BWAPI@@@std@@@std@@@2@XZ 0041a580 f i BWAPI:UnitType.obj
 0001:00019580       ?end@?$_Tree@V?$_Tset_traits@VUpgradeType@BWAPI@@U?$less@VUpgradeType@BWAPI@@@std@@V?$allocator@VUpgradeType@BWAPI@@@4@$0A@@std@@@std@@QAE?AV?$_Tree_const_iterator@V?$_Tree_val@U?$_Tree_simple_types@VUpgradeType@BWAPI@@@std@@@std@@@2@XZ 0041a580 f i BWAPI:UnitType.obj
 0001:00019580       ?end@?$_Tree@V?$_Tset_traits@VWeaponType@BWAPI@@U?$less@VWeaponType@BWAPI@@@std@@V?$allocator@VWeaponType@BWAPI@@@4@$0A@@std@@@std@@QAE?AV?$_Tree_const_iterator@V?$_Tree_val@U?$_Tree_simple_types@VWeaponType@BWAPI@@@std@@@std@@@2@XZ 0041a580 f i SparCraft:WeaponProperties.obj
 0001:00019590       ?getType@Player_Cluster@SparCraft@@UAEEXZ 0041a590 f i SparCraft:Player_Cluster.obj
 0001:000195a0       ?getMoves@Player_Cluster@SparCraft@@UAEXAAVGameState@2@ABVMoveArray@2@AAV?$vector@VUnitAction@SparCraft@@V?$allocator@VUnitAction@SparCraft@@@std@@@std@@@Z 0041a5a0 f   SparCraft:Player_Cluster.obj
 0001:000197c0       ?getType@Player_PortfolioGreedySearch@SparCraft@@UAEEXZ 0041a7c0 f i SparCraft:Player_PortfolioGreedySearch.obj
 0001:000197d0       ?getMoves@Player_PortfolioGreedySearch@SparCraft@@UAEXAAVGameState@2@ABVMoveArray@2@AAV?$vector@VUnitAction@SparCraft@@V?$allocator@VUnitAction@SparCraft@@@std@@@std@@@Z 0041a7d0 f   SparCraft:Player_PortfolioGreedySearch.obj
 0001:000198c0       ??1PortfolioGreedySearch@SparCraft@@QAE@XZ 0041a8c0 f i SparCraft:Player_PortfolioGreedySearch.obj
 0001:000198f0       ??0TTBestMove@SparCraft@@QAE@XZ 0041a8f0 f i SparCraft:TranspositionTable.obj
 0001:00019930       ??0TTEntry@SparCraft@@QAE@ABIABVStateEvalScore@1@0ABHABEABVAlphaBetaMove@1@4@Z 0041a930 f   SparCraft:TranspositionTable.obj
 0001:00019a50       ??0TranspositionTable@SparCraft@@QAE@XZ 0041aa50 f   SparCraft:TranspositionTable.obj
 0001:00019b70       ?getSaveIndex@TranspositionTable@SparCraft@@QBE?BIABI00@Z 0041ab70 f   SparCraft:TranspositionTable.obj
 0001:00019c50       ?save@TranspositionTable@SparCraft@@QAEXABI0ABVStateEvalScore@2@0ABHABEABVAlphaBetaMove@2@4@Z 0041ac50 f   SparCraft:TranspositionTable.obj
 0001:00019e10       ??4TTEntry@SparCraft@@QAEAAV01@ABV01@@Z 0041ae10 f i SparCraft:TranspositionTable.obj
 0001:00019e90       ??0TTBestMove@SparCraft@@QAE@ABV01@@Z 0041ae90 f i SparCraft:TranspositionTable.obj
 0001:00019f00       ?lookupScan@TranspositionTable@SparCraft@@QAEPAVTTEntry@2@ABI0@Z 0041af00 f   SparCraft:TranspositionTable.obj
 0001:00019f80       ?lookup@TranspositionTable@SparCraft@@QAEPAVTTEntry@2@ABI0@Z 0041af80 f   SparCraft:TranspositionTable.obj
 0001:0001a040       ??0?$vector@VUnitAction@SparCraft@@V?$allocator@VUnitAction@SparCraft@@@std@@@std@@QAE@ABV01@@Z 0041b040 f i SparCraft:TranspositionTable.obj
 0001:0001a0a0       ?_Construct_n@?$vector@VTTEntry@SparCraft@@V?$allocator@VTTEntry@SparCraft@@@std@@@std@@QAEXIPBVTTEntry@SparCraft@@@Z 0041b0a0 f i SparCraft:TranspositionTable.obj
 0001:0001a150       ??$_Uninit_fill_n@PAVTTEntry@SparCraft@@IV12@V?$allocator@VTTEntry@SparCraft@@@std@@V12@@std@@YAXPAVTTEntry@SparCraft@@IPBV12@AAU?$_Wrap_alloc@V?$allocator@VTTEntry@SparCraft@@@std@@@0@0U_Nonscalar_ptr_iterator_tag@0@@Z 0041b150 f i SparCraft:TranspositionTable.obj
 0001:0001a230       ?getType@Player_Random@SparCraft@@UAEEXZ 0041b230 f i SparCraft:Player_Random.obj
 0001:0001a240       ??0Player_Random@SparCraft@@QAE@ABE@Z 0041b240 f   SparCraft:Player_Random.obj
 0001:0001a2b0       ?getMoves@Player_Random@SparCraft@@UAEXAAVGameState@2@ABVMoveArray@2@AAV?$vector@VUnitAction@SparCraft@@V?$allocator@VUnitAction@SparCraft@@@std@@@std@@@Z 0041b2b0 f   SparCraft:Player_Random.obj
 0001:0001a340       ?getType@Player_AttackDPS@SparCraft@@UAEEXZ 0041b340 f i SparCraft:Player_AttackDPS.obj
 0001:0001a350       ?getMoves@Player_AttackDPS@SparCraft@@UAEXAAVGameState@2@ABVMoveArray@2@AAV?$vector@VUnitAction@SparCraft@@V?$allocator@VUnitAction@SparCraft@@@std@@@std@@@Z 0041b350 f   SparCraft:Player_AttackDPS.obj
 0001:0001a770       ?getType@Player_Kiter@SparCraft@@UAEEXZ 0041b770 f i SparCraft:Player_Kiter.obj
 0001:0001a780       ?getMoves@Player_Kiter@SparCraft@@UAEXAAVGameState@2@ABVMoveArray@2@AAV?$vector@VUnitAction@SparCraft@@V?$allocator@VUnitAction@SparCraft@@@std@@@std@@@Z 0041b780 f   SparCraft:Player_Kiter.obj
 0001:0001aad0       ?getDescription@AlphaBetaSearchResults@SparCraft@@QAEAAV?$vector@V?$vector@V?$basic_string@DU?$char_traits@D@std@@V?$allocator@D@2@@std@@V?$allocator@V?$basic_string@DU?$char_traits@D@std@@V?$allocator@D@2@@std@@@2@@std@@V?$allocator@V?$vector@V?$basic_string@DU?$char_traits@D@std@@V?$allocator@D@2@@std@@V?$allocator@V?$basic_string@DU?$char_traits@D@std@@V?$allocator@D@2@@std@@@2@@std@@@2@@std@@XZ 0041bad0 f i SparCraft:Game.obj
 0001:0001aee0       ?getDescription@AlphaBetaSearchParameters@SparCraft@@QAEAAV?$vector@V?$vector@V?$basic_string@DU?$char_traits@D@std@@V?$allocator@D@2@@std@@V?$allocator@V?$basic_string@DU?$char_traits@D@std@@V?$allocator@D@2@@std@@@2@@std@@V?$allocator@V?$vector@V?$basic_string@DU?$char_traits@D@std@@V?$allocator@D@2@@std@@V?$allocator@V?$basic_string@DU?$char_traits@D@std@@V?$allocator@D@2@@std@@@2@@std@@@2@@std@@XZ 0041bee0 f i SparCraft:Game.obj
 0001:0001b5c0       ?getDescription@UCTSearchParameters@SparCraft@@QAEAAV?$vector@V?$vector@V?$basic_string@DU?$char_traits@D@std@@V?$allocator@D@2@@std@@V?$allocator@V?$basic_string@DU?$char_traits@D@std@@V?$allocator@D@2@@std@@@2@@std@@V?$allocator@V?$vector@V?$basic_string@DU?$char_traits@D@std@@V?$allocator@D@2@@std@@V?$allocator@V?$basic_string@DU?$char_traits@D@std@@V?$allocator@D@2@@std@@@2@@std@@@2@@std@@XZ 0041c5c0 f i SparCraft:Game.obj
 0001:0001be00       ?getDescription@UCTSearchResults@SparCraft@@QAEAAV?$vector@V?$vector@V?$basic_string@DU?$char_traits@D@std@@V?$allocator@D@2@@std@@V?$allocator@V?$basic_string@DU?$char_traits@D@std@@V?$allocator@D@2@@std@@@2@@std@@V?$allocator@V?$vector@V?$basic_string@DU?$char_traits@D@std@@V?$allocator@D@2@@std@@V?$allocator@V?$basic_string@DU?$char_traits@D@std@@V?$allocator@D@2@@std@@@2@@std@@@2@@std@@XZ 0041ce00 f i SparCraft:Game.obj
 0001:0001c310       ??0Game@SparCraft@@QAE@ABVGameState@1@ABI@Z 0041d310 f   SparCraft:Game.obj
 0001:0001c420       ??0Game@SparCraft@@QAE@ABVGameState@1@AAV?$shared_ptr@VPlayer@SparCraft@@@boost@@1ABI@Z 0041d420 f   SparCraft:Game.obj
 0001:0001c5d0       ?play@Game@SparCraft@@QAEXXZ 0041d5d0 f   SparCraft:Game.obj
 0001:0001cb10       ?playIndividualScripts@Game@SparCraft@@QAEXAAVUnitScriptData@2@@Z 0041db10 f   SparCraft:Game.obj
 0001:0001cf80       ??1?$Array2D@V?$vector@VUnitAction@SparCraft@@V?$allocator@VUnitAction@SparCraft@@@std@@@std@@$01$0O@@SparCraft@@QAE@XZ 0041df80 f i SparCraft:Game.obj
 0001:0001cfa0       ??1?$Array@V?$vector@VUnitAction@SparCraft@@V?$allocator@VUnitAction@SparCraft@@@std@@@std@@$0O@@SparCraft@@QAE@XZ 0041dfa0 f i SparCraft:Game.obj
 0001:0001cfc0       ?getPlayerToMove@Game@SparCraft@@QAE?BEXZ 0041dfc0 f   SparCraft:Game.obj
 0001:0001d020       ?getName@?$EnumData@VMoveOrderMethod@SparCraft@@@SparCraft@@SAABV?$basic_string@DU?$char_traits@D@std@@V?$allocator@D@2@@std@@ABE@Z 0041e020 f i SparCraft:Game.obj
 0001:0001d140       ?getName@?$EnumData@VPlayerToMove@SparCraft@@@SparCraft@@SAABV?$basic_string@DU?$char_traits@D@std@@V?$allocator@D@2@@std@@ABE@Z 0041e140 f i SparCraft:Game.obj
 0001:0001d260       ?push_back@?$vector@V?$vector@V?$basic_string@DU?$char_traits@D@std@@V?$allocator@D@2@@std@@V?$allocator@V?$basic_string@DU?$char_traits@D@std@@V?$allocator@D@2@@std@@@2@@std@@V?$allocator@V?$vector@V?$basic_string@DU?$char_traits@D@std@@V?$allocator@D@2@@std@@V?$allocator@V?$basic_string@DU?$char_traits@D@std@@V?$allocator@D@2@@std@@@2@@std@@@2@@std@@QAEX$$QAV?$vector@V?$basic_string@DU?$char_traits@D@std@@V?$allocator@D@2@@std@@V?$allocator@V?$basic_string@DU?$char_traits@D@std@@V?$allocator@D@2@@std@@@2@@2@@Z 0041e260 f i SparCraft:Game.obj
 0001:0001d340       ??0?$shared_ptr@VPlayer@SparCraft@@@boost@@QAE@XZ 0041e340 f i SparCraft:Game.obj
 0001:0001d350       ?resize@?$vector@VUnitAction@SparCraft@@V?$allocator@VUnitAction@SparCraft@@@std@@@std@@QAEXI@Z 0041e350 f i SparCraft:Game.obj
 0001:0001d400       ?_Reserve@?$vector@V?$vector@V?$basic_string@DU?$char_traits@D@std@@V?$allocator@D@2@@std@@V?$allocator@V?$basic_string@DU?$char_traits@D@std@@V?$allocator@D@2@@std@@@2@@std@@V?$allocator@V?$vector@V?$basic_string@DU?$char_traits@D@std@@V?$allocator@D@2@@std@@V?$allocator@V?$basic_string@DU?$char_traits@D@std@@V?$allocator@D@2@@std@@@2@@std@@@2@@std@@IAEXI@Z 0041e400 f i SparCraft:Game.obj
 0001:0001d4a0       ?_Reallocate@?$vector@V?$vector@V?$basic_string@DU?$char_traits@D@std@@V?$allocator@D@2@@std@@V?$allocator@V?$basic_string@DU?$char_traits@D@std@@V?$allocator@D@2@@std@@@2@@std@@V?$allocator@V?$vector@V?$basic_string@DU?$char_traits@D@std@@V?$allocator@D@2@@std@@V?$allocator@V?$basic_string@DU?$char_traits@D@std@@V?$allocator@D@2@@std@@@2@@std@@@2@@std@@IAEXI@Z 0041e4a0 f i SparCraft:Game.obj
 0001:0001d540       ??0?$Array@V?$vector@VUnitAction@SparCraft@@V?$allocator@VUnitAction@SparCraft@@@std@@@std@@$0O@@SparCraft@@QAE@XZ 0041e540 f i SparCraft:Game.obj
 0001:0001d570       ??$_Uninit_def_fill_n@PAVUnitAction@SparCraft@@IV?$allocator@VUnitAction@SparCraft@@@std@@V12@@std@@YAXPAVUnitAction@SparCraft@@IAAU?$_Wrap_alloc@V?$allocator@VUnitAction@SparCraft@@@std@@@0@0U_Nonscalar_ptr_iterator_tag@0@@Z 0041e570 f i SparCraft:Game.obj
 0001:0001d5a0       ??$_Uninit_move@PAV?$vector@V?$basic_string@DU?$char_traits@D@std@@V?$allocator@D@2@@std@@V?$allocator@V?$basic_string@DU?$char_traits@D@std@@V?$allocator@D@2@@std@@@2@@std@@PAV12@V?$allocator@V?$vector@V?$basic_string@DU?$char_traits@D@std@@V?$allocator@D@2@@std@@V?$allocator@V?$basic_string@DU?$char_traits@D@std@@V?$allocator@D@2@@std@@@2@@std@@@2@V12@@std@@YAPAV?$vector@V?$basic_string@DU?$char_traits@D@std@@V?$allocator@D@2@@std@@V?$allocator@V?$basic_string@DU?$char_traits@D@std@@V?$allocator@D@2@@std@@@2@@0@PAV10@00AAU?$_Wrap_alloc@V?$allocator@V?$vector@V?$basic_string@DU?$char_traits@D@std@@V?$allocator@D@2@@std@@V?$allocator@V?$basic_string@DU?$char_traits@D@std@@V?$allocator@D@2@@std@@@2@@std@@@std@@@0@0U_Nonscalar_ptr_iterator_tag@0@@Z 0041e5a0 f i SparCraft:Game.obj
 0001:0001d600       ?getType@Player_UCT@SparCraft@@UAEEXZ 0041e600 f i SparCraft:Player_UCT.obj
 0001:0001d610       ??0Player_UCT@SparCraft@@QAE@ABEABVUCTSearchParameters@1@@Z 0041e610 f   SparCraft:Player_UCT.obj
 0001:0001d690       ?getMoves@Player_UCT@SparCraft@@UAEXAAVGameState@2@ABVMoveArray@2@AAV?$vector@VUnitAction@SparCraft@@V?$allocator@VUnitAction@SparCraft@@@std@@@std@@@Z 0041e690 f   SparCraft:Player_UCT.obj
 0001:0001d7c0       ?getType@Player_NOKDPS@SparCraft@@UAEEXZ 0041e7c0 f i SparCraft:Player_NOKDPS.obj
 0001:0001d7d0       ?getMoves@Player_NOKDPS@SparCraft@@UAEXAAVGameState@2@ABVMoveArray@2@AAV?$vector@VUnitAction@SparCraft@@V?$allocator@VUnitAction@SparCraft@@@std@@@std@@@Z 0041e7d0 f   SparCraft:Player_NOKDPS.obj
 0001:0001dd90       ??0MoveArray@SparCraft@@QAE@I@Z 0041ed90 f   SparCraft:MoveArray.obj
 0001:0001de50       ?shuffleMoveActions@MoveArray@SparCraft@@QAEXXZ 0041ee50 f   SparCraft:MoveArray.obj
 0001:0001df70       ?incrementMove@MoveArray@SparCraft@@QAEXABI@Z 0041ef70 f   SparCraft:MoveArray.obj
 0001:0001e000       ?resetMoveIterator@MoveArray@SparCraft@@QAEXXZ 0041f000 f   SparCraft:MoveArray.obj
 0001:0001e080       ?getNextMoveVec@MoveArray@SparCraft@@QAEXAAV?$vector@VUnitAction@SparCraft@@V?$allocator@VUnitAction@SparCraft@@@std@@@std@@@Z 0041f080 f   SparCraft:MoveArray.obj
 0001:0001e0e0       ?add@MoveArray@SparCraft@@QAEXABVUnitAction@2@@Z 0041f0e0 f   SparCraft:MoveArray.obj
 0001:0001e160       ??0?$Array@VUnitAction@SparCraft@@$0DC@@SparCraft@@QAE@XZ 0041f160 f i SparCraft:MoveArray.obj
 0001:0001e1a0       ??0?$Array@V?$Array@VUnitAction@SparCraft@@$0DH@@SparCraft@@$0DC@@SparCraft@@QAE@XZ 0041f1a0 f i SparCraft:MoveArray.obj
 0001:0001e1f0       ??$_Insert@PAVUnitAction@SparCraft@@@?$vector@VUnitAction@SparCraft@@V?$allocator@VUnitAction@SparCraft@@@std@@@std@@QAEXV?$_Vector_const_iterator@V?$_Vector_val@U?$_Simple_types@VUnitAction@SparCraft@@@std@@@std@@@1@PAVUnitAction@SparCraft@@1Uforward_iterator_tag@1@@Z 0041f1f0 f i SparCraft:MoveArray.obj
 0001:0001e340       ??$_Random_shuffle@PAVUnitAction@SparCraft@@V?$_Rng_from_urng@HU_Rand_urng_from_func@std@@@std@@H@std@@YAXPAVUnitAction@SparCraft@@0AAV?$_Rng_from_urng@HU_Rand_urng_from_func@std@@@0@PAH@Z 0041f340 f i SparCraft:MoveArray.obj
 0001:0001e410       ?Init@UnitProperties@SparCraft@@SAXXZ 0041f410 f   SparCraft:UnitProperties.obj
 0001:0001e820       ?init@Players@SparCraft@@SAXXZ 0041f820 f i SparCraft:EnumData.obj
 0001:0001ea40       ?init@SearchMethods@SparCraft@@SAXXZ 0041fa40 f i SparCraft:EnumData.obj
 0001:0001ec00       ?init@PlayerModels@SparCraft@@SAXXZ 0041fc00 f i SparCraft:EnumData.obj
 0001:0001f140       ?init@EvaluationMethods@SparCraft@@SAXXZ 00420140 f i SparCraft:EnumData.obj
 0001:0001f300       ?init@SearchNodeType@SparCraft@@SAXXZ 00420300 f i SparCraft:EnumData.obj
 0001:0001f570       ?init@MoveOrderMethod@SparCraft@@SAXXZ 00420570 f i SparCraft:EnumData.obj
 0001:0001f6e0       ?init@PlayerToMove@SparCraft@@SAXXZ 004206e0 f i SparCraft:EnumData.obj
 0001:0001f8a0       ?resize@?$vector@V?$basic_string@DU?$char_traits@D@std@@V?$allocator@D@2@@std@@V?$allocator@V?$basic_string@DU?$char_traits@D@std@@V?$allocator@D@2@@std@@@2@@std@@QAEXI@Z 004208a0 f i SparCraft:EnumData.obj
 0001:0001f950       ?setData@?$EnumData@VPlayers@SparCraft@@@SparCraft@@SAXABHABV?$basic_string@DU?$char_traits@D@std@@V?$allocator@D@2@@std@@@Z 00420950 f i SparCraft:EnumData.obj
 0001:0001fa90       ?setData@?$EnumData@VSearchMethods@SparCraft@@@SparCraft@@SAXABHABV?$basic_string@DU?$char_traits@D@std@@V?$allocator@D@2@@std@@@Z 00420a90 f i SparCraft:EnumData.obj
 0001:0001fbd0       ?setData@?$EnumData@VPlayerModels@SparCraft@@@SparCraft@@SAXABHABV?$basic_string@DU?$char_traits@D@std@@V?$allocator@D@2@@std@@@Z 00420bd0 f i SparCraft:EnumData.obj
 0001:0001fd10       ?setData@?$EnumData@VEvaluationMethods@SparCraft@@@SparCraft@@SAXABHABV?$basic_string@DU?$char_traits@D@std@@V?$allocator@D@2@@std@@@Z 00420d10 f i SparCraft:EnumData.obj
 0001:0001fe50       ?setData@?$EnumData@VSearchNodeType@SparCraft@@@SparCraft@@SAXABHABV?$basic_string@DU?$char_traits@D@std@@V?$allocator@D@2@@std@@@Z 00420e50 f i SparCraft:EnumData.obj
 0001:0001ff90       ?setData@?$EnumData@VMoveOrderMethod@SparCraft@@@SparCraft@@SAXABHABV?$basic_string@DU?$char_traits@D@std@@V?$allocator@D@2@@std@@@Z 00420f90 f i SparCraft:EnumData.obj
 0001:000200d0       ?setData@?$EnumData@VPlayerToMove@SparCraft@@@SparCraft@@SAXABHABV?$basic_string@DU?$char_traits@D@std@@V?$allocator@D@2@@std@@@Z 004210d0 f i SparCraft:EnumData.obj
 0001:00020210       ?erase@?$vector@V?$basic_string@DU?$char_traits@D@std@@V?$allocator@D@2@@std@@V?$allocator@V?$basic_string@DU?$char_traits@D@std@@V?$allocator@D@2@@std@@@2@@std@@QAE?AV?$_Vector_iterator@V?$_Vector_val@U?$_Simple_types@V?$basic_string@DU?$char_traits@D@std@@V?$allocator@D@2@@std@@@std@@@std@@@2@V?$_Vector_const_iterator@V?$_Vector_val@U?$_Simple_types@V?$basic_string@DU?$char_traits@D@std@@V?$allocator@D@2@@std@@@std@@@std@@@2@0@Z 00421210 f i SparCraft:EnumData.obj
 0001:00020290       ??A?$map@V?$basic_string@DU?$char_traits@D@std@@V?$allocator@D@2@@std@@HU?$less@V?$basic_string@DU?$char_traits@D@std@@V?$allocator@D@2@@std@@@2@V?$allocator@U?$pair@$$CBV?$basic_string@DU?$char_traits@D@std@@V?$allocator@D@2@@std@@H@std@@@2@@std@@QAEAAHABV?$basic_string@DU?$char_traits@D@std@@V?$allocator@D@2@@1@@Z 00421290 f i SparCraft:EnumData.obj
 0001:000203c0       ??$_Uninit_def_fill_n@PAV?$basic_string@DU?$char_traits@D@std@@V?$allocator@D@2@@std@@IV?$allocator@V?$basic_string@DU?$char_traits@D@std@@V?$allocator@D@2@@std@@@2@V12@@std@@YAXPAV?$basic_string@DU?$char_traits@D@std@@V?$allocator@D@2@@0@IAAU?$_Wrap_alloc@V?$allocator@V?$basic_string@DU?$char_traits@D@std@@V?$allocator@D@2@@std@@@std@@@0@0U_Nonscalar_ptr_iterator_tag@0@@Z 004213c0 f i SparCraft:EnumData.obj
 0001:000203e0       ??$_Move@PAV?$basic_string@DU?$char_traits@D@std@@V?$allocator@D@2@@std@@PAV12@@std@@YAPAV?$basic_string@DU?$char_traits@D@std@@V?$allocator@D@2@@0@PAV10@00U_Nonscalar_ptr_iterator_tag@0@@Z 004213e0 f i SparCraft:EnumData.obj
 0001:00020480       ??$_Buynode@U?$pair@V?$basic_string@DU?$char_traits@D@std@@V?$allocator@D@2@@std@@H@std@@@?$_Tree_buy@U?$pair@$$CBV?$basic_string@DU?$char_traits@D@std@@V?$allocator@D@2@@std@@H@std@@V?$allocator@U?$pair@$$CBV?$basic_string@DU?$char_traits@D@std@@V?$allocator@D@2@@std@@H@std@@@2@@std@@QAEPAU?$_Tree_node@U?$pair@$$CBV?$basic_string@DU?$char_traits@D@std@@V?$allocator@D@2@@std@@H@std@@PAX@1@$$QAU?$pair@V?$basic_string@DU?$char_traits@D@std@@V?$allocator@D@2@@std@@H@1@@Z 00421480 f i SparCraft:EnumData.obj
 0001:000204c0       ??$_Insert_hint@AAU?$pair@$$CBV?$basic_string@DU?$char_traits@D@std@@V?$allocator@D@2@@std@@H@std@@PAU?$_Tree_node@U?$pair@$$CBV?$basic_string@DU?$char_traits@D@std@@V?$allocator@D@2@@std@@H@std@@PAX@2@@?$_Tree@V?$_Tmap_traits@V?$basic_string@DU?$char_traits@D@std@@V?$allocator@D@2@@std@@HU?$less@V?$basic_string@DU?$char_traits@D@std@@V?$allocator@D@2@@std@@@2@V?$allocator@U?$pair@$$CBV?$basic_string@DU?$char_traits@D@std@@V?$allocator@D@2@@std@@H@std@@@2@$0A@@std@@@std@@IAE?AV?$_Tree_iterator@V?$_Tree_val@U?$_Tree_simple_types@U?$pair@$$CBV?$basic_string@DU?$char_traits@D@std@@V?$allocator@D@2@@std@@H@std@@@std@@@std@@@1@V?$_Tree_const_iterator@V?$_Tree_val@U?$_Tree_simple_types@U?$pair@$$CBV?$basic_string@DU?$char_traits@D@std@@V?$allocator@D@2@@std@@H@std@@@std@@@std@@@1@AAU?$pair@$$CBV?$basic_string@DU?$char_traits@D@std@@V?$allocator@D@2@@std@@H@1@PAU?$_Tree_node@U?$pair@$$CBV?$basic_string@DU?$char_traits@D@std@@V?$allocator@D@2@@std@@H@std@@PAX@1@@Z 004214c0 f i SparCraft:EnumData.obj
 0001:000206f0       ?_Destroy_if_not_nil@?$_Tree@V?$_Tmap_traits@V?$basic_string@DU?$char_traits@D@std@@V?$allocator@D@2@@std@@VError@BWAPI@@U?$less@V?$basic_string@DU?$char_traits@D@std@@V?$allocator@D@2@@std@@@2@V?$allocator@U?$pair@$$CBV?$basic_string@DU?$char_traits@D@std@@V?$allocator@D@2@@std@@VError@BWAPI@@@std@@@2@$0A@@std@@@std@@IAEXPAU?$_Tree_node@U?$pair@$$CBV?$basic_string@DU?$char_traits@D@std@@V?$allocator@D@2@@std@@VError@BWAPI@@@std@@PAX@2@@Z 004216f0 f i BWAPI:Error.obj
 0001:000206f0       ?_Destroy_if_not_nil@?$_Tree@V?$_Tmap_traits@V?$basic_string@DU?$char_traits@D@std@@V?$allocator@D@2@@std@@VUpgradeType@BWAPI@@U?$less@V?$basic_string@DU?$char_traits@D@std@@V?$allocator@D@2@@std@@@2@V?$allocator@U?$pair@$$CBV?$basic_string@DU?$char_traits@D@std@@V?$allocator@D@2@@std@@VUpgradeType@BWAPI@@@std@@@2@$0A@@std@@@std@@IAEXPAU?$_Tree_node@U?$pair@$$CBV?$basic_string@DU?$char_traits@D@std@@V?$allocator@D@2@@std@@VUpgradeType@BWAPI@@@std@@PAX@2@@Z 004216f0 f i BWAPI:UpgradeType.obj
 0001:000206f0       ?_Destroy_if_not_nil@?$_Tree@V?$_Tmap_traits@V?$basic_string@DU?$char_traits@D@std@@V?$allocator@D@2@@std@@VTechType@BWAPI@@U?$less@V?$basic_string@DU?$char_traits@D@std@@V?$allocator@D@2@@std@@@2@V?$allocator@U?$pair@$$CBV?$basic_string@DU?$char_traits@D@std@@V?$allocator@D@2@@std@@VTechType@BWAPI@@@std@@@2@$0A@@std@@@std@@IAEXPAU?$_Tree_node@U?$pair@$$CBV?$basic_string@DU?$char_traits@D@std@@V?$allocator@D@2@@std@@VTechType@BWAPI@@@std@@PAX@2@@Z 004216f0 f i BWAPI:TechType.obj
 0001:000206f0       ?_Destroy_if_not_nil@?$_Tree@V?$_Tmap_traits@V?$basic_string@DU?$char_traits@D@std@@V?$allocator@D@2@@std@@VUnitSizeType@BWAPI@@U?$less@V?$basic_string@DU?$char_traits@D@std@@V?$allocator@D@2@@std@@@2@V?$allocator@U?$pair@$$CBV?$basic_string@DU?$char_traits@D@std@@V?$allocator@D@2@@std@@VUnitSizeType@BWAPI@@@std@@@2@$0A@@std@@@std@@IAEXPAU?$_Tree_node@U?$pair@$$CBV?$basic_string@DU?$char_traits@D@std@@V?$allocator@D@2@@std@@VUnitSizeType@BWAPI@@@std@@PAX@2@@Z 004216f0 f i BWAPI:UnitSizeType.obj
 0001:000206f0       ?_Destroy_if_not_nil@?$_Tree@V?$_Tmap_traits@V?$basic_string@DU?$char_traits@D@std@@V?$allocator@D@2@@std@@VOrder@BWAPI@@U?$less@V?$basic_string@DU?$char_traits@D@std@@V?$allocator@D@2@@std@@@2@V?$allocator@U?$pair@$$CBV?$basic_string@DU?$char_traits@D@std@@V?$allocator@D@2@@std@@VOrder@BWAPI@@@std@@@2@$0A@@std@@@std@@IAEXPAU?$_Tree_node@U?$pair@$$CBV?$basic_string@DU?$char_traits@D@std@@V?$allocator@D@2@@std@@VOrder@BWAPI@@@std@@PAX@2@@Z 004216f0 f i BWAPI:Order.obj
 0001:000206f0       ?_Destroy_if_not_nil@?$_Tree@V?$_Tmap_traits@V?$basic_string@DU?$char_traits@D@std@@V?$allocator@D@2@@std@@VWeaponType@BWAPI@@U?$less@V?$basic_string@DU?$char_traits@D@std@@V?$allocator@D@2@@std@@@2@V?$allocator@U?$pair@$$CBV?$basic_string@DU?$char_traits@D@std@@V?$allocator@D@2@@std@@VWeaponType@BWAPI@@@std@@@2@$0A@@std@@@std@@IAEXPAU?$_Tree_node@U?$pair@$$CBV?$basic_string@DU?$char_traits@D@std@@V?$allocator@D@2@@std@@VWeaponType@BWAPI@@@std@@PAX@2@@Z 004216f0 f i BWAPI:WeaponType.obj
 0001:000206f0       ?_Destroy_if_not_nil@?$_Tree@V?$_Tmap_traits@V?$basic_string@DU?$char_traits@D@std@@V?$allocator@D@2@@std@@VExplosionType@BWAPI@@U?$less@V?$basic_string@DU?$char_traits@D@std@@V?$allocator@D@2@@std@@@2@V?$allocator@U?$pair@$$CBV?$basic_string@DU?$char_traits@D@std@@V?$allocator@D@2@@std@@VExplosionType@BWAPI@@@std@@@2@$0A@@std@@@std@@IAEXPAU?$_Tree_node@U?$pair@$$CBV?$basic_string@DU?$char_traits@D@std@@V?$allocator@D@2@@std@@VExplosionType@BWAPI@@@std@@PAX@2@@Z 004216f0 f i BWAPI:ExplosionType.obj
 0001:000206f0       ?_Destroy_if_not_nil@?$_Tree@V?$_Tmap_traits@V?$basic_string@DU?$char_traits@D@std@@V?$allocator@D@2@@std@@VPlayerType@BWAPI@@U?$less@V?$basic_string@DU?$char_traits@D@std@@V?$allocator@D@2@@std@@@2@V?$allocator@U?$pair@$$CBV?$basic_string@DU?$char_traits@D@std@@V?$allocator@D@2@@std@@VPlayerType@BWAPI@@@std@@@2@$0A@@std@@@std@@IAEXPAU?$_Tree_node@U?$pair@$$CBV?$basic_string@DU?$char_traits@D@std@@V?$allocator@D@2@@std@@VPlayerType@BWAPI@@@std@@PAX@2@@Z 004216f0 f i BWAPI:PlayerType.obj
 0001:000206f0       ?_Destroy_if_not_nil@?$_Tree@V?$_Tmap_traits@V?$basic_string@DU?$char_traits@D@std@@V?$allocator@D@2@@std@@VDamageType@BWAPI@@U?$less@V?$basic_string@DU?$char_traits@D@std@@V?$allocator@D@2@@std@@@2@V?$allocator@U?$pair@$$CBV?$basic_string@DU?$char_traits@D@std@@V?$allocator@D@2@@std@@VDamageType@BWAPI@@@std@@@2@$0A@@std@@@std@@IAEXPAU?$_Tree_node@U?$pair@$$CBV?$basic_string@DU?$char_traits@D@std@@V?$allocator@D@2@@std@@VDamageType@BWAPI@@@std@@PAX@2@@Z 004216f0 f i BWAPI:DamageType.obj
 0001:000206f0       ?_Destroy_if_not_nil@?$_Tree@V?$_Tmap_traits@V?$basic_string@DU?$char_traits@D@std@@V?$allocator@D@2@@std@@VUnitType@BWAPI@@U?$less@V?$basic_string@DU?$char_traits@D@std@@V?$allocator@D@2@@std@@@2@V?$allocator@U?$pair@$$CBV?$basic_string@DU?$char_traits@D@std@@V?$allocator@D@2@@std@@VUnitType@BWAPI@@@std@@@2@$0A@@std@@@std@@IAEXPAU?$_Tree_node@U?$pair@$$CBV?$basic_string@DU?$char_traits@D@std@@V?$allocator@D@2@@std@@VUnitType@BWAPI@@@std@@PAX@2@@Z 004216f0 f i BWAPI:UnitType.obj
 0001:000206f0       ?_Destroy_if_not_nil@?$_Tree@V?$_Tmap_traits@V?$basic_string@DU?$char_traits@D@std@@V?$allocator@D@2@@std@@HU?$less@V?$basic_string@DU?$char_traits@D@std@@V?$allocator@D@2@@std@@@2@V?$allocator@U?$pair@$$CBV?$basic_string@DU?$char_traits@D@std@@V?$allocator@D@2@@std@@H@std@@@2@$0A@@std@@@std@@IAEXPAU?$_Tree_node@U?$pair@$$CBV?$basic_string@DU?$char_traits@D@std@@V?$allocator@D@2@@std@@H@std@@PAX@2@@Z 004216f0 f i SparCraft:EnumData.obj
 0001:000206f0       ?_Destroy_if_not_nil@?$_Tree@V?$_Tmap_traits@V?$basic_string@DU?$char_traits@D@std@@V?$allocator@D@2@@std@@VBulletType@BWAPI@@U?$less@V?$basic_string@DU?$char_traits@D@std@@V?$allocator@D@2@@std@@@2@V?$allocator@U?$pair@$$CBV?$basic_string@DU?$char_traits@D@std@@V?$allocator@D@2@@std@@VBulletType@BWAPI@@@std@@@2@$0A@@std@@@std@@IAEXPAU?$_Tree_node@U?$pair@$$CBV?$basic_string@DU?$char_traits@D@std@@V?$allocator@D@2@@std@@VBulletType@BWAPI@@@std@@PAX@2@@Z 004216f0 f i BWAPI:BulletType.obj
 0001:000206f0       ?_Destroy_if_not_nil@?$_Tree@V?$_Tmap_traits@V?$basic_string@DU?$char_traits@D@std@@V?$allocator@D@2@@std@@VRace@BWAPI@@U?$less@V?$basic_string@DU?$char_traits@D@std@@V?$allocator@D@2@@std@@@2@V?$allocator@U?$pair@$$CBV?$basic_string@DU?$char_traits@D@std@@V?$allocator@D@2@@std@@VRace@BWAPI@@@std@@@2@$0A@@std@@@std@@IAEXPAU?$_Tree_node@U?$pair@$$CBV?$basic_string@DU?$char_traits@D@std@@V?$allocator@D@2@@std@@VRace@BWAPI@@@std@@PAX@2@@Z 004216f0 f i BWAPI:Race.obj
 0001:000206f0       ?_Destroy_if_not_nil@?$_Tree@V?$_Tmap_traits@V?$basic_string@DU?$char_traits@D@std@@V?$allocator@D@2@@std@@VUnitCommandType@BWAPI@@U?$less@V?$basic_string@DU?$char_traits@D@std@@V?$allocator@D@2@@std@@@2@V?$allocator@U?$pair@$$CBV?$basic_string@DU?$char_traits@D@std@@V?$allocator@D@2@@std@@VUnitCommandType@BWAPI@@@std@@@2@$0A@@std@@@std@@IAEXPAU?$_Tree_node@U?$pair@$$CBV?$basic_string@DU?$char_traits@D@std@@V?$allocator@D@2@@std@@VUnitCommandType@BWAPI@@@std@@PAX@2@@Z 004216f0 f i BWAPI:UnitCommandType.obj
 0001:000206f0       ?_Destroy_if_not_nil@?$_Tree@V?$_Tmap_traits@V?$basic_string@DU?$char_traits@D@std@@V?$allocator@D@2@@std@@VGameType@BWAPI@@U?$less@V?$basic_string@DU?$char_traits@D@std@@V?$allocator@D@2@@std@@@2@V?$allocator@U?$pair@$$CBV?$basic_string@DU?$char_traits@D@std@@V?$allocator@D@2@@std@@VGameType@BWAPI@@@std@@@2@$0A@@std@@@std@@IAEXPAU?$_Tree_node@U?$pair@$$CBV?$basic_string@DU?$char_traits@D@std@@V?$allocator@D@2@@std@@VGameType@BWAPI@@@std@@PAX@2@@Z 004216f0 f i BWAPI:GameType.obj
 0001:00020730       ?_Buynode0@?$_Tree_buy@U?$pair@$$CBV?$basic_string@DU?$char_traits@D@std@@V?$allocator@D@2@@std@@H@std@@V?$allocator@U?$pair@$$CBV?$basic_string@DU?$char_traits@D@std@@V?$allocator@D@2@@std@@H@std@@@2@@std@@QAEPAU?$_Tree_node@U?$pair@$$CBV?$basic_string@DU?$char_traits@D@std@@V?$allocator@D@2@@std@@H@std@@PAX@2@XZ 00421730 f i SparCraft:EnumData.obj
 0001:00020770       ??$_Insert_at@AAU?$pair@$$CBV?$basic_string@DU?$char_traits@D@std@@V?$allocator@D@2@@std@@H@std@@PAU?$_Tree_node@U?$pair@$$CBV?$basic_string@DU?$char_traits@D@std@@V?$allocator@D@2@@std@@H@std@@PAX@2@@?$_Tree@V?$_Tmap_traits@V?$basic_string@DU?$char_traits@D@std@@V?$allocator@D@2@@std@@HU?$less@V?$basic_string@DU?$char_traits@D@std@@V?$allocator@D@2@@std@@@2@V?$allocator@U?$pair@$$CBV?$basic_string@DU?$char_traits@D@std@@V?$allocator@D@2@@std@@H@std@@@2@$0A@@std@@@std@@IAE?AV?$_Tree_iterator@V?$_Tree_val@U?$_Tree_simple_types@U?$pair@$$CBV?$basic_string@DU?$char_traits@D@std@@V?$allocator@D@2@@std@@H@std@@@std@@@std@@@1@_NPAU?$_Tree_node@U?$pair@$$CBV?$basic_string@DU?$char_traits@D@std@@V?$allocator@D@2@@std@@H@std@@PAX@1@AAU?$pair@$$CBV?$basic_string@DU?$char_traits@D@std@@V?$allocator@D@2@@std@@H@1@1@Z 00421770 f i SparCraft:EnumData.obj
 0001:000209a0       ??$_Insert_nohint@AAU?$pair@$$CBV?$basic_string@DU?$char_traits@D@std@@V?$allocator@D@2@@std@@H@std@@PAU?$_Tree_node@U?$pair@$$CBV?$basic_string@DU?$char_traits@D@std@@V?$allocator@D@2@@std@@H@std@@PAX@2@@?$_Tree@V?$_Tmap_traits@V?$basic_string@DU?$char_traits@D@std@@V?$allocator@D@2@@std@@HU?$less@V?$basic_string@DU?$char_traits@D@std@@V?$allocator@D@2@@std@@@2@V?$allocator@U?$pair@$$CBV?$basic_string@DU?$char_traits@D@std@@V?$allocator@D@2@@std@@H@std@@@2@$0A@@std@@@std@@IAE?AU?$pair@V?$_Tree_iterator@V?$_Tree_val@U?$_Tree_simple_types@U?$pair@$$CBV?$basic_string@DU?$char_traits@D@std@@V?$allocator@D@2@@std@@H@std@@@std@@@std@@@std@@_N@1@_NAAU?$pair@$$CBV?$basic_string@DU?$char_traits@D@std@@V?$allocator@D@2@@std@@H@1@PAU?$_Tree_node@U?$pair@$$CBV?$basic_string@DU?$char_traits@D@std@@V?$allocator@D@2@@std@@H@std@@PAX@1@@Z 004219a0 f i SparCraft:EnumData.obj
 0001:00020b90       ?Init@WeaponProperties@SparCraft@@SAXXZ 00421b90 f   SparCraft:WeaponProperties.obj
 0001:00020cb0       ??0HashValues@Hash@SparCraft@@QAE@H@Z 00421cb0 f   SparCraft:Hash.obj
 0001:00020e20       ?initHash@Hash@SparCraft@@YAXXZ 00421e20 f   SparCraft:Hash.obj
 0001:00020ee0       ?init@AnimationFrameData@SparCraft@@SAXXZ 00421ee0 f   SparCraft:AnimationFrameData.obj
 0001:00021200       ??4?$vector@U?$pair@HH@std@@V?$allocator@U?$pair@HH@std@@@2@@std@@QAEAAV01@$$QAV01@@Z 00422200 f i SparCraft:AnimationFrameData.obj
 0001:00021280       ?_Construct_n@?$vector@U?$pair@HH@std@@V?$allocator@U?$pair@HH@std@@@2@@std@@QAEXIPBU?$pair@HH@2@@Z 00422280 f i SparCraft:AnimationFrameData.obj
 0001:000212c0       ?_Destroy@?$vector@U?$pair@HH@std@@V?$allocator@U?$pair@HH@std@@@2@@std@@IAEXPAU?$pair@HH@2@0@Z 004222c0 f i SparCraft:AnimationFrameData.obj
 0001:000212d0       ??$_Uninit_fill_n@PAU?$pair@HH@std@@IU12@V?$allocator@U?$pair@HH@std@@@2@U12@@std@@YAXPAU?$pair@HH@0@IPBU10@AAU?$_Wrap_alloc@V?$allocator@U?$pair@HH@std@@@std@@@0@0U_Nonscalar_ptr_iterator_tag@0@@Z 004222d0 f i SparCraft:AnimationFrameData.obj
 0001:00021300       ??MStateEvalScore@SparCraft@@QBE?B_NABV01@@Z 00422300 f i SparCraft:AlphaBetaSearch.obj
 0001:00021330       ??0AlphaBetaValue@SparCraft@@QAE@ABVStateEvalScore@1@ABVAlphaBetaMove@1@@Z 00422330 f i SparCraft:AlphaBetaSearch.obj
 0001:00021360       ??0AlphaBetaSearchResults@SparCraft@@QAE@XZ 00422360 f i SparCraft:AlphaBetaSearch.obj
 0001:00021400       ??0AlphaBetaSearch@SparCraft@@QAE@ABVAlphaBetaSearchParameters@1@V?$shared_ptr@VTranspositionTable@SparCraft@@@boost@@@Z 00422400 f   SparCraft:AlphaBetaSearch.obj
 0001:00021820       ??0AlphaBetaSearchParameters@SparCraft@@QAE@ABV01@@Z 00422820 f i SparCraft:AlphaBetaSearch.obj
 0001:000218f0       ?doSearch@AlphaBetaSearch@SparCraft@@QAEXAAVGameState@2@@Z 004228f0 f   SparCraft:AlphaBetaSearch.obj
 0001:00021ad0       ??1AlphaBetaValue@SparCraft@@QAE@XZ 00422ad0 f i SparCraft:AlphaBetaSearch.obj
 0001:00021b00       ?IDAlphaBeta@AlphaBetaSearch@SparCraft@@QAE?AVAlphaBetaValue@2@AAVGameState@2@ABI@Z 00422b00 f   SparCraft:AlphaBetaSearch.obj
 0001:00021e00       ?TTsave@AlphaBetaSearch@SparCraft@@QAEXAAVGameState@2@ABVStateEvalScore@2@11ABIABEABVAlphaBetaMove@2@4@Z 00422e00 f   SparCraft:AlphaBetaSearch.obj
 0001:00021f40       ?TTlookup@AlphaBetaSearch@SparCraft@@QAE?AVTTLookupValue@2@ABVGameState@2@AAVStateEvalScore@2@1ABI@Z 00422f40 f   SparCraft:AlphaBetaSearch.obj
 0001:000220c0       ?getAlphaBetaMove@AlphaBetaSearch@SparCraft@@QBEABVAlphaBetaMove@2@ABVTTLookupValue@2@ABE@Z 004230c0 f   SparCraft:AlphaBetaSearch.obj
 0001:00022100       ?generateOrderedMoves@AlphaBetaSearch@SparCraft@@QAEXAAVGameState@2@AAVMoveArray@2@ABVTTLookupValue@2@ABEABI@Z 00423100 f   SparCraft:AlphaBetaSearch.obj
 0001:00022280       ?getNextMoveVec@AlphaBetaSearch@SparCraft@@QBE_NEAAVMoveArray@2@ABIABVTTLookupValue@2@1AAV?$vector@VUnitAction@SparCraft@@V?$allocator@VUnitAction@SparCraft@@@std@@@std@@@Z 00423280 f   SparCraft:AlphaBetaSearch.obj
 0001:00022350       ?getPlayerToMove@AlphaBetaSearch@SparCraft@@QBE?BEAAVGameState@2@ABIABE_N@Z 00423350 f   SparCraft:AlphaBetaSearch.obj
 0001:000224a0       ?isTranspositionLookupState@AlphaBetaSearch@SparCraft@@QBE?B_NAAVGameState@2@PBV?$vector@VUnitAction@SparCraft@@V?$allocator@VUnitAction@SparCraft@@@std@@@std@@@Z 004234a0 f   SparCraft:AlphaBetaSearch.obj
 0001:00022520       ?alphaBeta@AlphaBetaSearch@SparCraft@@QAE?AVAlphaBetaValue@2@AAVGameState@2@IEPAV?$vector@VUnitAction@SparCraft@@V?$allocator@VUnitAction@SparCraft@@@std@@@std@@VStateEvalScore@2@2@Z 00423520 f   SparCraft:AlphaBetaSearch.obj
 0001:00022e50       ??0?$vector@EV?$allocator@E@std@@@std@@QAE@ABV01@@Z 00423e50 f i SparCraft:AlphaBetaSearch.obj
 0001:00022ea0       ??0?$vector@V?$vector@V?$basic_string@DU?$char_traits@D@std@@V?$allocator@D@2@@std@@V?$allocator@V?$basic_string@DU?$char_traits@D@std@@V?$allocator@D@2@@std@@@2@@std@@V?$allocator@V?$vector@V?$basic_string@DU?$char_traits@D@std@@V?$allocator@D@2@@std@@V?$allocator@V?$basic_string@DU?$char_traits@D@std@@V?$allocator@D@2@@std@@@2@@std@@@2@@std@@QAE@ABV01@@Z 00423ea0 f i SparCraft:AlphaBetaSearch.obj
 0001:00022f50       ??0?$Array@V?$vector@VUnitAction@SparCraft@@V?$allocator@VUnitAction@SparCraft@@@std@@@std@@$09@SparCraft@@QAE@XZ 00423f50 f i SparCraft:AlphaBetaSearch.obj
 0001:00022f80       ??$_Uninit_copy@V?$_Vector_const_iterator@V?$_Vector_val@U?$_Simple_types@E@std@@@std@@@std@@PAEV?$allocator@E@2@@std@@YAPAEV?$_Vector_const_iterator@V?$_Vector_val@U?$_Simple_types@E@std@@@std@@@0@0PAEAAU?$_Wrap_alloc@V?$allocator@E@std@@@0@U_Nonscalar_ptr_iterator_tag@0@@Z 00423f80 f i SparCraft:AlphaBetaSearch.obj
 0001:00022fb0       ??$_Uninit_copy@V?$_Vector_const_iterator@V?$_Vector_val@U?$_Simple_types@V?$vector@V?$basic_string@DU?$char_traits@D@std@@V?$allocator@D@2@@std@@V?$allocator@V?$basic_string@DU?$char_traits@D@std@@V?$allocator@D@2@@std@@@2@@std@@@std@@@std@@@std@@PAV?$vector@V?$basic_string@DU?$char_traits@D@std@@V?$allocator@D@2@@std@@V?$allocator@V?$basic_string@DU?$char_traits@D@std@@V?$allocator@D@2@@std@@@2@@2@V?$allocator@V?$vector@V?$basic_string@DU?$char_traits@D@std@@V?$allocator@D@2@@std@@V?$allocator@V?$basic_string@DU?$char_traits@D@std@@V?$allocator@D@2@@std@@@2@@std@@@2@@std@@YAPAV?$vector@V?$basic_string@DU?$char_traits@D@std@@V?$allocator@D@2@@std@@V?$allocator@V?$basic_string@DU?$char_traits@D@std@@V?$allocator@D@2@@std@@@2@@0@V?$_Vector_const_iterator@V?$_Vector_val@U?$_Simple_types@V?$vector@V?$basic_string@DU?$char_traits@D@std@@V?$allocator@D@2@@std@@V?$allocator@V?$basic_string@DU?$char_traits@D@std@@V?$allocator@D@2@@std@@@2@@std@@@std@@@std@@@0@0PAV10@AAU?$_Wrap_alloc@V?$allocator@V?$vector@V?$basic_string@DU?$char_traits@D@std@@V?$allocator@D@2@@std@@V?$allocator@V?$basic_string@DU?$char_traits@D@std@@V?$allocator@D@2@@std@@@2@@std@@@std@@@0@U_Nonscalar_ptr_iterator_tag@0@@Z 00423fb0 f i SparCraft:AlphaBetaSearch.obj
 0001:00023050       ?getPlayerPtr@AllPlayers@SparCraft@@YA?AV?$shared_ptr@VPlayer@SparCraft@@@boost@@ABE0@Z 00424050 f   SparCraft:AllPlayers.obj
 0001:00023290       ??0UCTNode@SparCraft@@QAE@PAV01@EEABV?$vector@VUnitAction@SparCraft@@V?$allocator@VUnitAction@SparCraft@@@std@@@std@@ABIPAV?$vector@VUCTNode@SparCraft@@V?$allocator@VUCTNode@SparCraft@@@std@@@3@@Z 00424290 f i SparCraft:UCTSearch.obj
 0001:00023290       ??0IUCTNode@SparCraft@@QAE@PAV01@EEABV?$vector@VUnitAction@SparCraft@@V?$allocator@VUnitAction@SparCraft@@@std@@@std@@ABIPAV?$vector@VIUCTNode@SparCraft@@V?$allocator@VIUCTNode@SparCraft@@@std@@@3@@Z 00424290 f i SparCraft:IUCTSearch.obj
 0001:00023360       ?bestUCTValueChild@UCTNode@SparCraft@@QAEAAV12@_NABVUCTSearchParameters@2@@Z 00424360 f i SparCraft:UCTSearch.obj
 0001:00023360       ?bestUCTValueChild@IUCTNode@SparCraft@@QAEAAV12@_NABVIUCTSearchParameters@2@@Z 00424360 f i SparCraft:IUCTSearch.obj
 0001:00023430       ??0IUCTSearch@SparCraft@@QAE@ABVIUCTSearchParameters@1@@Z 00424430 f   SparCraft:IUCTSearch.obj
 0001:00023430       ??0UCTSearch@SparCraft@@QAE@ABVUCTSearchParameters@1@@Z 00424430 f   SparCraft:UCTSearch.obj
 0001:00023760       ??0IUCTSearchParameters@SparCraft@@QAE@ABV01@@Z 00424760 f i SparCraft:IUCTSearch.obj
 0001:00023760       ??0UCTSearchParameters@SparCraft@@QAE@ABV01@@Z 00424760 f i SparCraft:UCTSearch.obj
 0001:00023840       ?doSearch@IUCTSearch@SparCraft@@QAEXAAVGameState@2@AAV?$vector@VUnitAction@SparCraft@@V?$allocator@VUnitAction@SparCraft@@@std@@@std@@@Z 00424840 f   SparCraft:IUCTSearch.obj
 0001:00023bb0       ??4IUCTNode@SparCraft@@QAEAAV01@ABV01@@Z 00424bb0 f i SparCraft:IUCTSearch.obj
 0001:00023bb0       ??4UCTNode@SparCraft@@QAEAAV01@ABV01@@Z 00424bb0 f i SparCraft:UCTSearch.obj
 0001:00023c10       ?generateOrderedMoves@IUCTSearch@SparCraft@@QAEXAAVGameState@2@AAVMoveArray@2@ABE@Z 00424c10 f   SparCraft:IUCTSearch.obj
 0001:00023c10       ?generateOrderedMoves@UCTSearch@SparCraft@@QAEXAAVGameState@2@AAVMoveArray@2@ABE@Z 00424c10 f   SparCraft:UCTSearch.obj
 0001:00023da0       ?getChildNodeType@IUCTSearch@SparCraft@@QBE?BIAAVIUCTNode@2@ABVGameState@2@@Z 00424da0 f   SparCraft:IUCTSearch.obj
 0001:00023da0       ?getChildNodeType@UCTSearch@SparCraft@@QBE?BIAAVUCTNode@2@ABVGameState@2@@Z 00424da0 f   SparCraft:UCTSearch.obj
 0001:00023e20       ?getNextMove@IUCTSearch@SparCraft@@QAE?B_NEAAVMoveArray@2@ABIAAV?$vector@VUnitAction@SparCraft@@V?$allocator@VUnitAction@SparCraft@@@std@@@std@@@Z 00424e20 f   SparCraft:IUCTSearch.obj
 0001:00023e20       ?getNextMove@UCTSearch@SparCraft@@QAE?B_NEAAVMoveArray@2@ABIAAV?$vector@VUnitAction@SparCraft@@V?$allocator@VUnitAction@SparCraft@@@std@@@std@@@Z 00424e20 f   SparCraft:UCTSearch.obj
 0001:00023eb0       ?getPlayerToMove@IUCTSearch@SparCraft@@QBE?BEAAVIUCTNode@2@ABVGameState@2@@Z 00424eb0 f   SparCraft:IUCTSearch.obj
 0001:00023fc0       ?UCTNodeSelect@UCTSearch@SparCraft@@QAEAAVUCTNode@2@AAV32@@Z 00424fc0 f   SparCraft:UCTSearch.obj
 0001:00023fc0       ?IUCTNodeSelect@IUCTSearch@SparCraft@@QAEAAVIUCTNode@2@AAV32@@Z 00424fc0 f   SparCraft:IUCTSearch.obj
 0001:00024120       ?traverse@IUCTSearch@SparCraft@@QAE?AVStateEvalScore@2@AAVIUCTNode@2@AAVGameState@2@@Z 00425120 f   SparCraft:IUCTSearch.obj
 0001:00024270       ?generateChildren@IUCTSearch@SparCraft@@QAEXAAVIUCTNode@2@AAVGameState@2@@Z 00425270 f   SparCraft:IUCTSearch.obj
 0001:00024430       ?push_back@?$vector@VUCTNode@SparCraft@@V?$allocator@VUCTNode@SparCraft@@@std@@@std@@QAEX$$QAVUCTNode@SparCraft@@@Z 00425430 f i SparCraft:UCTSearch.obj
 0001:00024430       ?push_back@?$vector@VIUCTNode@SparCraft@@V?$allocator@VIUCTNode@SparCraft@@@std@@@std@@QAEX$$QAVIUCTNode@SparCraft@@@Z 00425430 f i SparCraft:IUCTSearch.obj
 0001:00024550       ??4?$vector@VIUCTNode@SparCraft@@V?$allocator@VIUCTNode@SparCraft@@@std@@@std@@QAEAAV01@ABV01@@Z 00425550 f i SparCraft:IUCTSearch.obj
 0001:00024550       ??4?$vector@VUCTNode@SparCraft@@V?$allocator@VUCTNode@SparCraft@@@std@@@std@@QAEAAV01@ABV01@@Z 00425550 f i SparCraft:UCTSearch.obj
 0001:00024670       ?clear@?$vector@VUCTNode@SparCraft@@V?$allocator@VUCTNode@SparCraft@@@std@@@std@@QAEXXZ 00425670 f i SparCraft:UCTSearch.obj
 0001:00024670       ?clear@?$vector@VIUCTNode@SparCraft@@V?$allocator@VIUCTNode@SparCraft@@@std@@@std@@QAEXXZ 00425670 f i SparCraft:IUCTSearch.obj
 0001:000246b0       ?_Buy@?$vector@VUCTNode@SparCraft@@V?$allocator@VUCTNode@SparCraft@@@std@@@std@@IAE_NI@Z 004256b0 f i SparCraft:UCTSearch.obj
 0001:000246b0       ?_Buy@?$vector@VIUCTNode@SparCraft@@V?$allocator@VIUCTNode@SparCraft@@@std@@@std@@IAE_NI@Z 004256b0 f i SparCraft:IUCTSearch.obj
 0001:00024720       ?_Reallocate@?$vector@VUCTNode@SparCraft@@V?$allocator@VUCTNode@SparCraft@@@std@@@std@@IAEXI@Z 00425720 f i SparCraft:UCTSearch.obj
 0001:00024720       ?_Reallocate@?$vector@VIUCTNode@SparCraft@@V?$allocator@VIUCTNode@SparCraft@@@std@@@std@@IAEXI@Z 00425720 f i SparCraft:IUCTSearch.obj
 0001:00024830       ?_Reserve@?$vector@VIUCTNode@SparCraft@@V?$allocator@VIUCTNode@SparCraft@@@std@@@std@@IAEXI@Z 00425830 f i SparCraft:IUCTSearch.obj
 0001:00024830       ?_Reserve@?$vector@VUCTNode@SparCraft@@V?$allocator@VUCTNode@SparCraft@@@std@@@std@@IAEXI@Z 00425830 f i SparCraft:UCTSearch.obj
 0001:000248a0       ??$_Copy_impl@PAVUCTNode@SparCraft@@PAV12@@std@@YAPAVUCTNode@SparCraft@@PAV12@00@Z 004258a0 f i SparCraft:UCTSearch.obj
 0001:000248a0       ??$_Copy_impl@PAVIUCTNode@SparCraft@@PAV12@@std@@YAPAVIUCTNode@SparCraft@@PAV12@00@Z 004258a0 f i SparCraft:IUCTSearch.obj
 0001:000248d0       ??$_Uninit_copy@PAVUCTNode@SparCraft@@PAV12@V?$allocator@VUCTNode@SparCraft@@@std@@@std@@YAPAVUCTNode@SparCraft@@PAV12@00AAU?$_Wrap_alloc@V?$allocator@VUCTNode@SparCraft@@@std@@@0@U_Nonscalar_ptr_iterator_tag@0@@Z 004258d0 f i SparCraft:UCTSearch.obj
 0001:000248d0       ??$_Uninit_move@PAVUCTNode@SparCraft@@PAV12@V?$allocator@VUCTNode@SparCraft@@@std@@V12@@std@@YAPAVUCTNode@SparCraft@@PAV12@00AAU?$_Wrap_alloc@V?$allocator@VUCTNode@SparCraft@@@std@@@0@0U_Nonscalar_ptr_iterator_tag@0@@Z 004258d0 f i SparCraft:UCTSearch.obj
 0001:000248d0       ??$_Uninit_copy@PAVIUCTNode@SparCraft@@PAV12@V?$allocator@VIUCTNode@SparCraft@@@std@@@std@@YAPAVIUCTNode@SparCraft@@PAV12@00AAU?$_Wrap_alloc@V?$allocator@VIUCTNode@SparCraft@@@std@@@0@U_Nonscalar_ptr_iterator_tag@0@@Z 004258d0 f i SparCraft:IUCTSearch.obj
 0001:000248d0       ??$_Uninit_move@PAVIUCTNode@SparCraft@@PAV12@V?$allocator@VIUCTNode@SparCraft@@@std@@V12@@std@@YAPAVIUCTNode@SparCraft@@PAV12@00AAU?$_Wrap_alloc@V?$allocator@VIUCTNode@SparCraft@@@std@@@0@0U_Nonscalar_ptr_iterator_tag@0@@Z 004258d0 f i SparCraft:IUCTSearch.obj
 0001:000249b0       ??0UCTNode@SparCraft@@QAE@ABV01@@Z 004259b0 f i SparCraft:UCTSearch.obj
 0001:000249b0       ??0IUCTNode@SparCraft@@QAE@ABV01@@Z 004259b0 f i SparCraft:IUCTSearch.obj
 0001:00024a40       ??0?$vector@VUCTNode@SparCraft@@V?$allocator@VUCTNode@SparCraft@@@std@@@std@@QAE@ABV01@@Z 00425a40 f i SparCraft:UCTSearch.obj
 0001:00024a40       ??0?$vector@VIUCTNode@SparCraft@@V?$allocator@VIUCTNode@SparCraft@@@std@@@std@@QAE@ABV01@@Z 00425a40 f i SparCraft:IUCTSearch.obj
 0001:00024ae0       ??$_Uninit_copy@V?$_Vector_const_iterator@V?$_Vector_val@U?$_Simple_types@VIUCTNode@SparCraft@@@std@@@std@@@std@@PAVIUCTNode@SparCraft@@V?$allocator@VIUCTNode@SparCraft@@@2@@std@@YAPAVIUCTNode@SparCraft@@V?$_Vector_const_iterator@V?$_Vector_val@U?$_Simple_types@VIUCTNode@SparCraft@@@std@@@std@@@0@0PAV12@AAU?$_Wrap_alloc@V?$allocator@VIUCTNode@SparCraft@@@std@@@0@U_Nonscalar_ptr_iterator_tag@0@@Z 00425ae0 f i SparCraft:IUCTSearch.obj
 0001:00024ae0       ??$_Uninit_copy@V?$_Vector_const_iterator@V?$_Vector_val@U?$_Simple_types@VUCTNode@SparCraft@@@std@@@std@@@std@@PAVUCTNode@SparCraft@@V?$allocator@VUCTNode@SparCraft@@@2@@std@@YAPAVUCTNode@SparCraft@@V?$_Vector_const_iterator@V?$_Vector_val@U?$_Simple_types@VUCTNode@SparCraft@@@std@@@std@@@0@0PAV12@AAU?$_Wrap_alloc@V?$allocator@VUCTNode@SparCraft@@@std@@@0@U_Nonscalar_ptr_iterator_tag@0@@Z 00425ae0 f i SparCraft:UCTSearch.obj
 0001:00024b80       ??_GGLFontBase@@UAEPAXI@Z  00425b80 f i SparCraft:glfont.obj
 0001:00024b80       ??_EPixelPerfectGLFont@@UAEPAXI@Z 00425b80 f i * CIL library *:* CIL module *
 0001:00024b80       ??_GPixelPerfectGLFont@@UAEPAXI@Z 00425b80 f i SparCraft:glfont.obj
 0001:00024b80       ??_EGLFontBase@@UAEPAXI@Z  00425b80 f i * CIL library *:* CIL module *
 0001:00024bc0       ??0PortfolioGreedySearch@SparCraft@@QAE@ABE0ABI11@Z 00425bc0 f   SparCraft:PortfolioGreedySearch.obj
 0001:00024d10       ?search@PortfolioGreedySearch@SparCraft@@QAE?AV?$vector@VUnitAction@SparCraft@@V?$allocator@VUnitAction@SparCraft@@@std@@@std@@ABEABVGameState@2@@Z 00425d10 f   SparCraft:PortfolioGreedySearch.obj
 0001:00025090       ??1UnitScriptData@SparCraft@@QAE@XZ 00426090 f i SparCraft:PortfolioGreedySearch.obj
 0001:000250f0       ??0UnitScriptData@SparCraft@@QAE@ABV01@@Z 004260f0 f i SparCraft:PortfolioGreedySearch.obj
 0001:00025180       ?doPortfolioSearch@PortfolioGreedySearch@SparCraft@@IAEXABEABVGameState@2@AAVUnitScriptData@2@@Z 00426180 f   SparCraft:PortfolioGreedySearch.obj
 0001:00025470       ?calculateInitialSeed@PortfolioGreedySearch@SparCraft@@IAEEABEABVGameState@2@@Z 00426470 f   SparCraft:PortfolioGreedySearch.obj
 0001:00025720       ?eval@PortfolioGreedySearch@SparCraft@@IAE?AVStateEvalScore@2@ABEABVGameState@2@AAVUnitScriptData@2@@Z 00426720 f   SparCraft:PortfolioGreedySearch.obj
 0001:00025840       ?setAllScripts@PortfolioGreedySearch@SparCraft@@IAEXABEABVGameState@2@AAVUnitScriptData@2@0@Z 00426840 f   SparCraft:PortfolioGreedySearch.obj
 0001:000258c0       ??0?$vector@V?$shared_ptr@VPlayer@SparCraft@@@boost@@V?$allocator@V?$shared_ptr@VPlayer@SparCraft@@@boost@@@std@@@std@@QAE@ABV01@@Z 004268c0 f i SparCraft:PortfolioGreedySearch.obj
 0001:00025960       ??0?$map@HEU?$less@H@std@@V?$allocator@U?$pair@$$CBHE@std@@@2@@std@@QAE@ABV01@@Z 00426960 f i SparCraft:PortfolioGreedySearch.obj
 0001:00025980       ??0?$set@EU?$less@E@std@@V?$allocator@E@2@@std@@QAE@ABV01@@Z 00426980 f i SparCraft:PortfolioGreedySearch.obj
 0001:000259a0       ??0?$_Tree@V?$_Tmap_traits@HEU?$less@H@std@@V?$allocator@U?$pair@$$CBHE@std@@@2@$0A@@std@@@std@@QAE@ABV01@ABV?$allocator@U?$pair@$$CBHE@std@@@1@@Z 004269a0 f i SparCraft:PortfolioGreedySearch.obj
 0001:00025a40       ??0?$_Tree@V?$_Tset_traits@EU?$less@E@std@@V?$allocator@E@2@$0A@@std@@@std@@QAE@ABV01@ABV?$allocator@E@1@@Z 00426a40 f i SparCraft:PortfolioGreedySearch.obj
 0001:00025ae0       ?_Buyheadnode@?$_Tree_alloc@$0A@U?$_Tree_base_types@U?$pair@$$CBHE@std@@V?$allocator@U?$pair@$$CBHE@std@@@2@@std@@@std@@QAEPAU?$_Tree_node@U?$pair@$$CBHE@std@@PAX@2@XZ 00426ae0 f i SparCraft:PortfolioGreedySearch.obj
 0001:00025ae0       ?_Buyheadnode@?$_Tree_alloc@$0A@U?$_Tree_base_types@U?$pair@$$CBVUnitType@BWAPI@@H@std@@V?$allocator@U?$pair@$$CBVUnitType@BWAPI@@H@std@@@2@@std@@@std@@QAEPAU?$_Tree_node@U?$pair@$$CBVUnitType@BWAPI@@H@std@@PAX@2@XZ 00426ae0 f i BWAPI:UnitType.obj
 0001:00025b10       ??$_Copy@U?$integral_constant@_N$0A@@std@@@?$_Tree@V?$_Tmap_traits@HEU?$less@H@std@@V?$allocator@U?$pair@$$CBHE@std@@@2@$0A@@std@@@std@@IAEXABV01@U?$integral_constant@_N$0A@@1@@Z 00426b10 f i SparCraft:PortfolioGreedySearch.obj
 0001:00025b90       ??$_Copy@U?$integral_constant@_N$0A@@std@@@?$_Tree@V?$_Tset_traits@EU?$less@E@std@@V?$allocator@E@2@$0A@@std@@@std@@IAEXABV01@U?$integral_constant@_N$0A@@1@@Z 00426b90 f i SparCraft:PortfolioGreedySearch.obj
 0001:00025c10       ??$_Copy_nodes@U?$integral_constant@_N$0A@@std@@@?$_Tree@V?$_Tmap_traits@HEU?$less@H@std@@V?$allocator@U?$pair@$$CBHE@std@@@2@$0A@@std@@@std@@IAEPAU?$_Tree_node@U?$pair@$$CBHE@std@@PAX@1@PAU21@0U?$integral_constant@_N$0A@@1@@Z 00426c10 f i SparCraft:PortfolioGreedySearch.obj
 0001:00025cd0       ??$_Copy_nodes@U?$integral_constant@_N$0A@@std@@@?$_Tree@V?$_Tset_traits@EU?$less@E@std@@V?$allocator@E@2@$0A@@std@@@std@@IAEPAU?$_Tree_node@EPAX@1@PAU21@0U?$integral_constant@_N$0A@@1@@Z 00426cd0 f i SparCraft:PortfolioGreedySearch.obj
 0001:00025d90       ??$_Uninit_copy@V?$_Vector_const_iterator@V?$_Vector_val@U?$_Simple_types@V?$shared_ptr@VPlayer@SparCraft@@@boost@@@std@@@std@@@std@@PAV?$shared_ptr@VPlayer@SparCraft@@@boost@@V?$allocator@V?$shared_ptr@VPlayer@SparCraft@@@boost@@@2@@std@@YAPAV?$shared_ptr@VPlayer@SparCraft@@@boost@@V?$_Vector_const_iterator@V?$_Vector_val@U?$_Simple_types@V?$shared_ptr@VPlayer@SparCraft@@@boost@@@std@@@std@@@0@0PAV12@AAU?$_Wrap_alloc@V?$allocator@V?$shared_ptr@VPlayer@SparCraft@@@boost@@@std@@@0@U_Nonscalar_ptr_iterator_tag@0@@Z 00426d90 f i SparCraft:PortfolioGreedySearch.obj
 0001:00025de0       ??$_Buynode@U?$pair@VUnitType@BWAPI@@H@std@@@?$_Tree_buy@U?$pair@$$CBVUnitType@BWAPI@@H@std@@V?$allocator@U?$pair@$$CBVUnitType@BWAPI@@H@std@@@2@@std@@QAEPAU?$_Tree_node@U?$pair@$$CBVUnitType@BWAPI@@H@std@@PAX@1@$$QAU?$pair@VUnitType@BWAPI@@H@1@@Z 00426de0 f i BWAPI:UnitType.obj
 0001:00025de0       ??$_Buynode@AAU?$pair@$$CBHE@std@@@?$_Tree_buy@U?$pair@$$CBHE@std@@V?$allocator@U?$pair@$$CBHE@std@@@2@@std@@QAEPAU?$_Tree_node@U?$pair@$$CBHE@std@@PAX@1@AAU?$pair@$$CBHE@1@@Z 00426de0 f i SparCraft:PortfolioGreedySearch.obj
 0001:00025de0       ??$_Buynode@AAU?$pair@VUnitType@BWAPI@@H@std@@@?$_Tree_buy@U?$pair@$$CBVUnitType@BWAPI@@H@std@@V?$allocator@U?$pair@$$CBVUnitType@BWAPI@@H@std@@@2@@std@@QAEPAU?$_Tree_node@U?$pair@$$CBVUnitType@BWAPI@@H@std@@PAX@1@AAU?$pair@VUnitType@BWAPI@@H@1@@Z 00426de0 f i BWAPI:UnitType.obj
 0001:00025e10       ?_Buynode0@?$_Tree_buy@U?$pair@$$CBHE@std@@V?$allocator@U?$pair@$$CBHE@std@@@2@@std@@QAEPAU?$_Tree_node@U?$pair@$$CBHE@std@@PAX@2@XZ 00426e10 f i SparCraft:PortfolioGreedySearch.obj
 0001:00025e10       ?_Buynode0@?$_Tree_buy@U?$pair@$$CBVUnitType@BWAPI@@H@std@@V?$allocator@U?$pair@$$CBVUnitType@BWAPI@@H@std@@@2@@std@@QAEPAU?$_Tree_node@U?$pair@$$CBVUnitType@BWAPI@@H@std@@PAX@2@XZ 00426e10 f i BWAPI:UnitType.obj
 0001:00025e50       ??0UnitScriptData@SparCraft@@QAE@XZ 00426e50 f   SparCraft:UnitScriptData.obj
 0001:00025f20       ?calculateMoves@UnitScriptData@SparCraft@@QAEXABEAAVMoveArray@2@AAVGameState@2@AAV?$vector@VUnitAction@SparCraft@@V?$allocator@VUnitAction@SparCraft@@@std@@@std@@@Z 00426f20 f   SparCraft:UnitScriptData.obj
 0001:000260a0       ?setUnitScript@UnitScriptData@SparCraft@@QAEXABEABH0@Z 004270a0 f   SparCraft:UnitScriptData.obj
 0001:000261b0       ??0?$map@HEU?$less@H@std@@V?$allocator@U?$pair@$$CBHE@std@@@2@@std@@QAE@XZ 004271b0 f i SparCraft:UnitScriptData.obj
 0001:000261d0       ??A?$map@HEU?$less@H@std@@V?$allocator@U?$pair@$$CBHE@std@@@2@@std@@QAEAAEABH@Z 004271d0 f i SparCraft:UnitScriptData.obj
 0001:00026260       ??$_Buynode@U?$pair@HE@std@@@?$_Tree_buy@U?$pair@$$CBHE@std@@V?$allocator@U?$pair@$$CBHE@std@@@2@@std@@QAEPAU?$_Tree_node@U?$pair@$$CBHE@std@@PAX@1@$$QAU?$pair@HE@1@@Z 00427260 f i SparCraft:UnitScriptData.obj
 0001:00026290       ??$_Insert_hint@AAU?$pair@$$CBHE@std@@PAU?$_Tree_node@U?$pair@$$CBHE@std@@PAX@2@@?$_Tree@V?$_Tmap_traits@HEU?$less@H@std@@V?$allocator@U?$pair@$$CBHE@std@@@2@$0A@@std@@@std@@IAE?AV?$_Tree_iterator@V?$_Tree_val@U?$_Tree_simple_types@U?$pair@$$CBHE@std@@@std@@@std@@@1@V?$_Tree_const_iterator@V?$_Tree_val@U?$_Tree_simple_types@U?$pair@$$CBHE@std@@@std@@@std@@@1@AAU?$pair@$$CBHE@1@PAU?$_Tree_node@U?$pair@$$CBHE@std@@PAX@1@@Z 00427290 f i SparCraft:UnitScriptData.obj
 0001:000264b0       ??$_Insert_at@AAU?$pair@$$CBHE@std@@PAU?$_Tree_node@U?$pair@$$CBHE@std@@PAX@2@@?$_Tree@V?$_Tmap_traits@HEU?$less@H@std@@V?$allocator@U?$pair@$$CBHE@std@@@2@$0A@@std@@@std@@IAE?AV?$_Tree_iterator@V?$_Tree_val@U?$_Tree_simple_types@U?$pair@$$CBHE@std@@@std@@@std@@@1@_NPAU?$_Tree_node@U?$pair@$$CBHE@std@@PAX@1@AAU?$pair@$$CBHE@1@1@Z 004274b0 f i SparCraft:UnitScriptData.obj
 0001:000264b0       ??$_Insert_at@AAU?$pair@$$CBVUnitType@BWAPI@@H@std@@PAU?$_Tree_node@U?$pair@$$CBVUnitType@BWAPI@@H@std@@PAX@2@@?$_Tree@V?$_Tmap_traits@VUnitType@BWAPI@@HU?$less@VUnitType@BWAPI@@@std@@V?$allocator@U?$pair@$$CBVUnitType@BWAPI@@H@std@@@4@$0A@@std@@@std@@IAE?AV?$_Tree_iterator@V?$_Tree_val@U?$_Tree_simple_types@U?$pair@$$CBVUnitType@BWAPI@@H@std@@@std@@@std@@@1@_NPAU?$_Tree_node@U?$pair@$$CBVUnitType@BWAPI@@H@std@@PAX@1@AAU?$pair@$$CBVUnitType@BWAPI@@H@1@1@Z 004274b0 f i BWAPI:UnitType.obj
 0001:000266c0       ??$_Insert_nohint@AAU?$pair@$$CBVUnitType@BWAPI@@H@std@@PAU?$_Tree_node@U?$pair@$$CBVUnitType@BWAPI@@H@std@@PAX@2@@?$_Tree@V?$_Tmap_traits@VUnitType@BWAPI@@HU?$less@VUnitType@BWAPI@@@std@@V?$allocator@U?$pair@$$CBVUnitType@BWAPI@@H@std@@@4@$0A@@std@@@std@@IAE?AU?$pair@V?$_Tree_iterator@V?$_Tree_val@U?$_Tree_simple_types@U?$pair@$$CBVUnitType@BWAPI@@H@std@@@std@@@std@@@std@@_N@1@_NAAU?$pair@$$CBVUnitType@BWAPI@@H@1@PAU?$_Tree_node@U?$pair@$$CBVUnitType@BWAPI@@H@std@@PAX@1@@Z 004276c0 f i BWAPI:UnitType.obj
 0001:000266c0       ??$_Insert_nohint@AAU?$pair@$$CBHE@std@@PAU?$_Tree_node@U?$pair@$$CBHE@std@@PAX@2@@?$_Tree@V?$_Tmap_traits@HEU?$less@H@std@@V?$allocator@U?$pair@$$CBHE@std@@@2@$0A@@std@@@std@@IAE?AU?$pair@V?$_Tree_iterator@V?$_Tree_val@U?$_Tree_simple_types@U?$pair@$$CBHE@std@@@std@@@std@@@std@@_N@1@_NAAU?$pair@$$CBHE@1@PAU?$_Tree_node@U?$pair@$$CBHE@std@@PAX@1@@Z 004276c0 f i SparCraft:UnitScriptData.obj
 0001:000267d0       ?doSearch@UCTSearch@SparCraft@@QAEXAAVGameState@2@AAV?$vector@VUnitAction@SparCraft@@V?$allocator@VUnitAction@SparCraft@@@std@@@std@@@Z 004277d0 f   SparCraft:UCTSearch.obj
 0001:00026b40       ?getPlayerToMove@UCTSearch@SparCraft@@QBE?BEAAVUCTNode@2@ABVGameState@2@@Z 00427b40 f   SparCraft:UCTSearch.obj
 0001:00026c50       ?traverse@UCTSearch@SparCraft@@QAE?AVStateEvalScore@2@AAVUCTNode@2@AAVGameState@2@@Z 00427c50 f   SparCraft:UCTSearch.obj
 0001:00026da0       ?generateChildren@UCTSearch@SparCraft@@QAEXAAVUCTNode@2@AAVGameState@2@@Z 00427da0 f   SparCraft:UCTSearch.obj
 0001:00026f60       ??0UnitTypeInternal@BWAPI@@QAE@XZ 00427f60 f i BWAPI:UnitType.obj
 0001:00027060       ?set@UnitTypeInternal@BWAPI@@QAEXPBDVRace@2@_NVUnitType@2@H33VTechType@2@4444VUpgradeType@2@HHHHHHHHHHHHHVUnitSizeType@2@HHHHHHHHVWeaponType@2@H7HNHHH22222222222222222222222@Z 00428060 f i BWAPI:UnitType.obj
 0001:00027500       ??1?$set@VTechType@BWAPI@@U?$less@VTechType@BWAPI@@@std@@V?$allocator@VTechType@BWAPI@@@4@@std@@QAE@XZ 00428500 f i BWAPI:UnitType.obj
 0001:00027500       ??1?$map@VUnitType@BWAPI@@HU?$less@VUnitType@BWAPI@@@std@@V?$allocator@U?$pair@$$CBVUnitType@BWAPI@@H@std@@@4@@std@@QAE@XZ 00428500 f i BWAPI:UnitType.obj
 0001:00027530       ??1UnitTypeInternal@BWAPI@@QAE@XZ 00428530 f i BWAPI:UnitType.obj
 0001:000275d0       ?init@UnitTypes@BWAPI@@YAXXZ 004285d0 f   BWAPI:UnitType.obj
 0001:00037550       ??0Race@BWAPI@@QAE@ABV01@@Z 00438550 f   BWAPI:Race.obj
 0001:00037550       ??0UnitSizeType@BWAPI@@QAE@ABV01@@Z 00438550 f   BWAPI:UnitSizeType.obj
 0001:00037550       ??0WeaponType@BWAPI@@QAE@ABV01@@Z 00438550 f   BWAPI:WeaponType.obj
 0001:00037550       ??0Order@BWAPI@@QAE@ABV01@@Z 00438550 f   BWAPI:Order.obj
 0001:00037550       ??0TechType@BWAPI@@QAE@ABV01@@Z 00438550 f   BWAPI:TechType.obj
 0001:00037550       ??0UpgradeType@BWAPI@@QAE@ABV01@@Z 00438550 f   BWAPI:UpgradeType.obj
 0001:00037550       ??0UnitType@BWAPI@@QAE@ABV01@@Z 00438550 f   BWAPI:UnitType.obj
 0001:00037560       ?getID@UnitType@BWAPI@@QBEHXZ 00438560 f   BWAPI:UnitType.obj
 0001:00037570       ?getName@UnitType@BWAPI@@QBE?AV?$basic_string@DU?$char_traits@D@std@@V?$allocator@D@2@@std@@XZ 00438570 f   BWAPI:UnitType.obj
 0001:000375b0       ?find@?$_Tree@V?$_Tset_traits@VTechType@BWAPI@@U?$less@VTechType@BWAPI@@@std@@V?$allocator@VTechType@BWAPI@@@4@$0A@@std@@@std@@QAE?AV?$_Tree_const_iterator@V?$_Tree_val@U?$_Tree_simple_types@VTechType@BWAPI@@@std@@@std@@@2@ABVTechType@BWAPI@@@Z 004385b0 f i BWAPI:UnitType.obj
 0001:00037600       ?insert@?$set@VUnitType@BWAPI@@U?$less@VUnitType@BWAPI@@@std@@V?$allocator@VUnitType@BWAPI@@@4@@std@@QAE?AU?$pair@V?$_Tree_const_iterator@V?$_Tree_val@U?$_Tree_simple_types@VUnitType@BWAPI@@@std@@@std@@@std@@_N@2@ABVUnitType@BWAPI@@@Z 00438600 f i BWAPI:UnitType.obj
 0001:00037600       ?insert@?$set@VUpgradeType@BWAPI@@U?$less@VUpgradeType@BWAPI@@@std@@V?$allocator@VUpgradeType@BWAPI@@@4@@std@@QAE?AU?$pair@V?$_Tree_const_iterator@V?$_Tree_val@U?$_Tree_simple_types@VUpgradeType@BWAPI@@@std@@@std@@@std@@_N@2@ABVUpgradeType@BWAPI@@@Z 00438600 f i BWAPI:UnitType.obj
 0001:00037630       ?find@?$_Tree@V?$_Tmap_traits@V?$basic_string@DU?$char_traits@D@std@@V?$allocator@D@2@@std@@VUnitType@BWAPI@@U?$less@V?$basic_string@DU?$char_traits@D@std@@V?$allocator@D@2@@std@@@2@V?$allocator@U?$pair@$$CBV?$basic_string@DU?$char_traits@D@std@@V?$allocator@D@2@@std@@VUnitType@BWAPI@@@std@@@2@$0A@@std@@@std@@QAE?AV?$_Tree_iterator@V?$_Tree_val@U?$_Tree_simple_types@U?$pair@$$CBV?$basic_string@DU?$char_traits@D@std@@V?$allocator@D@2@@std@@VUnitType@BWAPI@@@std@@@std@@@std@@@2@ABV?$basic_string@DU?$char_traits@D@std@@V?$allocator@D@2@@2@@Z 00438630 f i BWAPI:UnitType.obj
 0001:000376b0       ??9?$_Tree_const_iterator@V?$_Tree_val@U?$_Tree_simple_types@VUnitType@BWAPI@@@std@@@std@@@std@@QBE_NABV01@@Z 004386b0 f i BWAPI:UnitType.obj
 0001:000376b0       ??9?$_Tree_const_iterator@V?$_Tree_val@U?$_Tree_simple_types@VOrder@BWAPI@@@std@@@std@@@std@@QBE_NABV01@@Z 004386b0 f i BWAPI:Order.obj
 0001:000376b0       ??9?$_Tree_const_iterator@V?$_Tree_val@U?$_Tree_simple_types@VWeaponType@BWAPI@@@std@@@std@@@std@@QBE_NABV01@@Z 004386b0 f i BWAPI:WeaponType.obj
 0001:000376b0       ??9?$_Tree_const_iterator@V?$_Tree_val@U?$_Tree_simple_types@VUpgradeType@BWAPI@@@std@@@std@@@std@@QBE_NABV01@@Z 004386b0 f i BWAPI:UnitType.obj
 0001:000376c0       ?insert@?$_Tree@V?$_Tset_traits@VUpgradeType@BWAPI@@U?$less@VUpgradeType@BWAPI@@@std@@V?$allocator@VUpgradeType@BWAPI@@@4@$0A@@std@@@std@@QAE?AU?$pair@V?$_Tree_const_iterator@V?$_Tree_val@U?$_Tree_simple_types@VUpgradeType@BWAPI@@@std@@@std@@@std@@_N@2@ABVUpgradeType@BWAPI@@@Z 004386c0 f i BWAPI:UnitType.obj
 0001:000376f0       ?erase@?$_Tree@V?$_Tset_traits@VUnitType@BWAPI@@U?$less@VUnitType@BWAPI@@@std@@V?$allocator@VUnitType@BWAPI@@@4@$0A@@std@@@std@@QAE?AV?$_Tree_const_iterator@V?$_Tree_val@U?$_Tree_simple_types@VUnitType@BWAPI@@@std@@@std@@@2@V32@0@Z 004386f0 f i BWAPI:UnitType.obj
 0001:000376f0       ?erase@?$_Tree@V?$_Tset_traits@VWeaponType@BWAPI@@U?$less@VWeaponType@BWAPI@@@std@@V?$allocator@VWeaponType@BWAPI@@@4@$0A@@std@@@std@@QAE?AV?$_Tree_const_iterator@V?$_Tree_val@U?$_Tree_simple_types@VWeaponType@BWAPI@@@std@@@std@@@2@V32@0@Z 004386f0 f i BWAPI:WeaponType.obj
 0001:000376f0       ?erase@?$_Tree@V?$_Tset_traits@VTechType@BWAPI@@U?$less@VTechType@BWAPI@@@std@@V?$allocator@VTechType@BWAPI@@@4@$0A@@std@@@std@@QAE?AV?$_Tree_const_iterator@V?$_Tree_val@U?$_Tree_simple_types@VTechType@BWAPI@@@std@@@std@@@2@V32@0@Z 004386f0 f i BWAPI:UnitType.obj
 0001:000376f0       ?erase@?$_Tree@V?$_Tset_traits@VUpgradeType@BWAPI@@U?$less@VUpgradeType@BWAPI@@@std@@V?$allocator@VUpgradeType@BWAPI@@@4@$0A@@std@@@std@@QAE?AV?$_Tree_const_iterator@V?$_Tree_val@U?$_Tree_simple_types@VUpgradeType@BWAPI@@@std@@@std@@@2@V32@0@Z 004386f0 f i BWAPI:UnitType.obj
 0001:000376f0       ?erase@?$_Tree@V?$_Tmap_traits@VUnitType@BWAPI@@HU?$less@VUnitType@BWAPI@@@std@@V?$allocator@U?$pair@$$CBVUnitType@BWAPI@@H@std@@@4@$0A@@std@@@std@@QAE?AV?$_Tree_iterator@V?$_Tree_val@U?$_Tree_simple_types@U?$pair@$$CBVUnitType@BWAPI@@H@std@@@std@@@std@@@2@V?$_Tree_const_iterator@V?$_Tree_val@U?$_Tree_simple_types@U?$pair@$$CBVUnitType@BWAPI@@H@std@@@std@@@std@@@2@0@Z 004386f0 f i BWAPI:UnitType.obj
 0001:000377b0       ?erase@?$_Tree@V?$_Tmap_traits@V?$basic_string@DU?$char_traits@D@std@@V?$allocator@D@2@@std@@VUnitType@BWAPI@@U?$less@V?$basic_string@DU?$char_traits@D@std@@V?$allocator@D@2@@std@@@2@V?$allocator@U?$pair@$$CBV?$basic_string@DU?$char_traits@D@std@@V?$allocator@D@2@@std@@VUnitType@BWAPI@@@std@@@2@$0A@@std@@@std@@QAE?AV?$_Tree_iterator@V?$_Tree_val@U?$_Tree_simple_types@U?$pair@$$CBV?$basic_string@DU?$char_traits@D@std@@V?$allocator@D@2@@std@@VUnitType@BWAPI@@@std@@@std@@@std@@@2@V?$_Tree_const_iterator@V?$_Tree_val@U?$_Tree_simple_types@U?$pair@$$CBV?$basic_string@DU?$char_traits@D@std@@V?$allocator@D@2@@std@@VUnitType@BWAPI@@@std@@@std@@@std@@@2@0@Z 004387b0 f i BWAPI:UnitType.obj
 0001:00037880       ?_Lbound@?$_Tree@V?$_Tmap_traits@V?$basic_string@DU?$char_traits@D@std@@V?$allocator@D@2@@std@@VUnitType@BWAPI@@U?$less@V?$basic_string@DU?$char_traits@D@std@@V?$allocator@D@2@@std@@@2@V?$allocator@U?$pair@$$CBV?$basic_string@DU?$char_traits@D@std@@V?$allocator@D@2@@std@@VUnitType@BWAPI@@@std@@@2@$0A@@std@@@std@@IAEPAU?$_Tree_node@U?$pair@$$CBV?$basic_string@DU?$char_traits@D@std@@V?$allocator@D@2@@std@@VUnitType@BWAPI@@@std@@PAX@2@ABV?$basic_string@DU?$char_traits@D@std@@V?$allocator@D@2@@2@@Z 00438880 f i BWAPI:UnitType.obj
 0001:00037960       ?erase@?$_Tree@V?$_Tset_traits@VWeaponType@BWAPI@@U?$less@VWeaponType@BWAPI@@@std@@V?$allocator@VWeaponType@BWAPI@@@4@$0A@@std@@@std@@QAE?AV?$_Tree_const_iterator@V?$_Tree_val@U?$_Tree_simple_types@VWeaponType@BWAPI@@@std@@@std@@@2@V32@@Z 00438960 f i BWAPI:WeaponType.obj
 0001:00037960       ?erase@?$_Tree@V?$_Tset_traits@VUnitType@BWAPI@@U?$less@VUnitType@BWAPI@@@std@@V?$allocator@VUnitType@BWAPI@@@4@$0A@@std@@@std@@QAE?AV?$_Tree_const_iterator@V?$_Tree_val@U?$_Tree_simple_types@VUnitType@BWAPI@@@std@@@std@@@2@V32@@Z 00438960 f i BWAPI:UnitType.obj
 0001:00037960       ?erase@?$_Tree@V?$_Tmap_traits@VUnitType@BWAPI@@HU?$less@VUnitType@BWAPI@@@std@@V?$allocator@U?$pair@$$CBVUnitType@BWAPI@@H@std@@@4@$0A@@std@@@std@@QAE?AV?$_Tree_iterator@V?$_Tree_val@U?$_Tree_simple_types@U?$pair@$$CBVUnitType@BWAPI@@H@std@@@std@@@std@@@2@V?$_Tree_const_iterator@V?$_Tree_val@U?$_Tree_simple_types@U?$pair@$$CBVUnitType@BWAPI@@H@std@@@std@@@std@@@2@@Z 00438960 f i BWAPI:UnitType.obj
 0001:00037960       ?erase@?$_Tree@V?$_Tset_traits@VTechType@BWAPI@@U?$less@VTechType@BWAPI@@@std@@V?$allocator@VTechType@BWAPI@@@4@$0A@@std@@@std@@QAE?AV?$_Tree_const_iterator@V?$_Tree_val@U?$_Tree_simple_types@VTechType@BWAPI@@@std@@@std@@@2@V32@@Z 00438960 f i BWAPI:UnitType.obj
 0001:00037960       ?erase@?$_Tree@V?$_Tset_traits@VUpgradeType@BWAPI@@U?$less@VUpgradeType@BWAPI@@@std@@V?$allocator@VUpgradeType@BWAPI@@@4@$0A@@std@@@std@@QAE?AV?$_Tree_const_iterator@V?$_Tree_val@U?$_Tree_simple_types@VUpgradeType@BWAPI@@@std@@@std@@@2@V32@@Z 00438960 f i BWAPI:UnitType.obj
 0001:00037bb0       ?erase@?$_Tree@V?$_Tmap_traits@V?$basic_string@DU?$char_traits@D@std@@V?$allocator@D@2@@std@@VUnitType@BWAPI@@U?$less@V?$basic_string@DU?$char_traits@D@std@@V?$allocator@D@2@@std@@@2@V?$allocator@U?$pair@$$CBV?$basic_string@DU?$char_traits@D@std@@V?$allocator@D@2@@std@@VUnitType@BWAPI@@@std@@@2@$0A@@std@@@std@@QAE?AV?$_Tree_iterator@V?$_Tree_val@U?$_Tree_simple_types@U?$pair@$$CBV?$basic_string@DU?$char_traits@D@std@@V?$allocator@D@2@@std@@VUnitType@BWAPI@@@std@@@std@@@std@@@2@V?$_Tree_const_iterator@V?$_Tree_val@U?$_Tree_simple_types@U?$pair@$$CBV?$basic_string@DU?$char_traits@D@std@@V?$allocator@D@2@@std@@VUnitType@BWAPI@@@std@@@std@@@std@@@2@@Z 00438bb0 f i BWAPI:UnitType.obj
 0001:00037e30       ?_Lrotate@?$_Tree@V?$_Tmap_traits@V?$basic_string@DU?$char_traits@D@std@@V?$allocator@D@2@@std@@VUnitType@BWAPI@@U?$less@V?$basic_string@DU?$char_traits@D@std@@V?$allocator@D@2@@std@@@2@V?$allocator@U?$pair@$$CBV?$basic_string@DU?$char_traits@D@std@@V?$allocator@D@2@@std@@VUnitType@BWAPI@@@std@@@2@$0A@@std@@@std@@IAEXPAU?$_Tree_node@U?$pair@$$CBV?$basic_string@DU?$char_traits@D@std@@V?$allocator@D@2@@std@@VUnitType@BWAPI@@@std@@PAX@2@@Z 00438e30 f i BWAPI:UnitType.obj
 0001:00037e80       ?_Rrotate@?$_Tree@V?$_Tmap_traits@V?$basic_string@DU?$char_traits@D@std@@V?$allocator@D@2@@std@@VUnitType@BWAPI@@U?$less@V?$basic_string@DU?$char_traits@D@std@@V?$allocator@D@2@@std@@@2@V?$allocator@U?$pair@$$CBV?$basic_string@DU?$char_traits@D@std@@V?$allocator@D@2@@std@@VUnitType@BWAPI@@@std@@@2@$0A@@std@@@std@@IAEXPAU?$_Tree_node@U?$pair@$$CBV?$basic_string@DU?$char_traits@D@std@@V?$allocator@D@2@@std@@VUnitType@BWAPI@@@std@@PAX@2@@Z 00438e80 f i BWAPI:UnitType.obj
 0001:00037ee0       ?_Buyheadnode@?$_Tree_alloc@$0A@U?$_Tree_base_types@VGameType@BWAPI@@V?$allocator@VGameType@BWAPI@@@std@@@std@@@std@@QAEPAU?$_Tree_node@VGameType@BWAPI@@PAX@2@XZ 00438ee0 f i BWAPI:GameType.obj
 0001:00037ee0       ?_Buyheadnode@?$_Tree_alloc@$0A@U?$_Tree_base_types@VExplosionType@BWAPI@@V?$allocator@VExplosionType@BWAPI@@@std@@@std@@@std@@QAEPAU?$_Tree_node@VExplosionType@BWAPI@@PAX@2@XZ 00438ee0 f i BWAPI:ExplosionType.obj
 0001:00037ee0       ?_Buyheadnode@?$_Tree_alloc@$0A@U?$_Tree_base_types@VRace@BWAPI@@V?$allocator@VRace@BWAPI@@@std@@@std@@@std@@QAEPAU?$_Tree_node@VRace@BWAPI@@PAX@2@XZ 00438ee0 f i BWAPI:Race.obj
 0001:00037ee0       ?_Buyheadnode@?$_Tree_alloc@$0A@U?$_Tree_base_types@VUnitSizeType@BWAPI@@V?$allocator@VUnitSizeType@BWAPI@@@std@@@std@@@std@@QAEPAU?$_Tree_node@VUnitSizeType@BWAPI@@PAX@2@XZ 00438ee0 f i BWAPI:UnitSizeType.obj
 0001:00037ee0       ?_Buyheadnode@?$_Tree_alloc@$0A@U?$_Tree_base_types@VUpgradeType@BWAPI@@V?$allocator@VUpgradeType@BWAPI@@@std@@@std@@@std@@QAEPAU?$_Tree_node@VUpgradeType@BWAPI@@PAX@2@XZ 00438ee0 f i BWAPI:UnitType.obj
 0001:00037ee0       ?_Buyheadnode@?$_Tree_alloc@$0A@U?$_Tree_base_types@VUnitCommandType@BWAPI@@V?$allocator@VUnitCommandType@BWAPI@@@std@@@std@@@std@@QAEPAU?$_Tree_node@VUnitCommandType@BWAPI@@PAX@2@XZ 00438ee0 f i BWAPI:UnitCommandType.obj
 0001:00037ee0       ?_Buyheadnode@?$_Tree_alloc@$0A@U?$_Tree_base_types@VWeaponType@BWAPI@@V?$allocator@VWeaponType@BWAPI@@@std@@@std@@@std@@QAEPAU?$_Tree_node@VWeaponType@BWAPI@@PAX@2@XZ 00438ee0 f i BWAPI:WeaponType.obj
 0001:00037ee0       ?_Buyheadnode@?$_Tree_alloc@$0A@U?$_Tree_base_types@VError@BWAPI@@V?$allocator@VError@BWAPI@@@std@@@std@@@std@@QAEPAU?$_Tree_node@VError@BWAPI@@PAX@2@XZ 00438ee0 f i BWAPI:Error.obj
 0001:00037ee0       ?_Buyheadnode@?$_Tree_alloc@$0A@U?$_Tree_base_types@VUnitType@BWAPI@@V?$allocator@VUnitType@BWAPI@@@std@@@std@@@std@@QAEPAU?$_Tree_node@VUnitType@BWAPI@@PAX@2@XZ 00438ee0 f i BWAPI:UnitType.obj
 0001:00037ee0       ?_Buyheadnode@?$_Tree_alloc@$0A@U?$_Tree_base_types@VOrder@BWAPI@@V?$allocator@VOrder@BWAPI@@@std@@@std@@@std@@QAEPAU?$_Tree_node@VOrder@BWAPI@@PAX@2@XZ 00438ee0 f i BWAPI:Order.obj
 0001:00037ee0       ?_Buyheadnode@?$_Tree_alloc@$0A@U?$_Tree_base_types@VTechType@BWAPI@@V?$allocator@VTechType@BWAPI@@@std@@@std@@@std@@QAEPAU?$_Tree_node@VTechType@BWAPI@@PAX@2@XZ 00438ee0 f i BWAPI:UnitType.obj
 0001:00037ee0       ?_Buyheadnode@?$_Tree_alloc@$0A@U?$_Tree_base_types@VDamageType@BWAPI@@V?$allocator@VDamageType@BWAPI@@@std@@@std@@@std@@QAEPAU?$_Tree_node@VDamageType@BWAPI@@PAX@2@XZ 00438ee0 f i BWAPI:DamageType.obj
 0001:00037ee0       ?_Buyheadnode@?$_Tree_alloc@$0A@U?$_Tree_base_types@VBulletType@BWAPI@@V?$allocator@VBulletType@BWAPI@@@std@@@std@@@std@@QAEPAU?$_Tree_node@VBulletType@BWAPI@@PAX@2@XZ 00438ee0 f i BWAPI:BulletType.obj
 0001:00037ee0       ?_Buyheadnode@?$_Tree_alloc@$0A@U?$_Tree_base_types@VPlayerType@BWAPI@@V?$allocator@VPlayerType@BWAPI@@@std@@@std@@@std@@QAEPAU?$_Tree_node@VPlayerType@BWAPI@@PAX@2@XZ 00438ee0 f i BWAPI:PlayerType.obj
 0001:00037f10       ??$make_pair@AAV?$basic_string@DU?$char_traits@D@std@@V?$allocator@D@2@@std@@AAVUnitCommandType@BWAPI@@@std@@YA?AU?$pair@V?$basic_string@DU?$char_traits@D@std@@V?$allocator@D@2@@std@@VUnitCommandType@BWAPI@@@0@AAV?$basic_string@DU?$char_traits@D@std@@V?$allocator@D@2@@0@AAVUnitCommandType@BWAPI@@@Z 00438f10 f i BWAPI:UnitCommandType.obj
 0001:00037f10       ??$make_pair@AAV?$basic_string@DU?$char_traits@D@std@@V?$allocator@D@2@@std@@AAVError@BWAPI@@@std@@YA?AU?$pair@V?$basic_string@DU?$char_traits@D@std@@V?$allocator@D@2@@std@@VError@BWAPI@@@0@AAV?$basic_string@DU?$char_traits@D@std@@V?$allocator@D@2@@0@AAVError@BWAPI@@@Z 00438f10 f i BWAPI:Error.obj
 0001:00037f10       ??$make_pair@AAV?$basic_string@DU?$char_traits@D@std@@V?$allocator@D@2@@std@@AAVRace@BWAPI@@@std@@YA?AU?$pair@V?$basic_string@DU?$char_traits@D@std@@V?$allocator@D@2@@std@@VRace@BWAPI@@@0@AAV?$basic_string@DU?$char_traits@D@std@@V?$allocator@D@2@@0@AAVRace@BWAPI@@@Z 00438f10 f i BWAPI:Race.obj
 0001:00037f10       ??$make_pair@AAV?$basic_string@DU?$char_traits@D@std@@V?$allocator@D@2@@std@@AAVUpgradeType@BWAPI@@@std@@YA?AU?$pair@V?$basic_string@DU?$char_traits@D@std@@V?$allocator@D@2@@std@@VUpgradeType@BWAPI@@@0@AAV?$basic_string@DU?$char_traits@D@std@@V?$allocator@D@2@@0@AAVUpgradeType@BWAPI@@@Z 00438f10 f i BWAPI:UpgradeType.obj
 0001:00037f10       ??$make_pair@AAV?$basic_string@DU?$char_traits@D@std@@V?$allocator@D@2@@std@@AAVExplosionType@BWAPI@@@std@@YA?AU?$pair@V?$basic_string@DU?$char_traits@D@std@@V?$allocator@D@2@@std@@VExplosionType@BWAPI@@@0@AAV?$basic_string@DU?$char_traits@D@std@@V?$allocator@D@2@@0@AAVExplosionType@BWAPI@@@Z 00438f10 f i BWAPI:ExplosionType.obj
 0001:00037f10       ??$make_pair@AAV?$basic_string@DU?$char_traits@D@std@@V?$allocator@D@2@@std@@AAVUnitSizeType@BWAPI@@@std@@YA?AU?$pair@V?$basic_string@DU?$char_traits@D@std@@V?$allocator@D@2@@std@@VUnitSizeType@BWAPI@@@0@AAV?$basic_string@DU?$char_traits@D@std@@V?$allocator@D@2@@0@AAVUnitSizeType@BWAPI@@@Z 00438f10 f i BWAPI:UnitSizeType.obj
 0001:00037f10       ??$make_pair@AAV?$basic_string@DU?$char_traits@D@std@@V?$allocator@D@2@@std@@AAVUnitType@BWAPI@@@std@@YA?AU?$pair@V?$basic_string@DU?$char_traits@D@std@@V?$allocator@D@2@@std@@VUnitType@BWAPI@@@0@AAV?$basic_string@DU?$char_traits@D@std@@V?$allocator@D@2@@0@AAVUnitType@BWAPI@@@Z 00438f10 f i BWAPI:UnitType.obj
 0001:00037f10       ??$make_pair@AAV?$basic_string@DU?$char_traits@D@std@@V?$allocator@D@2@@std@@AAVTechType@BWAPI@@@std@@YA?AU?$pair@V?$basic_string@DU?$char_traits@D@std@@V?$allocator@D@2@@std@@VTechType@BWAPI@@@0@AAV?$basic_string@DU?$char_traits@D@std@@V?$allocator@D@2@@0@AAVTechType@BWAPI@@@Z 00438f10 f i BWAPI:TechType.obj
 0001:00037f10       ??$make_pair@AAV?$basic_string@DU?$char_traits@D@std@@V?$allocator@D@2@@std@@AAVWeaponType@BWAPI@@@std@@YA?AU?$pair@V?$basic_string@DU?$char_traits@D@std@@V?$allocator@D@2@@std@@VWeaponType@BWAPI@@@0@AAV?$basic_string@DU?$char_traits@D@std@@V?$allocator@D@2@@0@AAVWeaponType@BWAPI@@@Z 00438f10 f i BWAPI:WeaponType.obj
 0001:00037f10       ??$make_pair@AAV?$basic_string@DU?$char_traits@D@std@@V?$allocator@D@2@@std@@AAVBulletType@BWAPI@@@std@@YA?AU?$pair@V?$basic_string@DU?$char_traits@D@std@@V?$allocator@D@2@@std@@VBulletType@BWAPI@@@0@AAV?$basic_string@DU?$char_traits@D@std@@V?$allocator@D@2@@0@AAVBulletType@BWAPI@@@Z 00438f10 f i BWAPI:BulletType.obj
 0001:00037f10       ??$make_pair@AAV?$basic_string@DU?$char_traits@D@std@@V?$allocator@D@2@@std@@AAVDamageType@BWAPI@@@std@@YA?AU?$pair@V?$basic_string@DU?$char_traits@D@std@@V?$allocator@D@2@@std@@VDamageType@BWAPI@@@0@AAV?$basic_string@DU?$char_traits@D@std@@V?$allocator@D@2@@0@AAVDamageType@BWAPI@@@Z 00438f10 f i BWAPI:DamageType.obj
 0001:00037f10       ??$make_pair@AAV?$basic_string@DU?$char_traits@D@std@@V?$allocator@D@2@@std@@AAVGameType@BWAPI@@@std@@YA?AU?$pair@V?$basic_string@DU?$char_traits@D@std@@V?$allocator@D@2@@std@@VGameType@BWAPI@@@0@AAV?$basic_string@DU?$char_traits@D@std@@V?$allocator@D@2@@0@AAVGameType@BWAPI@@@Z 00438f10 f i BWAPI:GameType.obj
 0001:00037f10       ??$make_pair@AAV?$basic_string@DU?$char_traits@D@std@@V?$allocator@D@2@@std@@AAVPlayerType@BWAPI@@@std@@YA?AU?$pair@V?$basic_string@DU?$char_traits@D@std@@V?$allocator@D@2@@std@@VPlayerType@BWAPI@@@0@AAV?$basic_string@DU?$char_traits@D@std@@V?$allocator@D@2@@0@AAVPlayerType@BWAPI@@@Z 00438f10 f i BWAPI:PlayerType.obj
 0001:00037f10       ??$make_pair@AAV?$basic_string@DU?$char_traits@D@std@@V?$allocator@D@2@@std@@AAVOrder@BWAPI@@@std@@YA?AU?$pair@V?$basic_string@DU?$char_traits@D@std@@V?$allocator@D@2@@std@@VOrder@BWAPI@@@0@AAV?$basic_string@DU?$char_traits@D@std@@V?$allocator@D@2@@0@AAVOrder@BWAPI@@@Z 00438f10 f i BWAPI:Order.obj
 0001:00037f90       ??$insert@U?$pair@V?$basic_string@DU?$char_traits@D@std@@V?$allocator@D@2@@std@@VUnitType@BWAPI@@@std@@@?$_Tree@V?$_Tmap_traits@V?$basic_string@DU?$char_traits@D@std@@V?$allocator@D@2@@std@@VUnitType@BWAPI@@U?$less@V?$basic_string@DU?$char_traits@D@std@@V?$allocator@D@2@@std@@@2@V?$allocator@U?$pair@$$CBV?$basic_string@DU?$char_traits@D@std@@V?$allocator@D@2@@std@@VUnitType@BWAPI@@@std@@@2@$0A@@std@@@std@@QAE?AU?$pair@V?$_Tree_iterator@V?$_Tree_val@U?$_Tree_simple_types@U?$pair@$$CBV?$basic_string@DU?$char_traits@D@std@@V?$allocator@D@2@@std@@VUnitType@BWAPI@@@std@@@std@@@std@@@std@@_N@1@$$QAU?$pair@V?$basic_string@DU?$char_traits@D@std@@V?$allocator@D@2@@std@@VUnitType@BWAPI@@@1@@Z 00438f90 f i BWAPI:UnitType.obj
 0001:00037fd0       ??$_Insert_nohint@ABVUnitType@BWAPI@@U_Nil@std@@@?$_Tree@V?$_Tset_traits@VUnitType@BWAPI@@U?$less@VUnitType@BWAPI@@@std@@V?$allocator@VUnitType@BWAPI@@@4@$0A@@std@@@std@@IAE?AU?$pair@V?$_Tree_const_iterator@V?$_Tree_val@U?$_Tree_simple_types@VUnitType@BWAPI@@@std@@@std@@@std@@_N@1@_NABVUnitType@BWAPI@@U_Nil@1@@Z 00438fd0 f i BWAPI:UnitType.obj
 0001:00037fd0       ??$_Insert_nohint@ABVTechType@BWAPI@@U_Nil@std@@@?$_Tree@V?$_Tset_traits@VTechType@BWAPI@@U?$less@VTechType@BWAPI@@@std@@V?$allocator@VTechType@BWAPI@@@4@$0A@@std@@@std@@IAE?AU?$pair@V?$_Tree_const_iterator@V?$_Tree_val@U?$_Tree_simple_types@VTechType@BWAPI@@@std@@@std@@@std@@_N@1@_NABVTechType@BWAPI@@U_Nil@1@@Z 00438fd0 f i BWAPI:UnitType.obj
 0001:00037fd0       ??$_Insert_nohint@ABVWeaponType@BWAPI@@U_Nil@std@@@?$_Tree@V?$_Tset_traits@VWeaponType@BWAPI@@U?$less@VWeaponType@BWAPI@@@std@@V?$allocator@VWeaponType@BWAPI@@@4@$0A@@std@@@std@@IAE?AU?$pair@V?$_Tree_const_iterator@V?$_Tree_val@U?$_Tree_simple_types@VWeaponType@BWAPI@@@std@@@std@@@std@@_N@1@_NABVWeaponType@BWAPI@@U_Nil@1@@Z 00438fd0 f i BWAPI:WeaponType.obj
 0001:00037fd0       ??$_Insert_nohint@ABVUpgradeType@BWAPI@@U_Nil@std@@@?$_Tree@V?$_Tset_traits@VUpgradeType@BWAPI@@U?$less@VUpgradeType@BWAPI@@@std@@V?$allocator@VUpgradeType@BWAPI@@@4@$0A@@std@@@std@@IAE?AU?$pair@V?$_Tree_const_iterator@V?$_Tree_val@U?$_Tree_simple_types@VUpgradeType@BWAPI@@@std@@@std@@@std@@_N@1@_NABVUpgradeType@BWAPI@@U_Nil@1@@Z 00438fd0 f i BWAPI:UnitType.obj
 0001:000380d0       ??$_Buynode@U?$pair@V?$basic_string@DU?$char_traits@D@std@@V?$allocator@D@2@@std@@VUnitType@BWAPI@@@std@@@?$_Tree_buy@U?$pair@$$CBV?$basic_string@DU?$char_traits@D@std@@V?$allocator@D@2@@std@@VUnitType@BWAPI@@@std@@V?$allocator@U?$pair@$$CBV?$basic_string@DU?$char_traits@D@std@@V?$allocator@D@2@@std@@VUnitType@BWAPI@@@std@@@2@@std@@QAEPAU?$_Tree_node@U?$pair@$$CBV?$basic_string@DU?$char_traits@D@std@@V?$allocator@D@2@@std@@VUnitType@BWAPI@@@std@@PAX@1@$$QAU?$pair@V?$basic_string@DU?$char_traits@D@std@@V?$allocator@D@2@@std@@VUnitType@BWAPI@@@1@@Z 004390d0 f i BWAPI:UnitType.obj
 0001:00038110       ??$_Insert_nohint@AAU?$pair@$$CBV?$basic_string@DU?$char_traits@D@std@@V?$allocator@D@2@@std@@VUnitType@BWAPI@@@std@@PAU?$_Tree_node@U?$pair@$$CBV?$basic_string@DU?$char_traits@D@std@@V?$allocator@D@2@@std@@VUnitType@BWAPI@@@std@@PAX@2@@?$_Tree@V?$_Tmap_traits@V?$basic_string@DU?$char_traits@D@std@@V?$allocator@D@2@@std@@VUnitType@BWAPI@@U?$less@V?$basic_string@DU?$char_traits@D@std@@V?$allocator@D@2@@std@@@2@V?$allocator@U?$pair@$$CBV?$basic_string@DU?$char_traits@D@std@@V?$allocator@D@2@@std@@VUnitType@BWAPI@@@std@@@2@$0A@@std@@@std@@IAE?AU?$pair@V?$_Tree_iterator@V?$_Tree_val@U?$_Tree_simple_types@U?$pair@$$CBV?$basic_string@DU?$char_traits@D@std@@V?$allocator@D@2@@std@@VUnitType@BWAPI@@@std@@@std@@@std@@@std@@_N@1@_NAAU?$pair@$$CBV?$basic_string@DU?$char_traits@D@std@@V?$allocator@D@2@@std@@VUnitType@BWAPI@@@1@PAU?$_Tree_node@U?$pair@$$CBV?$basic_string@DU?$char_traits@D@std@@V?$allocator@D@2@@std@@VUnitType@BWAPI@@@std@@PAX@1@@Z 00439110 f i BWAPI:UnitType.obj
 0001:00038320       ??$_Insert_at@ABVUpgradeType@BWAPI@@U_Nil@std@@@?$_Tree@V?$_Tset_traits@VUpgradeType@BWAPI@@U?$less@VUpgradeType@BWAPI@@@std@@V?$allocator@VUpgradeType@BWAPI@@@4@$0A@@std@@@std@@IAE?AV?$_Tree_const_iterator@V?$_Tree_val@U?$_Tree_simple_types@VUpgradeType@BWAPI@@@std@@@std@@@1@_NPAU?$_Tree_node@VUpgradeType@BWAPI@@PAX@1@ABVUpgradeType@BWAPI@@U_Nil@1@@Z 00439320 f i BWAPI:UnitType.obj
 0001:00038320       ??$_Insert_at@ABVUnitType@BWAPI@@U_Nil@std@@@?$_Tree@V?$_Tset_traits@VUnitType@BWAPI@@U?$less@VUnitType@BWAPI@@@std@@V?$allocator@VUnitType@BWAPI@@@4@$0A@@std@@@std@@IAE?AV?$_Tree_const_iterator@V?$_Tree_val@U?$_Tree_simple_types@VUnitType@BWAPI@@@std@@@std@@@1@_NPAU?$_Tree_node@VUnitType@BWAPI@@PAX@1@ABVUnitType@BWAPI@@U_Nil@1@@Z 00439320 f i BWAPI:UnitType.obj
 0001:00038320       ??$_Insert_at@ABVTechType@BWAPI@@U_Nil@std@@@?$_Tree@V?$_Tset_traits@VTechType@BWAPI@@U?$less@VTechType@BWAPI@@@std@@V?$allocator@VTechType@BWAPI@@@4@$0A@@std@@@std@@IAE?AV?$_Tree_const_iterator@V?$_Tree_val@U?$_Tree_simple_types@VTechType@BWAPI@@@std@@@std@@@1@_NPAU?$_Tree_node@VTechType@BWAPI@@PAX@1@ABVTechType@BWAPI@@U_Nil@1@@Z 00439320 f i BWAPI:UnitType.obj
 0001:00038320       ??$_Insert_at@ABVWeaponType@BWAPI@@U_Nil@std@@@?$_Tree@V?$_Tset_traits@VWeaponType@BWAPI@@U?$less@VWeaponType@BWAPI@@@std@@V?$allocator@VWeaponType@BWAPI@@@4@$0A@@std@@@std@@IAE?AV?$_Tree_const_iterator@V?$_Tree_val@U?$_Tree_simple_types@VWeaponType@BWAPI@@@std@@@std@@@1@_NPAU?$_Tree_node@VWeaponType@BWAPI@@PAX@1@ABVWeaponType@BWAPI@@U_Nil@1@@Z 00439320 f i BWAPI:WeaponType.obj
 0001:00038520       ?_Buynode0@?$_Tree_buy@U?$pair@$$CBV?$basic_string@DU?$char_traits@D@std@@V?$allocator@D@2@@std@@VUnitType@BWAPI@@@std@@V?$allocator@U?$pair@$$CBV?$basic_string@DU?$char_traits@D@std@@V?$allocator@D@2@@std@@VUnitType@BWAPI@@@std@@@2@@std@@QAEPAU?$_Tree_node@U?$pair@$$CBV?$basic_string@DU?$char_traits@D@std@@V?$allocator@D@2@@std@@VUnitType@BWAPI@@@std@@PAX@2@XZ 00439520 f i BWAPI:UnitType.obj
 0001:00038560       ??$_Insert_at@AAU?$pair@$$CBV?$basic_string@DU?$char_traits@D@std@@V?$allocator@D@2@@std@@VUnitType@BWAPI@@@std@@PAU?$_Tree_node@U?$pair@$$CBV?$basic_string@DU?$char_traits@D@std@@V?$allocator@D@2@@std@@VUnitType@BWAPI@@@std@@PAX@2@@?$_Tree@V?$_Tmap_traits@V?$basic_string@DU?$char_traits@D@std@@V?$allocator@D@2@@std@@VUnitType@BWAPI@@U?$less@V?$basic_string@DU?$char_traits@D@std@@V?$allocator@D@2@@std@@@2@V?$allocator@U?$pair@$$CBV?$basic_string@DU?$char_traits@D@std@@V?$allocator@D@2@@std@@VUnitType@BWAPI@@@std@@@2@$0A@@std@@@std@@IAE?AV?$_Tree_iterator@V?$_Tree_val@U?$_Tree_simple_types@U?$pair@$$CBV?$basic_string@DU?$char_traits@D@std@@V?$allocator@D@2@@std@@VUnitType@BWAPI@@@std@@@std@@@std@@@1@_NPAU?$_Tree_node@U?$pair@$$CBV?$basic_string@DU?$char_traits@D@std@@V?$allocator@D@2@@std@@VUnitType@BWAPI@@@std@@PAX@1@AAU?$pair@$$CBV?$basic_string@DU?$char_traits@D@std@@V?$allocator@D@2@@std@@VUnitType@BWAPI@@@1@1@Z 00439560 f i BWAPI:UnitType.obj
 0001:00038740       ??$_Buynode@ABVTechType@BWAPI@@@?$_Tree_buy@VTechType@BWAPI@@V?$allocator@VTechType@BWAPI@@@std@@@std@@QAEPAU?$_Tree_node@VTechType@BWAPI@@PAX@1@ABVTechType@BWAPI@@@Z 00439740 f i BWAPI:UnitType.obj
 0001:00038740       ??$_Buynode@ABVUnitType@BWAPI@@@?$_Tree_buy@VUnitType@BWAPI@@V?$allocator@VUnitType@BWAPI@@@std@@@std@@QAEPAU?$_Tree_node@VUnitType@BWAPI@@PAX@1@ABVUnitType@BWAPI@@@Z 00439740 f i BWAPI:UnitType.obj
 0001:00038740       ??$_Buynode@ABVWeaponType@BWAPI@@@?$_Tree_buy@VWeaponType@BWAPI@@V?$allocator@VWeaponType@BWAPI@@@std@@@std@@QAEPAU?$_Tree_node@VWeaponType@BWAPI@@PAX@1@ABVWeaponType@BWAPI@@@Z 00439740 f i BWAPI:WeaponType.obj
 0001:00038740       ??$_Buynode@ABVUpgradeType@BWAPI@@@?$_Tree_buy@VUpgradeType@BWAPI@@V?$allocator@VUpgradeType@BWAPI@@@std@@@std@@QAEPAU?$_Tree_node@VUpgradeType@BWAPI@@PAX@1@ABVUpgradeType@BWAPI@@@Z 00439740 f i BWAPI:UnitType.obj
 0001:00038760       ?_Buynode0@?$_Tree_buy@VUpgradeType@BWAPI@@V?$allocator@VUpgradeType@BWAPI@@@std@@@std@@QAEPAU?$_Tree_node@VUpgradeType@BWAPI@@PAX@2@XZ 00439760 f i BWAPI:UnitType.obj
 0001:00038760       ?_Buynode0@?$_Tree_buy@VTechType@BWAPI@@V?$allocator@VTechType@BWAPI@@@std@@@std@@QAEPAU?$_Tree_node@VTechType@BWAPI@@PAX@2@XZ 00439760 f i BWAPI:UnitType.obj
 0001:00038760       ?_Buynode0@?$_Tree_buy@VUnitType@BWAPI@@V?$allocator@VUnitType@BWAPI@@@std@@@std@@QAEPAU?$_Tree_node@VUnitType@BWAPI@@PAX@2@XZ 00439760 f i BWAPI:UnitType.obj
 0001:00038760       ?_Buynode0@?$_Tree_buy@VWeaponType@BWAPI@@V?$allocator@VWeaponType@BWAPI@@@std@@@std@@QAEPAU?$_Tree_node@VWeaponType@BWAPI@@PAX@2@XZ 00439760 f i BWAPI:WeaponType.obj
 0001:000387a0       ??0UpgradeTypeInternal@BWAPI@@QAE@XZ 004397a0 f i BWAPI:UpgradeType.obj
 0001:00038820       ?set@UpgradeTypeInternal@BWAPI@@QAEXPBDHHHHHHVUnitType@2@VRace@2@1H@Z 00439820 f i BWAPI:UpgradeType.obj
 0001:000388d0       ??1UpgradeTypeInternal@BWAPI@@QAE@XZ 004398d0 f i BWAPI:UpgradeType.obj
 0001:00038920       ?init@UpgradeTypes@BWAPI@@YAXXZ 00439920 f   BWAPI:UpgradeType.obj
 0001:0003ae50       ?getName@UpgradeType@BWAPI@@QBE?AV?$basic_string@DU?$char_traits@D@std@@V?$allocator@D@2@@std@@XZ 0043be50 f   BWAPI:UpgradeType.obj
 0001:0003ae90       ?whatUses@UpgradeType@BWAPI@@QBEABV?$set@VUnitType@BWAPI@@U?$less@VUnitType@BWAPI@@@std@@V?$allocator@VUnitType@BWAPI@@@4@@std@@XZ 0043be90 f   BWAPI:UpgradeType.obj
 0001:0003aea0       ?getUpgradeType@UpgradeTypes@BWAPI@@YA?AVUpgradeType@2@V?$basic_string@DU?$char_traits@D@std@@V?$allocator@D@2@@std@@@Z 0043bea0 f   BWAPI:UpgradeType.obj
 0001:0003aef0       ?allUpgradeTypes@UpgradeTypes@BWAPI@@YAAAV?$set@VUpgradeType@BWAPI@@U?$less@VUpgradeType@BWAPI@@@std@@V?$allocator@VUpgradeType@BWAPI@@@4@@std@@XZ 0043bef0 f   BWAPI:UpgradeType.obj
 0001:0003af00       ?find@?$_Tree@V?$_Tmap_traits@V?$basic_string@DU?$char_traits@D@std@@V?$allocator@D@2@@std@@VUpgradeType@BWAPI@@U?$less@V?$basic_string@DU?$char_traits@D@std@@V?$allocator@D@2@@std@@@2@V?$allocator@U?$pair@$$CBV?$basic_string@DU?$char_traits@D@std@@V?$allocator@D@2@@std@@VUpgradeType@BWAPI@@@std@@@2@$0A@@std@@@std@@QAE?AV?$_Tree_iterator@V?$_Tree_val@U?$_Tree_simple_types@U?$pair@$$CBV?$basic_string@DU?$char_traits@D@std@@V?$allocator@D@2@@std@@VUpgradeType@BWAPI@@@std@@@std@@@std@@@2@ABV?$basic_string@DU?$char_traits@D@std@@V?$allocator@D@2@@2@@Z 0043bf00 f i BWAPI:UpgradeType.obj
 0001:0003af80       ?erase@?$_Tree@V?$_Tmap_traits@V?$basic_string@DU?$char_traits@D@std@@V?$allocator@D@2@@std@@VUpgradeType@BWAPI@@U?$less@V?$basic_string@DU?$char_traits@D@std@@V?$allocator@D@2@@std@@@2@V?$allocator@U?$pair@$$CBV?$basic_string@DU?$char_traits@D@std@@V?$allocator@D@2@@std@@VUpgradeType@BWAPI@@@std@@@2@$0A@@std@@@std@@QAE?AV?$_Tree_iterator@V?$_Tree_val@U?$_Tree_simple_types@U?$pair@$$CBV?$basic_string@DU?$char_traits@D@std@@V?$allocator@D@2@@std@@VUpgradeType@BWAPI@@@std@@@std@@@std@@@2@V?$_Tree_const_iterator@V?$_Tree_val@U?$_Tree_simple_types@U?$pair@$$CBV?$basic_string@DU?$char_traits@D@std@@V?$allocator@D@2@@std@@VUpgradeType@BWAPI@@@std@@@std@@@std@@@2@0@Z 0043bf80 f i BWAPI:UpgradeType.obj
 0001:0003b050       ?_Lbound@?$_Tree@V?$_Tmap_traits@V?$basic_string@DU?$char_traits@D@std@@V?$allocator@D@2@@std@@VUpgradeType@BWAPI@@U?$less@V?$basic_string@DU?$char_traits@D@std@@V?$allocator@D@2@@std@@@2@V?$allocator@U?$pair@$$CBV?$basic_string@DU?$char_traits@D@std@@V?$allocator@D@2@@std@@VUpgradeType@BWAPI@@@std@@@2@$0A@@std@@@std@@IAEPAU?$_Tree_node@U?$pair@$$CBV?$basic_string@DU?$char_traits@D@std@@V?$allocator@D@2@@std@@VUpgradeType@BWAPI@@@std@@PAX@2@ABV?$basic_string@DU?$char_traits@D@std@@V?$allocator@D@2@@2@@Z 0043c050 f i BWAPI:UpgradeType.obj
 0001:0003b130       ?erase@?$_Tree@V?$_Tmap_traits@V?$basic_string@DU?$char_traits@D@std@@V?$allocator@D@2@@std@@VUpgradeType@BWAPI@@U?$less@V?$basic_string@DU?$char_traits@D@std@@V?$allocator@D@2@@std@@@2@V?$allocator@U?$pair@$$CBV?$basic_string@DU?$char_traits@D@std@@V?$allocator@D@2@@std@@VUpgradeType@BWAPI@@@std@@@2@$0A@@std@@@std@@QAE?AV?$_Tree_iterator@V?$_Tree_val@U?$_Tree_simple_types@U?$pair@$$CBV?$basic_string@DU?$char_traits@D@std@@V?$allocator@D@2@@std@@VUpgradeType@BWAPI@@@std@@@std@@@std@@@2@V?$_Tree_const_iterator@V?$_Tree_val@U?$_Tree_simple_types@U?$pair@$$CBV?$basic_string@DU?$char_traits@D@std@@V?$allocator@D@2@@std@@VUpgradeType@BWAPI@@@std@@@std@@@std@@@2@@Z 0043c130 f i BWAPI:UpgradeType.obj
 0001:0003b3b0       ?_Lrotate@?$_Tree@V?$_Tmap_traits@V?$basic_string@DU?$char_traits@D@std@@V?$allocator@D@2@@std@@VUpgradeType@BWAPI@@U?$less@V?$basic_string@DU?$char_traits@D@std@@V?$allocator@D@2@@std@@@2@V?$allocator@U?$pair@$$CBV?$basic_string@DU?$char_traits@D@std@@V?$allocator@D@2@@std@@VUpgradeType@BWAPI@@@std@@@2@$0A@@std@@@std@@IAEXPAU?$_Tree_node@U?$pair@$$CBV?$basic_string@DU?$char_traits@D@std@@V?$allocator@D@2@@std@@VUpgradeType@BWAPI@@@std@@PAX@2@@Z 0043c3b0 f i BWAPI:UpgradeType.obj
 0001:0003b400       ?_Rrotate@?$_Tree@V?$_Tmap_traits@V?$basic_string@DU?$char_traits@D@std@@V?$allocator@D@2@@std@@VUpgradeType@BWAPI@@U?$less@V?$basic_string@DU?$char_traits@D@std@@V?$allocator@D@2@@std@@@2@V?$allocator@U?$pair@$$CBV?$basic_string@DU?$char_traits@D@std@@V?$allocator@D@2@@std@@VUpgradeType@BWAPI@@@std@@@2@$0A@@std@@@std@@IAEXPAU?$_Tree_node@U?$pair@$$CBV?$basic_string@DU?$char_traits@D@std@@V?$allocator@D@2@@std@@VUpgradeType@BWAPI@@@std@@PAX@2@@Z 0043c400 f i BWAPI:UpgradeType.obj
 0001:0003b460       ??$insert@U?$pair@V?$basic_string@DU?$char_traits@D@std@@V?$allocator@D@2@@std@@VUpgradeType@BWAPI@@@std@@@?$_Tree@V?$_Tmap_traits@V?$basic_string@DU?$char_traits@D@std@@V?$allocator@D@2@@std@@VUpgradeType@BWAPI@@U?$less@V?$basic_string@DU?$char_traits@D@std@@V?$allocator@D@2@@std@@@2@V?$allocator@U?$pair@$$CBV?$basic_string@DU?$char_traits@D@std@@V?$allocator@D@2@@std@@VUpgradeType@BWAPI@@@std@@@2@$0A@@std@@@std@@QAE?AU?$pair@V?$_Tree_iterator@V?$_Tree_val@U?$_Tree_simple_types@U?$pair@$$CBV?$basic_string@DU?$char_traits@D@std@@V?$allocator@D@2@@std@@VUpgradeType@BWAPI@@@std@@@std@@@std@@@std@@_N@1@$$QAU?$pair@V?$basic_string@DU?$char_traits@D@std@@V?$allocator@D@2@@std@@VUpgradeType@BWAPI@@@1@@Z 0043c460 f i BWAPI:UpgradeType.obj
 0001:0003b4a0       ??$_Buynode@U?$pair@V?$basic_string@DU?$char_traits@D@std@@V?$allocator@D@2@@std@@VUpgradeType@BWAPI@@@std@@@?$_Tree_buy@U?$pair@$$CBV?$basic_string@DU?$char_traits@D@std@@V?$allocator@D@2@@std@@VUpgradeType@BWAPI@@@std@@V?$allocator@U?$pair@$$CBV?$basic_string@DU?$char_traits@D@std@@V?$allocator@D@2@@std@@VUpgradeType@BWAPI@@@std@@@2@@std@@QAEPAU?$_Tree_node@U?$pair@$$CBV?$basic_string@DU?$char_traits@D@std@@V?$allocator@D@2@@std@@VUpgradeType@BWAPI@@@std@@PAX@1@$$QAU?$pair@V?$basic_string@DU?$char_traits@D@std@@V?$allocator@D@2@@std@@VUpgradeType@BWAPI@@@1@@Z 0043c4a0 f i BWAPI:UpgradeType.obj
 0001:0003b4e0       ??$_Insert_nohint@AAU?$pair@$$CBV?$basic_string@DU?$char_traits@D@std@@V?$allocator@D@2@@std@@VUpgradeType@BWAPI@@@std@@PAU?$_Tree_node@U?$pair@$$CBV?$basic_string@DU?$char_traits@D@std@@V?$allocator@D@2@@std@@VUpgradeType@BWAPI@@@std@@PAX@2@@?$_Tree@V?$_Tmap_traits@V?$basic_string@DU?$char_traits@D@std@@V?$allocator@D@2@@std@@VUpgradeType@BWAPI@@U?$less@V?$basic_string@DU?$char_traits@D@std@@V?$allocator@D@2@@std@@@2@V?$allocator@U?$pair@$$CBV?$basic_string@DU?$char_traits@D@std@@V?$allocator@D@2@@std@@VUpgradeType@BWAPI@@@std@@@2@$0A@@std@@@std@@IAE?AU?$pair@V?$_Tree_iterator@V?$_Tree_val@U?$_Tree_simple_types@U?$pair@$$CBV?$basic_string@DU?$char_traits@D@std@@V?$allocator@D@2@@std@@VUpgradeType@BWAPI@@@std@@@std@@@std@@@std@@_N@1@_NAAU?$pair@$$CBV?$basic_string@DU?$char_traits@D@std@@V?$allocator@D@2@@std@@VUpgradeType@BWAPI@@@1@PAU?$_Tree_node@U?$pair@$$CBV?$basic_string@DU?$char_traits@D@std@@V?$allocator@D@2@@std@@VUpgradeType@BWAPI@@@std@@PAX@1@@Z 0043c4e0 f i BWAPI:UpgradeType.obj
 0001:0003b6f0       ?_Buynode0@?$_Tree_buy@U?$pair@$$CBV?$basic_string@DU?$char_traits@D@std@@V?$allocator@D@2@@std@@VUpgradeType@BWAPI@@@std@@V?$allocator@U?$pair@$$CBV?$basic_string@DU?$char_traits@D@std@@V?$allocator@D@2@@std@@VUpgradeType@BWAPI@@@std@@@2@@std@@QAEPAU?$_Tree_node@U?$pair@$$CBV?$basic_string@DU?$char_traits@D@std@@V?$allocator@D@2@@std@@VUpgradeType@BWAPI@@@std@@PAX@2@XZ 0043c6f0 f i BWAPI:UpgradeType.obj
 0001:0003b730       ??$_Insert_at@AAU?$pair@$$CBV?$basic_string@DU?$char_traits@D@std@@V?$allocator@D@2@@std@@VUpgradeType@BWAPI@@@std@@PAU?$_Tree_node@U?$pair@$$CBV?$basic_string@DU?$char_traits@D@std@@V?$allocator@D@2@@std@@VUpgradeType@BWAPI@@@std@@PAX@2@@?$_Tree@V?$_Tmap_traits@V?$basic_string@DU?$char_traits@D@std@@V?$allocator@D@2@@std@@VUpgradeType@BWAPI@@U?$less@V?$basic_string@DU?$char_traits@D@std@@V?$allocator@D@2@@std@@@2@V?$allocator@U?$pair@$$CBV?$basic_string@DU?$char_traits@D@std@@V?$allocator@D@2@@std@@VUpgradeType@BWAPI@@@std@@@2@$0A@@std@@@std@@IAE?AV?$_Tree_iterator@V?$_Tree_val@U?$_Tree_simple_types@U?$pair@$$CBV?$basic_string@DU?$char_traits@D@std@@V?$allocator@D@2@@std@@VUpgradeType@BWAPI@@@std@@@std@@@std@@@1@_NPAU?$_Tree_node@U?$pair@$$CBV?$basic_string@DU?$char_traits@D@std@@V?$allocator@D@2@@std@@VUpgradeType@BWAPI@@@std@@PAX@1@AAU?$pair@$$CBV?$basic_string@DU?$char_traits@D@std@@V?$allocator@D@2@@std@@VUpgradeType@BWAPI@@@1@1@Z 0043c730 f i BWAPI:UpgradeType.obj
 0001:0003b910       ??0TechTypeInternal@BWAPI@@QAE@XZ 0043c910 f i BWAPI:TechType.obj
 0001:0003b9a0       ?set@TechTypeInternal@BWAPI@@QAEXPBDHHHHVUnitType@2@VRace@2@VWeaponType@2@111111@Z 0043c9a0 f i BWAPI:TechType.obj
 0001:0003bb00       ??1TechTypeInternal@BWAPI@@QAE@XZ 0043cb00 f i BWAPI:TechType.obj
 0001:0003bb50       ?init@TechTypes@BWAPI@@YAXXZ 0043cb50 f   BWAPI:TechType.obj
 0001:0003d290       ?getName@TechType@BWAPI@@QBE?AV?$basic_string@DU?$char_traits@D@std@@V?$allocator@D@2@@std@@XZ 0043e290 f   BWAPI:TechType.obj
 0001:0003d2d0       ?getTechType@TechTypes@BWAPI@@YA?AVTechType@2@V?$basic_string@DU?$char_traits@D@std@@V?$allocator@D@2@@std@@@Z 0043e2d0 f   BWAPI:TechType.obj
 0001:0003d320       ?find@?$_Tree@V?$_Tmap_traits@V?$basic_string@DU?$char_traits@D@std@@V?$allocator@D@2@@std@@VTechType@BWAPI@@U?$less@V?$basic_string@DU?$char_traits@D@std@@V?$allocator@D@2@@std@@@2@V?$allocator@U?$pair@$$CBV?$basic_string@DU?$char_traits@D@std@@V?$allocator@D@2@@std@@VTechType@BWAPI@@@std@@@2@$0A@@std@@@std@@QAE?AV?$_Tree_iterator@V?$_Tree_val@U?$_Tree_simple_types@U?$pair@$$CBV?$basic_string@DU?$char_traits@D@std@@V?$allocator@D@2@@std@@VTechType@BWAPI@@@std@@@std@@@std@@@2@ABV?$basic_string@DU?$char_traits@D@std@@V?$allocator@D@2@@2@@Z 0043e320 f i BWAPI:TechType.obj
 0001:0003d3a0       ?erase@?$_Tree@V?$_Tmap_traits@V?$basic_string@DU?$char_traits@D@std@@V?$allocator@D@2@@std@@VTechType@BWAPI@@U?$less@V?$basic_string@DU?$char_traits@D@std@@V?$allocator@D@2@@std@@@2@V?$allocator@U?$pair@$$CBV?$basic_string@DU?$char_traits@D@std@@V?$allocator@D@2@@std@@VTechType@BWAPI@@@std@@@2@$0A@@std@@@std@@QAE?AV?$_Tree_iterator@V?$_Tree_val@U?$_Tree_simple_types@U?$pair@$$CBV?$basic_string@DU?$char_traits@D@std@@V?$allocator@D@2@@std@@VTechType@BWAPI@@@std@@@std@@@std@@@2@V?$_Tree_const_iterator@V?$_Tree_val@U?$_Tree_simple_types@U?$pair@$$CBV?$basic_string@DU?$char_traits@D@std@@V?$allocator@D@2@@std@@VTechType@BWAPI@@@std@@@std@@@std@@@2@0@Z 0043e3a0 f i BWAPI:TechType.obj
 0001:0003d470       ?_Lbound@?$_Tree@V?$_Tmap_traits@V?$basic_string@DU?$char_traits@D@std@@V?$allocator@D@2@@std@@VTechType@BWAPI@@U?$less@V?$basic_string@DU?$char_traits@D@std@@V?$allocator@D@2@@std@@@2@V?$allocator@U?$pair@$$CBV?$basic_string@DU?$char_traits@D@std@@V?$allocator@D@2@@std@@VTechType@BWAPI@@@std@@@2@$0A@@std@@@std@@IAEPAU?$_Tree_node@U?$pair@$$CBV?$basic_string@DU?$char_traits@D@std@@V?$allocator@D@2@@std@@VTechType@BWAPI@@@std@@PAX@2@ABV?$basic_string@DU?$char_traits@D@std@@V?$allocator@D@2@@2@@Z 0043e470 f i BWAPI:TechType.obj
 0001:0003d550       ?erase@?$_Tree@V?$_Tmap_traits@V?$basic_string@DU?$char_traits@D@std@@V?$allocator@D@2@@std@@VTechType@BWAPI@@U?$less@V?$basic_string@DU?$char_traits@D@std@@V?$allocator@D@2@@std@@@2@V?$allocator@U?$pair@$$CBV?$basic_string@DU?$char_traits@D@std@@V?$allocator@D@2@@std@@VTechType@BWAPI@@@std@@@2@$0A@@std@@@std@@QAE?AV?$_Tree_iterator@V?$_Tree_val@U?$_Tree_simple_types@U?$pair@$$CBV?$basic_string@DU?$char_traits@D@std@@V?$allocator@D@2@@std@@VTechType@BWAPI@@@std@@@std@@@std@@@2@V?$_Tree_const_iterator@V?$_Tree_val@U?$_Tree_simple_types@U?$pair@$$CBV?$basic_string@DU?$char_traits@D@std@@V?$allocator@D@2@@std@@VTechType@BWAPI@@@std@@@std@@@std@@@2@@Z 0043e550 f i BWAPI:TechType.obj
 0001:0003d7d0       ?_Lrotate@?$_Tree@V?$_Tmap_traits@V?$basic_string@DU?$char_traits@D@std@@V?$allocator@D@2@@std@@VTechType@BWAPI@@U?$less@V?$basic_string@DU?$char_traits@D@std@@V?$allocator@D@2@@std@@@2@V?$allocator@U?$pair@$$CBV?$basic_string@DU?$char_traits@D@std@@V?$allocator@D@2@@std@@VTechType@BWAPI@@@std@@@2@$0A@@std@@@std@@IAEXPAU?$_Tree_node@U?$pair@$$CBV?$basic_string@DU?$char_traits@D@std@@V?$allocator@D@2@@std@@VTechType@BWAPI@@@std@@PAX@2@@Z 0043e7d0 f i BWAPI:TechType.obj
 0001:0003d820       ?_Rrotate@?$_Tree@V?$_Tmap_traits@V?$basic_string@DU?$char_traits@D@std@@V?$allocator@D@2@@std@@VTechType@BWAPI@@U?$less@V?$basic_string@DU?$char_traits@D@std@@V?$allocator@D@2@@std@@@2@V?$allocator@U?$pair@$$CBV?$basic_string@DU?$char_traits@D@std@@V?$allocator@D@2@@std@@VTechType@BWAPI@@@std@@@2@$0A@@std@@@std@@IAEXPAU?$_Tree_node@U?$pair@$$CBV?$basic_string@DU?$char_traits@D@std@@V?$allocator@D@2@@std@@VTechType@BWAPI@@@std@@PAX@2@@Z 0043e820 f i BWAPI:TechType.obj
 0001:0003d880       ??$_Buynode@U?$pair@V?$basic_string@DU?$char_traits@D@std@@V?$allocator@D@2@@std@@VTechType@BWAPI@@@std@@@?$_Tree_buy@U?$pair@$$CBV?$basic_string@DU?$char_traits@D@std@@V?$allocator@D@2@@std@@VTechType@BWAPI@@@std@@V?$allocator@U?$pair@$$CBV?$basic_string@DU?$char_traits@D@std@@V?$allocator@D@2@@std@@VTechType@BWAPI@@@std@@@2@@std@@QAEPAU?$_Tree_node@U?$pair@$$CBV?$basic_string@DU?$char_traits@D@std@@V?$allocator@D@2@@std@@VTechType@BWAPI@@@std@@PAX@1@$$QAU?$pair@V?$basic_string@DU?$char_traits@D@std@@V?$allocator@D@2@@std@@VTechType@BWAPI@@@1@@Z 0043e880 f i BWAPI:TechType.obj
 0001:0003d8c0       ??$_Insert_nohint@AAU?$pair@$$CBV?$basic_string@DU?$char_traits@D@std@@V?$allocator@D@2@@std@@VTechType@BWAPI@@@std@@PAU?$_Tree_node@U?$pair@$$CBV?$basic_string@DU?$char_traits@D@std@@V?$allocator@D@2@@std@@VTechType@BWAPI@@@std@@PAX@2@@?$_Tree@V?$_Tmap_traits@V?$basic_string@DU?$char_traits@D@std@@V?$allocator@D@2@@std@@VTechType@BWAPI@@U?$less@V?$basic_string@DU?$char_traits@D@std@@V?$allocator@D@2@@std@@@2@V?$allocator@U?$pair@$$CBV?$basic_string@DU?$char_traits@D@std@@V?$allocator@D@2@@std@@VTechType@BWAPI@@@std@@@2@$0A@@std@@@std@@IAE?AU?$pair@V?$_Tree_iterator@V?$_Tree_val@U?$_Tree_simple_types@U?$pair@$$CBV?$basic_string@DU?$char_traits@D@std@@V?$allocator@D@2@@std@@VTechType@BWAPI@@@std@@@std@@@std@@@std@@_N@1@_NAAU?$pair@$$CBV?$basic_string@DU?$char_traits@D@std@@V?$allocator@D@2@@std@@VTechType@BWAPI@@@1@PAU?$_Tree_node@U?$pair@$$CBV?$basic_string@DU?$char_traits@D@std@@V?$allocator@D@2@@std@@VTechType@BWAPI@@@std@@PAX@1@@Z 0043e8c0 f i BWAPI:TechType.obj
 0001:0003dad0       ?_Buynode0@?$_Tree_buy@U?$pair@$$CBV?$basic_string@DU?$char_traits@D@std@@V?$allocator@D@2@@std@@VTechType@BWAPI@@@std@@V?$allocator@U?$pair@$$CBV?$basic_string@DU?$char_traits@D@std@@V?$allocator@D@2@@std@@VTechType@BWAPI@@@std@@@2@@std@@QAEPAU?$_Tree_node@U?$pair@$$CBV?$basic_string@DU?$char_traits@D@std@@V?$allocator@D@2@@std@@VTechType@BWAPI@@@std@@PAX@2@XZ 0043ead0 f i BWAPI:TechType.obj
 0001:0003db10       ??$_Insert_at@AAU?$pair@$$CBV?$basic_string@DU?$char_traits@D@std@@V?$allocator@D@2@@std@@VTechType@BWAPI@@@std@@PAU?$_Tree_node@U?$pair@$$CBV?$basic_string@DU?$char_traits@D@std@@V?$allocator@D@2@@std@@VTechType@BWAPI@@@std@@PAX@2@@?$_Tree@V?$_Tmap_traits@V?$basic_string@DU?$char_traits@D@std@@V?$allocator@D@2@@std@@VTechType@BWAPI@@U?$less@V?$basic_string@DU?$char_traits@D@std@@V?$allocator@D@2@@std@@@2@V?$allocator@U?$pair@$$CBV?$basic_string@DU?$char_traits@D@std@@V?$allocator@D@2@@std@@VTechType@BWAPI@@@std@@@2@$0A@@std@@@std@@IAE?AV?$_Tree_iterator@V?$_Tree_val@U?$_Tree_simple_types@U?$pair@$$CBV?$basic_string@DU?$char_traits@D@std@@V?$allocator@D@2@@std@@VTechType@BWAPI@@@std@@@std@@@std@@@1@_NPAU?$_Tree_node@U?$pair@$$CBV?$basic_string@DU?$char_traits@D@std@@V?$allocator@D@2@@std@@VTechType@BWAPI@@@std@@PAX@1@AAU?$pair@$$CBV?$basic_string@DU?$char_traits@D@std@@V?$allocator@D@2@@std@@VTechType@BWAPI@@@1@1@Z 0043eb10 f i BWAPI:TechType.obj
 0001:0003dcf0       ??0WeaponTypeInternal@BWAPI@@QAE@XZ 0043ecf0 f i BWAPI:WeaponType.obj
 0001:0003dd30       ?set@WeaponTypeInternal@BWAPI@@QAEXPBDVTechType@2@HHHHVUpgradeType@2@VDamageType@2@VExplosionType@2@HHHHH_N55555555VUnitType@2@@Z 0043ed30 f i BWAPI:WeaponType.obj
 0001:0003de20       ?init@WeaponTypes@BWAPI@@YAXXZ 0043ee20 f   BWAPI:WeaponType.obj
 0001:00041d50       ?getName@WeaponType@BWAPI@@QBE?AV?$basic_string@DU?$char_traits@D@std@@V?$allocator@D@2@@std@@XZ 00442d50 f   BWAPI:WeaponType.obj
 0001:00041d90       ?insert@?$set@VWeaponType@BWAPI@@U?$less@VWeaponType@BWAPI@@@std@@V?$allocator@VWeaponType@BWAPI@@@4@@std@@QAE?AU?$pair@V?$_Tree_const_iterator@V?$_Tree_val@U?$_Tree_simple_types@VWeaponType@BWAPI@@@std@@@std@@@std@@_N@2@ABVWeaponType@BWAPI@@@Z 00442d90 f i BWAPI:WeaponType.obj
 0001:00041dc0       ?erase@?$_Tree@V?$_Tmap_traits@V?$basic_string@DU?$char_traits@D@std@@V?$allocator@D@2@@std@@VWeaponType@BWAPI@@U?$less@V?$basic_string@DU?$char_traits@D@std@@V?$allocator@D@2@@std@@@2@V?$allocator@U?$pair@$$CBV?$basic_string@DU?$char_traits@D@std@@V?$allocator@D@2@@std@@VWeaponType@BWAPI@@@std@@@2@$0A@@std@@@std@@QAE?AV?$_Tree_iterator@V?$_Tree_val@U?$_Tree_simple_types@U?$pair@$$CBV?$basic_string@DU?$char_traits@D@std@@V?$allocator@D@2@@std@@VWeaponType@BWAPI@@@std@@@std@@@std@@@2@V?$_Tree_const_iterator@V?$_Tree_val@U?$_Tree_simple_types@U?$pair@$$CBV?$basic_string@DU?$char_traits@D@std@@V?$allocator@D@2@@std@@VWeaponType@BWAPI@@@std@@@std@@@std@@@2@0@Z 00442dc0 f i BWAPI:WeaponType.obj
 0001:00041e90       ?erase@?$_Tree@V?$_Tmap_traits@V?$basic_string@DU?$char_traits@D@std@@V?$allocator@D@2@@std@@VWeaponType@BWAPI@@U?$less@V?$basic_string@DU?$char_traits@D@std@@V?$allocator@D@2@@std@@@2@V?$allocator@U?$pair@$$CBV?$basic_string@DU?$char_traits@D@std@@V?$allocator@D@2@@std@@VWeaponType@BWAPI@@@std@@@2@$0A@@std@@@std@@QAE?AV?$_Tree_iterator@V?$_Tree_val@U?$_Tree_simple_types@U?$pair@$$CBV?$basic_string@DU?$char_traits@D@std@@V?$allocator@D@2@@std@@VWeaponType@BWAPI@@@std@@@std@@@std@@@2@V?$_Tree_const_iterator@V?$_Tree_val@U?$_Tree_simple_types@U?$pair@$$CBV?$basic_string@DU?$char_traits@D@std@@V?$allocator@D@2@@std@@VWeaponType@BWAPI@@@std@@@std@@@std@@@2@@Z 00442e90 f i BWAPI:WeaponType.obj
 0001:00042110       ?_Lrotate@?$_Tree@V?$_Tmap_traits@V?$basic_string@DU?$char_traits@D@std@@V?$allocator@D@2@@std@@VWeaponType@BWAPI@@U?$less@V?$basic_string@DU?$char_traits@D@std@@V?$allocator@D@2@@std@@@2@V?$allocator@U?$pair@$$CBV?$basic_string@DU?$char_traits@D@std@@V?$allocator@D@2@@std@@VWeaponType@BWAPI@@@std@@@2@$0A@@std@@@std@@IAEXPAU?$_Tree_node@U?$pair@$$CBV?$basic_string@DU?$char_traits@D@std@@V?$allocator@D@2@@std@@VWeaponType@BWAPI@@@std@@PAX@2@@Z 00443110 f i BWAPI:WeaponType.obj
 0001:00042160       ?_Rrotate@?$_Tree@V?$_Tmap_traits@V?$basic_string@DU?$char_traits@D@std@@V?$allocator@D@2@@std@@VWeaponType@BWAPI@@U?$less@V?$basic_string@DU?$char_traits@D@std@@V?$allocator@D@2@@std@@@2@V?$allocator@U?$pair@$$CBV?$basic_string@DU?$char_traits@D@std@@V?$allocator@D@2@@std@@VWeaponType@BWAPI@@@std@@@2@$0A@@std@@@std@@IAEXPAU?$_Tree_node@U?$pair@$$CBV?$basic_string@DU?$char_traits@D@std@@V?$allocator@D@2@@std@@VWeaponType@BWAPI@@@std@@PAX@2@@Z 00443160 f i BWAPI:WeaponType.obj
 0001:000421c0       ??$insert@U?$pair@V?$basic_string@DU?$char_traits@D@std@@V?$allocator@D@2@@std@@VWeaponType@BWAPI@@@std@@@?$_Tree@V?$_Tmap_traits@V?$basic_string@DU?$char_traits@D@std@@V?$allocator@D@2@@std@@VWeaponType@BWAPI@@U?$less@V?$basic_string@DU?$char_traits@D@std@@V?$allocator@D@2@@std@@@2@V?$allocator@U?$pair@$$CBV?$basic_string@DU?$char_traits@D@std@@V?$allocator@D@2@@std@@VWeaponType@BWAPI@@@std@@@2@$0A@@std@@@std@@QAE?AU?$pair@V?$_Tree_iterator@V?$_Tree_val@U?$_Tree_simple_types@U?$pair@$$CBV?$basic_string@DU?$char_traits@D@std@@V?$allocator@D@2@@std@@VWeaponType@BWAPI@@@std@@@std@@@std@@@std@@_N@1@$$QAU?$pair@V?$basic_string@DU?$char_traits@D@std@@V?$allocator@D@2@@std@@VWeaponType@BWAPI@@@1@@Z 004431c0 f i BWAPI:WeaponType.obj
 0001:00042200       ??$_Buynode@U?$pair@V?$basic_string@DU?$char_traits@D@std@@V?$allocator@D@2@@std@@VWeaponType@BWAPI@@@std@@@?$_Tree_buy@U?$pair@$$CBV?$basic_string@DU?$char_traits@D@std@@V?$allocator@D@2@@std@@VWeaponType@BWAPI@@@std@@V?$allocator@U?$pair@$$CBV?$basic_string@DU?$char_traits@D@std@@V?$allocator@D@2@@std@@VWeaponType@BWAPI@@@std@@@2@@std@@QAEPAU?$_Tree_node@U?$pair@$$CBV?$basic_string@DU?$char_traits@D@std@@V?$allocator@D@2@@std@@VWeaponType@BWAPI@@@std@@PAX@1@$$QAU?$pair@V?$basic_string@DU?$char_traits@D@std@@V?$allocator@D@2@@std@@VWeaponType@BWAPI@@@1@@Z 00443200 f i BWAPI:WeaponType.obj
 0001:00042240       ??$_Insert_nohint@AAU?$pair@$$CBV?$basic_string@DU?$char_traits@D@std@@V?$allocator@D@2@@std@@VWeaponType@BWAPI@@@std@@PAU?$_Tree_node@U?$pair@$$CBV?$basic_string@DU?$char_traits@D@std@@V?$allocator@D@2@@std@@VWeaponType@BWAPI@@@std@@PAX@2@@?$_Tree@V?$_Tmap_traits@V?$basic_string@DU?$char_traits@D@std@@V?$allocator@D@2@@std@@VWeaponType@BWAPI@@U?$less@V?$basic_string@DU?$char_traits@D@std@@V?$allocator@D@2@@std@@@2@V?$allocator@U?$pair@$$CBV?$basic_string@DU?$char_traits@D@std@@V?$allocator@D@2@@std@@VWeaponType@BWAPI@@@std@@@2@$0A@@std@@@std@@IAE?AU?$pair@V?$_Tree_iterator@V?$_Tree_val@U?$_Tree_simple_types@U?$pair@$$CBV?$basic_string@DU?$char_traits@D@std@@V?$allocator@D@2@@std@@VWeaponType@BWAPI@@@std@@@std@@@std@@@std@@_N@1@_NAAU?$pair@$$CBV?$basic_string@DU?$char_traits@D@std@@V?$allocator@D@2@@std@@VWeaponType@BWAPI@@@1@PAU?$_Tree_node@U?$pair@$$CBV?$basic_string@DU?$char_traits@D@std@@V?$allocator@D@2@@std@@VWeaponType@BWAPI@@@std@@PAX@1@@Z 00443240 f i BWAPI:WeaponType.obj
 0001:00042450       ?_Buynode0@?$_Tree_buy@U?$pair@$$CBV?$basic_string@DU?$char_traits@D@std@@V?$allocator@D@2@@std@@VWeaponType@BWAPI@@@std@@V?$allocator@U?$pair@$$CBV?$basic_string@DU?$char_traits@D@std@@V?$allocator@D@2@@std@@VWeaponType@BWAPI@@@std@@@2@@std@@QAEPAU?$_Tree_node@U?$pair@$$CBV?$basic_string@DU?$char_traits@D@std@@V?$allocator@D@2@@std@@VWeaponType@BWAPI@@@std@@PAX@2@XZ 00443450 f i BWAPI:WeaponType.obj
 0001:00042490       ??$_Insert_at@AAU?$pair@$$CBV?$basic_string@DU?$char_traits@D@std@@V?$allocator@D@2@@std@@VWeaponType@BWAPI@@@std@@PAU?$_Tree_node@U?$pair@$$CBV?$basic_string@DU?$char_traits@D@std@@V?$allocator@D@2@@std@@VWeaponType@BWAPI@@@std@@PAX@2@@?$_Tree@V?$_Tmap_traits@V?$basic_string@DU?$char_traits@D@std@@V?$allocator@D@2@@std@@VWeaponType@BWAPI@@U?$less@V?$basic_string@DU?$char_traits@D@std@@V?$allocator@D@2@@std@@@2@V?$allocator@U?$pair@$$CBV?$basic_string@DU?$char_traits@D@std@@V?$allocator@D@2@@std@@VWeaponType@BWAPI@@@std@@@2@$0A@@std@@@std@@IAE?AV?$_Tree_iterator@V?$_Tree_val@U?$_Tree_simple_types@U?$pair@$$CBV?$basic_string@DU?$char_traits@D@std@@V?$allocator@D@2@@std@@VWeaponType@BWAPI@@@std@@@std@@@std@@@1@_NPAU?$_Tree_node@U?$pair@$$CBV?$basic_string@DU?$char_traits@D@std@@V?$allocator@D@2@@std@@VWeaponType@BWAPI@@@std@@PAX@1@AAU?$pair@$$CBV?$basic_string@DU?$char_traits@D@std@@V?$allocator@D@2@@std@@VWeaponType@BWAPI@@@1@1@Z 00443490 f i BWAPI:WeaponType.obj
 0001:00042670       ?init@UnitSizeTypes@BWAPI@@YAXXZ 00443670 f   BWAPI:UnitSizeType.obj
 0001:000428e0       ?getName@UnitSizeType@BWAPI@@QBE?AV?$basic_string@DU?$char_traits@D@std@@V?$allocator@D@2@@std@@XZ 004438e0 f   BWAPI:UnitSizeType.obj
 0001:00042920       ?erase@?$_Tree@V?$_Tmap_traits@V?$basic_string@DU?$char_traits@D@std@@V?$allocator@D@2@@std@@VUnitSizeType@BWAPI@@U?$less@V?$basic_string@DU?$char_traits@D@std@@V?$allocator@D@2@@std@@@2@V?$allocator@U?$pair@$$CBV?$basic_string@DU?$char_traits@D@std@@V?$allocator@D@2@@std@@VUnitSizeType@BWAPI@@@std@@@2@$0A@@std@@@std@@QAE?AV?$_Tree_iterator@V?$_Tree_val@U?$_Tree_simple_types@U?$pair@$$CBV?$basic_string@DU?$char_traits@D@std@@V?$allocator@D@2@@std@@VUnitSizeType@BWAPI@@@std@@@std@@@std@@@2@V?$_Tree_const_iterator@V?$_Tree_val@U?$_Tree_simple_types@U?$pair@$$CBV?$basic_string@DU?$char_traits@D@std@@V?$allocator@D@2@@std@@VUnitSizeType@BWAPI@@@std@@@std@@@std@@@2@0@Z 00443920 f i BWAPI:UnitSizeType.obj
 0001:000429f0       ?erase@?$_Tree@V?$_Tset_traits@VUnitSizeType@BWAPI@@U?$less@VUnitSizeType@BWAPI@@@std@@V?$allocator@VUnitSizeType@BWAPI@@@4@$0A@@std@@@std@@QAE?AV?$_Tree_const_iterator@V?$_Tree_val@U?$_Tree_simple_types@VUnitSizeType@BWAPI@@@std@@@std@@@2@V32@0@Z 004439f0 f i BWAPI:UnitSizeType.obj
 0001:00042ac0       ?erase@?$_Tree@V?$_Tmap_traits@V?$basic_string@DU?$char_traits@D@std@@V?$allocator@D@2@@std@@VUnitSizeType@BWAPI@@U?$less@V?$basic_string@DU?$char_traits@D@std@@V?$allocator@D@2@@std@@@2@V?$allocator@U?$pair@$$CBV?$basic_string@DU?$char_traits@D@std@@V?$allocator@D@2@@std@@VUnitSizeType@BWAPI@@@std@@@2@$0A@@std@@@std@@QAE?AV?$_Tree_iterator@V?$_Tree_val@U?$_Tree_simple_types@U?$pair@$$CBV?$basic_string@DU?$char_traits@D@std@@V?$allocator@D@2@@std@@VUnitSizeType@BWAPI@@@std@@@std@@@std@@@2@V?$_Tree_const_iterator@V?$_Tree_val@U?$_Tree_simple_types@U?$pair@$$CBV?$basic_string@DU?$char_traits@D@std@@V?$allocator@D@2@@std@@VUnitSizeType@BWAPI@@@std@@@std@@@std@@@2@@Z 00443ac0 f i BWAPI:UnitSizeType.obj
 0001:00042d40       ?erase@?$_Tree@V?$_Tset_traits@VUnitSizeType@BWAPI@@U?$less@VUnitSizeType@BWAPI@@@std@@V?$allocator@VUnitSizeType@BWAPI@@@4@$0A@@std@@@std@@QAE?AV?$_Tree_const_iterator@V?$_Tree_val@U?$_Tree_simple_types@VUnitSizeType@BWAPI@@@std@@@std@@@2@V32@@Z 00443d40 f i BWAPI:UnitSizeType.obj
 0001:00042fa0       ?_Lrotate@?$_Tree@V?$_Tmap_traits@V?$basic_string@DU?$char_traits@D@std@@V?$allocator@D@2@@std@@VUnitSizeType@BWAPI@@U?$less@V?$basic_string@DU?$char_traits@D@std@@V?$allocator@D@2@@std@@@2@V?$allocator@U?$pair@$$CBV?$basic_string@DU?$char_traits@D@std@@V?$allocator@D@2@@std@@VUnitSizeType@BWAPI@@@std@@@2@$0A@@std@@@std@@IAEXPAU?$_Tree_node@U?$pair@$$CBV?$basic_string@DU?$char_traits@D@std@@V?$allocator@D@2@@std@@VUnitSizeType@BWAPI@@@std@@PAX@2@@Z 00443fa0 f i BWAPI:UnitSizeType.obj
 0001:00042ff0       ?_Rrotate@?$_Tree@V?$_Tmap_traits@V?$basic_string@DU?$char_traits@D@std@@V?$allocator@D@2@@std@@VUnitSizeType@BWAPI@@U?$less@V?$basic_string@DU?$char_traits@D@std@@V?$allocator@D@2@@std@@@2@V?$allocator@U?$pair@$$CBV?$basic_string@DU?$char_traits@D@std@@V?$allocator@D@2@@std@@VUnitSizeType@BWAPI@@@std@@@2@$0A@@std@@@std@@IAEXPAU?$_Tree_node@U?$pair@$$CBV?$basic_string@DU?$char_traits@D@std@@V?$allocator@D@2@@std@@VUnitSizeType@BWAPI@@@std@@PAX@2@@Z 00443ff0 f i BWAPI:UnitSizeType.obj
 0001:00043050       ?_Lrotate@?$_Tree@V?$_Tset_traits@VUnitSizeType@BWAPI@@U?$less@VUnitSizeType@BWAPI@@@std@@V?$allocator@VUnitSizeType@BWAPI@@@4@$0A@@std@@@std@@IAEXPAU?$_Tree_node@VUnitSizeType@BWAPI@@PAX@2@@Z 00444050 f i BWAPI:UnitSizeType.obj
 0001:000430a0       ?_Rrotate@?$_Tree@V?$_Tset_traits@VUnitSizeType@BWAPI@@U?$less@VUnitSizeType@BWAPI@@@std@@V?$allocator@VUnitSizeType@BWAPI@@@4@$0A@@std@@@std@@IAEXPAU?$_Tree_node@VUnitSizeType@BWAPI@@PAX@2@@Z 004440a0 f i BWAPI:UnitSizeType.obj
 0001:00043100       ??$_Insert_nohint@ABVUnitSizeType@BWAPI@@U_Nil@std@@@?$_Tree@V?$_Tset_traits@VUnitSizeType@BWAPI@@U?$less@VUnitSizeType@BWAPI@@@std@@V?$allocator@VUnitSizeType@BWAPI@@@4@$0A@@std@@@std@@IAE?AU?$pair@V?$_Tree_const_iterator@V?$_Tree_val@U?$_Tree_simple_types@VUnitSizeType@BWAPI@@@std@@@std@@@std@@_N@1@_NABVUnitSizeType@BWAPI@@U_Nil@1@@Z 00444100 f i BWAPI:UnitSizeType.obj
 0001:000431f0       ??$_Buynode@U?$pair@V?$basic_string@DU?$char_traits@D@std@@V?$allocator@D@2@@std@@VUnitSizeType@BWAPI@@@std@@@?$_Tree_buy@U?$pair@$$CBV?$basic_string@DU?$char_traits@D@std@@V?$allocator@D@2@@std@@VUnitSizeType@BWAPI@@@std@@V?$allocator@U?$pair@$$CBV?$basic_string@DU?$char_traits@D@std@@V?$allocator@D@2@@std@@VUnitSizeType@BWAPI@@@std@@@2@@std@@QAEPAU?$_Tree_node@U?$pair@$$CBV?$basic_string@DU?$char_traits@D@std@@V?$allocator@D@2@@std@@VUnitSizeType@BWAPI@@@std@@PAX@1@$$QAU?$pair@V?$basic_string@DU?$char_traits@D@std@@V?$allocator@D@2@@std@@VUnitSizeType@BWAPI@@@1@@Z 004441f0 f i BWAPI:UnitSizeType.obj
 0001:00043230       ??$_Insert_nohint@AAU?$pair@$$CBV?$basic_string@DU?$char_traits@D@std@@V?$allocator@D@2@@std@@VUnitSizeType@BWAPI@@@std@@PAU?$_Tree_node@U?$pair@$$CBV?$basic_string@DU?$char_traits@D@std@@V?$allocator@D@2@@std@@VUnitSizeType@BWAPI@@@std@@PAX@2@@?$_Tree@V?$_Tmap_traits@V?$basic_string@DU?$char_traits@D@std@@V?$allocator@D@2@@std@@VUnitSizeType@BWAPI@@U?$less@V?$basic_string@DU?$char_traits@D@std@@V?$allocator@D@2@@std@@@2@V?$allocator@U?$pair@$$CBV?$basic_string@DU?$char_traits@D@std@@V?$allocator@D@2@@std@@VUnitSizeType@BWAPI@@@std@@@2@$0A@@std@@@std@@IAE?AU?$pair@V?$_Tree_iterator@V?$_Tree_val@U?$_Tree_simple_types@U?$pair@$$CBV?$basic_string@DU?$char_traits@D@std@@V?$allocator@D@2@@std@@VUnitSizeType@BWAPI@@@std@@@std@@@std@@@std@@_N@1@_NAAU?$pair@$$CBV?$basic_string@DU?$char_traits@D@std@@V?$allocator@D@2@@std@@VUnitSizeType@BWAPI@@@1@PAU?$_Tree_node@U?$pair@$$CBV?$basic_string@DU?$char_traits@D@std@@V?$allocator@D@2@@std@@VUnitSizeType@BWAPI@@@std@@PAX@1@@Z 00444230 f i BWAPI:UnitSizeType.obj
 0001:00043440       ??$_Insert_at@ABVUnitSizeType@BWAPI@@U_Nil@std@@@?$_Tree@V?$_Tset_traits@VUnitSizeType@BWAPI@@U?$less@VUnitSizeType@BWAPI@@@std@@V?$allocator@VUnitSizeType@BWAPI@@@4@$0A@@std@@@std@@IAE?AV?$_Tree_const_iterator@V?$_Tree_val@U?$_Tree_simple_types@VUnitSizeType@BWAPI@@@std@@@std@@@1@_NPAU?$_Tree_node@VUnitSizeType@BWAPI@@PAX@1@ABVUnitSizeType@BWAPI@@U_Nil@1@@Z 00444440 f i BWAPI:UnitSizeType.obj
 0001:000435f0       ?_Buynode0@?$_Tree_buy@U?$pair@$$CBV?$basic_string@DU?$char_traits@D@std@@V?$allocator@D@2@@std@@VUnitSizeType@BWAPI@@@std@@V?$allocator@U?$pair@$$CBV?$basic_string@DU?$char_traits@D@std@@V?$allocator@D@2@@std@@VUnitSizeType@BWAPI@@@std@@@2@@std@@QAEPAU?$_Tree_node@U?$pair@$$CBV?$basic_string@DU?$char_traits@D@std@@V?$allocator@D@2@@std@@VUnitSizeType@BWAPI@@@std@@PAX@2@XZ 004445f0 f i BWAPI:UnitSizeType.obj
 0001:00043630       ??$_Insert_at@AAU?$pair@$$CBV?$basic_string@DU?$char_traits@D@std@@V?$allocator@D@2@@std@@VUnitSizeType@BWAPI@@@std@@PAU?$_Tree_node@U?$pair@$$CBV?$basic_string@DU?$char_traits@D@std@@V?$allocator@D@2@@std@@VUnitSizeType@BWAPI@@@std@@PAX@2@@?$_Tree@V?$_Tmap_traits@V?$basic_string@DU?$char_traits@D@std@@V?$allocator@D@2@@std@@VUnitSizeType@BWAPI@@U?$less@V?$basic_string@DU?$char_traits@D@std@@V?$allocator@D@2@@std@@@2@V?$allocator@U?$pair@$$CBV?$basic_string@DU?$char_traits@D@std@@V?$allocator@D@2@@std@@VUnitSizeType@BWAPI@@@std@@@2@$0A@@std@@@std@@IAE?AV?$_Tree_iterator@V?$_Tree_val@U?$_Tree_simple_types@U?$pair@$$CBV?$basic_string@DU?$char_traits@D@std@@V?$allocator@D@2@@std@@VUnitSizeType@BWAPI@@@std@@@std@@@std@@@1@_NPAU?$_Tree_node@U?$pair@$$CBV?$basic_string@DU?$char_traits@D@std@@V?$allocator@D@2@@std@@VUnitSizeType@BWAPI@@@std@@PAX@1@AAU?$pair@$$CBV?$basic_string@DU?$char_traits@D@std@@V?$allocator@D@2@@std@@VUnitSizeType@BWAPI@@@1@1@Z 00444630 f i BWAPI:UnitSizeType.obj
 0001:00043810       ??$_Buynode@ABVUnitSizeType@BWAPI@@@?$_Tree_buy@VUnitSizeType@BWAPI@@V?$allocator@VUnitSizeType@BWAPI@@@std@@@std@@QAEPAU?$_Tree_node@VUnitSizeType@BWAPI@@PAX@1@ABVUnitSizeType@BWAPI@@@Z 00444810 f i BWAPI:UnitSizeType.obj
 0001:00043830       ?_Buynode0@?$_Tree_buy@VUnitSizeType@BWAPI@@V?$allocator@VUnitSizeType@BWAPI@@@std@@@std@@QAEPAU?$_Tree_node@VUnitSizeType@BWAPI@@PAX@2@XZ 00444830 f i BWAPI:UnitSizeType.obj
 0001:00043870       ?init@DamageTypes@BWAPI@@YAXXZ 00444870 f   BWAPI:DamageType.obj
 0001:00043b10       ?getName@DamageType@BWAPI@@QBE?AV?$basic_string@DU?$char_traits@D@std@@V?$allocator@D@2@@std@@XZ 00444b10 f   BWAPI:DamageType.obj
 0001:00043b50       ?erase@?$_Tree@V?$_Tmap_traits@V?$basic_string@DU?$char_traits@D@std@@V?$allocator@D@2@@std@@VDamageType@BWAPI@@U?$less@V?$basic_string@DU?$char_traits@D@std@@V?$allocator@D@2@@std@@@2@V?$allocator@U?$pair@$$CBV?$basic_string@DU?$char_traits@D@std@@V?$allocator@D@2@@std@@VDamageType@BWAPI@@@std@@@2@$0A@@std@@@std@@QAE?AV?$_Tree_iterator@V?$_Tree_val@U?$_Tree_simple_types@U?$pair@$$CBV?$basic_string@DU?$char_traits@D@std@@V?$allocator@D@2@@std@@VDamageType@BWAPI@@@std@@@std@@@std@@@2@V?$_Tree_const_iterator@V?$_Tree_val@U?$_Tree_simple_types@U?$pair@$$CBV?$basic_string@DU?$char_traits@D@std@@V?$allocator@D@2@@std@@VDamageType@BWAPI@@@std@@@std@@@std@@@2@0@Z 00444b50 f i BWAPI:DamageType.obj
 0001:00043c20       ?erase@?$_Tree@V?$_Tset_traits@VDamageType@BWAPI@@U?$less@VDamageType@BWAPI@@@std@@V?$allocator@VDamageType@BWAPI@@@4@$0A@@std@@@std@@QAE?AV?$_Tree_const_iterator@V?$_Tree_val@U?$_Tree_simple_types@VDamageType@BWAPI@@@std@@@std@@@2@V32@0@Z 00444c20 f i BWAPI:DamageType.obj
 0001:00043cf0       ?erase@?$_Tree@V?$_Tmap_traits@V?$basic_string@DU?$char_traits@D@std@@V?$allocator@D@2@@std@@VDamageType@BWAPI@@U?$less@V?$basic_string@DU?$char_traits@D@std@@V?$allocator@D@2@@std@@@2@V?$allocator@U?$pair@$$CBV?$basic_string@DU?$char_traits@D@std@@V?$allocator@D@2@@std@@VDamageType@BWAPI@@@std@@@2@$0A@@std@@@std@@QAE?AV?$_Tree_iterator@V?$_Tree_val@U?$_Tree_simple_types@U?$pair@$$CBV?$basic_string@DU?$char_traits@D@std@@V?$allocator@D@2@@std@@VDamageType@BWAPI@@@std@@@std@@@std@@@2@V?$_Tree_const_iterator@V?$_Tree_val@U?$_Tree_simple_types@U?$pair@$$CBV?$basic_string@DU?$char_traits@D@std@@V?$allocator@D@2@@std@@VDamageType@BWAPI@@@std@@@std@@@std@@@2@@Z 00444cf0 f i BWAPI:DamageType.obj
 0001:00043f70       ?erase@?$_Tree@V?$_Tset_traits@VDamageType@BWAPI@@U?$less@VDamageType@BWAPI@@@std@@V?$allocator@VDamageType@BWAPI@@@4@$0A@@std@@@std@@QAE?AV?$_Tree_const_iterator@V?$_Tree_val@U?$_Tree_simple_types@VDamageType@BWAPI@@@std@@@std@@@2@V32@@Z 00444f70 f i BWAPI:DamageType.obj
 0001:000441d0       ?_Lrotate@?$_Tree@V?$_Tmap_traits@V?$basic_string@DU?$char_traits@D@std@@V?$allocator@D@2@@std@@VDamageType@BWAPI@@U?$less@V?$basic_string@DU?$char_traits@D@std@@V?$allocator@D@2@@std@@@2@V?$allocator@U?$pair@$$CBV?$basic_string@DU?$char_traits@D@std@@V?$allocator@D@2@@std@@VDamageType@BWAPI@@@std@@@2@$0A@@std@@@std@@IAEXPAU?$_Tree_node@U?$pair@$$CBV?$basic_string@DU?$char_traits@D@std@@V?$allocator@D@2@@std@@VDamageType@BWAPI@@@std@@PAX@2@@Z 004451d0 f i BWAPI:DamageType.obj
 0001:00044220       ?_Rrotate@?$_Tree@V?$_Tmap_traits@V?$basic_string@DU?$char_traits@D@std@@V?$allocator@D@2@@std@@VDamageType@BWAPI@@U?$less@V?$basic_string@DU?$char_traits@D@std@@V?$allocator@D@2@@std@@@2@V?$allocator@U?$pair@$$CBV?$basic_string@DU?$char_traits@D@std@@V?$allocator@D@2@@std@@VDamageType@BWAPI@@@std@@@2@$0A@@std@@@std@@IAEXPAU?$_Tree_node@U?$pair@$$CBV?$basic_string@DU?$char_traits@D@std@@V?$allocator@D@2@@std@@VDamageType@BWAPI@@@std@@PAX@2@@Z 00445220 f i BWAPI:DamageType.obj
 0001:00044280       ?_Lrotate@?$_Tree@V?$_Tset_traits@VDamageType@BWAPI@@U?$less@VDamageType@BWAPI@@@std@@V?$allocator@VDamageType@BWAPI@@@4@$0A@@std@@@std@@IAEXPAU?$_Tree_node@VDamageType@BWAPI@@PAX@2@@Z 00445280 f i BWAPI:DamageType.obj
 0001:000442d0       ?_Rrotate@?$_Tree@V?$_Tset_traits@VDamageType@BWAPI@@U?$less@VDamageType@BWAPI@@@std@@V?$allocator@VDamageType@BWAPI@@@4@$0A@@std@@@std@@IAEXPAU?$_Tree_node@VDamageType@BWAPI@@PAX@2@@Z 004452d0 f i BWAPI:DamageType.obj
 0001:00044330       ??$_Insert_nohint@ABVDamageType@BWAPI@@U_Nil@std@@@?$_Tree@V?$_Tset_traits@VDamageType@BWAPI@@U?$less@VDamageType@BWAPI@@@std@@V?$allocator@VDamageType@BWAPI@@@4@$0A@@std@@@std@@IAE?AU?$pair@V?$_Tree_const_iterator@V?$_Tree_val@U?$_Tree_simple_types@VDamageType@BWAPI@@@std@@@std@@@std@@_N@1@_NABVDamageType@BWAPI@@U_Nil@1@@Z 00445330 f i BWAPI:DamageType.obj
 0001:00044420       ??$_Buynode@U?$pair@V?$basic_string@DU?$char_traits@D@std@@V?$allocator@D@2@@std@@VDamageType@BWAPI@@@std@@@?$_Tree_buy@U?$pair@$$CBV?$basic_string@DU?$char_traits@D@std@@V?$allocator@D@2@@std@@VDamageType@BWAPI@@@std@@V?$allocator@U?$pair@$$CBV?$basic_string@DU?$char_traits@D@std@@V?$allocator@D@2@@std@@VDamageType@BWAPI@@@std@@@2@@std@@QAEPAU?$_Tree_node@U?$pair@$$CBV?$basic_string@DU?$char_traits@D@std@@V?$allocator@D@2@@std@@VDamageType@BWAPI@@@std@@PAX@1@$$QAU?$pair@V?$basic_string@DU?$char_traits@D@std@@V?$allocator@D@2@@std@@VDamageType@BWAPI@@@1@@Z 00445420 f i BWAPI:DamageType.obj
 0001:00044460       ??$_Insert_nohint@AAU?$pair@$$CBV?$basic_string@DU?$char_traits@D@std@@V?$allocator@D@2@@std@@VDamageType@BWAPI@@@std@@PAU?$_Tree_node@U?$pair@$$CBV?$basic_string@DU?$char_traits@D@std@@V?$allocator@D@2@@std@@VDamageType@BWAPI@@@std@@PAX@2@@?$_Tree@V?$_Tmap_traits@V?$basic_string@DU?$char_traits@D@std@@V?$allocator@D@2@@std@@VDamageType@BWAPI@@U?$less@V?$basic_string@DU?$char_traits@D@std@@V?$allocator@D@2@@std@@@2@V?$allocator@U?$pair@$$CBV?$basic_string@DU?$char_traits@D@std@@V?$allocator@D@2@@std@@VDamageType@BWAPI@@@std@@@2@$0A@@std@@@std@@IAE?AU?$pair@V?$_Tree_iterator@V?$_Tree_val@U?$_Tree_simple_types@U?$pair@$$CBV?$basic_string@DU?$char_traits@D@std@@V?$allocator@D@2@@std@@VDamageType@BWAPI@@@std@@@std@@@std@@@std@@_N@1@_NAAU?$pair@$$CBV?$basic_string@DU?$char_traits@D@std@@V?$allocator@D@2@@std@@VDamageType@BWAPI@@@1@PAU?$_Tree_node@U?$pair@$$CBV?$basic_string@DU?$char_traits@D@std@@V?$allocator@D@2@@std@@VDamageType@BWAPI@@@std@@PAX@1@@Z 00445460 f i BWAPI:DamageType.obj
 0001:00044670       ??$_Insert_at@ABVDamageType@BWAPI@@U_Nil@std@@@?$_Tree@V?$_Tset_traits@VDamageType@BWAPI@@U?$less@VDamageType@BWAPI@@@std@@V?$allocator@VDamageType@BWAPI@@@4@$0A@@std@@@std@@IAE?AV?$_Tree_const_iterator@V?$_Tree_val@U?$_Tree_simple_types@VDamageType@BWAPI@@@std@@@std@@@1@_NPAU?$_Tree_node@VDamageType@BWAPI@@PAX@1@ABVDamageType@BWAPI@@U_Nil@1@@Z 00445670 f i BWAPI:DamageType.obj
 0001:00044820       ?_Buynode0@?$_Tree_buy@U?$pair@$$CBV?$basic_string@DU?$char_traits@D@std@@V?$allocator@D@2@@std@@VDamageType@BWAPI@@@std@@V?$allocator@U?$pair@$$CBV?$basic_string@DU?$char_traits@D@std@@V?$allocator@D@2@@std@@VDamageType@BWAPI@@@std@@@2@@std@@QAEPAU?$_Tree_node@U?$pair@$$CBV?$basic_string@DU?$char_traits@D@std@@V?$allocator@D@2@@std@@VDamageType@BWAPI@@@std@@PAX@2@XZ 00445820 f i BWAPI:DamageType.obj
 0001:00044860       ??$_Insert_at@AAU?$pair@$$CBV?$basic_string@DU?$char_traits@D@std@@V?$allocator@D@2@@std@@VDamageType@BWAPI@@@std@@PAU?$_Tree_node@U?$pair@$$CBV?$basic_string@DU?$char_traits@D@std@@V?$allocator@D@2@@std@@VDamageType@BWAPI@@@std@@PAX@2@@?$_Tree@V?$_Tmap_traits@V?$basic_string@DU?$char_traits@D@std@@V?$allocator@D@2@@std@@VDamageType@BWAPI@@U?$less@V?$basic_string@DU?$char_traits@D@std@@V?$allocator@D@2@@std@@@2@V?$allocator@U?$pair@$$CBV?$basic_string@DU?$char_traits@D@std@@V?$allocator@D@2@@std@@VDamageType@BWAPI@@@std@@@2@$0A@@std@@@std@@IAE?AV?$_Tree_iterator@V?$_Tree_val@U?$_Tree_simple_types@U?$pair@$$CBV?$basic_string@DU?$char_traits@D@std@@V?$allocator@D@2@@std@@VDamageType@BWAPI@@@std@@@std@@@std@@@1@_NPAU?$_Tree_node@U?$pair@$$CBV?$basic_string@DU?$char_traits@D@std@@V?$allocator@D@2@@std@@VDamageType@BWAPI@@@std@@PAX@1@AAU?$pair@$$CBV?$basic_string@DU?$char_traits@D@std@@V?$allocator@D@2@@std@@VDamageType@BWAPI@@@1@1@Z 00445860 f i BWAPI:DamageType.obj
 0001:00044a40       ??$_Buynode@ABVDamageType@BWAPI@@@?$_Tree_buy@VDamageType@BWAPI@@V?$allocator@VDamageType@BWAPI@@@std@@@std@@QAEPAU?$_Tree_node@VDamageType@BWAPI@@PAX@1@ABVDamageType@BWAPI@@@Z 00445a40 f i BWAPI:DamageType.obj
 0001:00044a60       ?_Buynode0@?$_Tree_buy@VDamageType@BWAPI@@V?$allocator@VDamageType@BWAPI@@@std@@@std@@QAEPAU?$_Tree_node@VDamageType@BWAPI@@PAX@2@XZ 00445a60 f i BWAPI:DamageType.obj
 0001:00044aa0       ??0RaceInternal@BWAPI@@QAE@XZ 00445aa0 f i BWAPI:Race.obj
 0001:00044ae0       ?init@Races@BWAPI@@YAXXZ   00445ae0 f   BWAPI:Race.obj
 0001:00044ec0       ?getName@Race@BWAPI@@QBE?AV?$basic_string@DU?$char_traits@D@std@@V?$allocator@D@2@@std@@XZ 00445ec0 f   BWAPI:Race.obj
 0001:00044f00       ?erase@?$_Tree@V?$_Tmap_traits@V?$basic_string@DU?$char_traits@D@std@@V?$allocator@D@2@@std@@VRace@BWAPI@@U?$less@V?$basic_string@DU?$char_traits@D@std@@V?$allocator@D@2@@std@@@2@V?$allocator@U?$pair@$$CBV?$basic_string@DU?$char_traits@D@std@@V?$allocator@D@2@@std@@VRace@BWAPI@@@std@@@2@$0A@@std@@@std@@QAE?AV?$_Tree_iterator@V?$_Tree_val@U?$_Tree_simple_types@U?$pair@$$CBV?$basic_string@DU?$char_traits@D@std@@V?$allocator@D@2@@std@@VRace@BWAPI@@@std@@@std@@@std@@@2@V?$_Tree_const_iterator@V?$_Tree_val@U?$_Tree_simple_types@U?$pair@$$CBV?$basic_string@DU?$char_traits@D@std@@V?$allocator@D@2@@std@@VRace@BWAPI@@@std@@@std@@@std@@@2@0@Z 00445f00 f i BWAPI:Race.obj
 0001:00044fe0       ?erase@?$_Tree@V?$_Tset_traits@VRace@BWAPI@@U?$less@VRace@BWAPI@@@std@@V?$allocator@VRace@BWAPI@@@4@$0A@@std@@@std@@QAE?AV?$_Tree_const_iterator@V?$_Tree_val@U?$_Tree_simple_types@VRace@BWAPI@@@std@@@std@@@2@V32@0@Z 00445fe0 f i BWAPI:Race.obj
 0001:000450b0       ?erase@?$_Tree@V?$_Tmap_traits@V?$basic_string@DU?$char_traits@D@std@@V?$allocator@D@2@@std@@VRace@BWAPI@@U?$less@V?$basic_string@DU?$char_traits@D@std@@V?$allocator@D@2@@std@@@2@V?$allocator@U?$pair@$$CBV?$basic_string@DU?$char_traits@D@std@@V?$allocator@D@2@@std@@VRace@BWAPI@@@std@@@2@$0A@@std@@@std@@QAE?AV?$_Tree_iterator@V?$_Tree_val@U?$_Tree_simple_types@U?$pair@$$CBV?$basic_string@DU?$char_traits@D@std@@V?$allocator@D@2@@std@@VRace@BWAPI@@@std@@@std@@@std@@@2@V?$_Tree_const_iterator@V?$_Tree_val@U?$_Tree_simple_types@U?$pair@$$CBV?$basic_string@DU?$char_traits@D@std@@V?$allocator@D@2@@std@@VRace@BWAPI@@@std@@@std@@@std@@@2@@Z 004460b0 f i BWAPI:Race.obj
 0001:00045330       ?erase@?$_Tree@V?$_Tset_traits@VRace@BWAPI@@U?$less@VRace@BWAPI@@@std@@V?$allocator@VRace@BWAPI@@@4@$0A@@std@@@std@@QAE?AV?$_Tree_const_iterator@V?$_Tree_val@U?$_Tree_simple_types@VRace@BWAPI@@@std@@@std@@@2@V32@@Z 00446330 f i BWAPI:Race.obj
 0001:00045590       ?_Lrotate@?$_Tree@V?$_Tmap_traits@V?$basic_string@DU?$char_traits@D@std@@V?$allocator@D@2@@std@@VRace@BWAPI@@U?$less@V?$basic_string@DU?$char_traits@D@std@@V?$allocator@D@2@@std@@@2@V?$allocator@U?$pair@$$CBV?$basic_string@DU?$char_traits@D@std@@V?$allocator@D@2@@std@@VRace@BWAPI@@@std@@@2@$0A@@std@@@std@@IAEXPAU?$_Tree_node@U?$pair@$$CBV?$basic_string@DU?$char_traits@D@std@@V?$allocator@D@2@@std@@VRace@BWAPI@@@std@@PAX@2@@Z 00446590 f i BWAPI:Race.obj
 0001:000455e0       ?_Rrotate@?$_Tree@V?$_Tmap_traits@V?$basic_string@DU?$char_traits@D@std@@V?$allocator@D@2@@std@@VRace@BWAPI@@U?$less@V?$basic_string@DU?$char_traits@D@std@@V?$allocator@D@2@@std@@@2@V?$allocator@U?$pair@$$CBV?$basic_string@DU?$char_traits@D@std@@V?$allocator@D@2@@std@@VRace@BWAPI@@@std@@@2@$0A@@std@@@std@@IAEXPAU?$_Tree_node@U?$pair@$$CBV?$basic_string@DU?$char_traits@D@std@@V?$allocator@D@2@@std@@VRace@BWAPI@@@std@@PAX@2@@Z 004465e0 f i BWAPI:Race.obj
 0001:00045640       ?_Lrotate@?$_Tree@V?$_Tset_traits@VRace@BWAPI@@U?$less@VRace@BWAPI@@@std@@V?$allocator@VRace@BWAPI@@@4@$0A@@std@@@std@@IAEXPAU?$_Tree_node@VRace@BWAPI@@PAX@2@@Z 00446640 f i BWAPI:Race.obj
 0001:00045690       ?_Rrotate@?$_Tree@V?$_Tset_traits@VRace@BWAPI@@U?$less@VRace@BWAPI@@@std@@V?$allocator@VRace@BWAPI@@@4@$0A@@std@@@std@@IAEXPAU?$_Tree_node@VRace@BWAPI@@PAX@2@@Z 00446690 f i BWAPI:Race.obj
 0001:000456f0       ??$_Insert_nohint@ABVRace@BWAPI@@U_Nil@std@@@?$_Tree@V?$_Tset_traits@VRace@BWAPI@@U?$less@VRace@BWAPI@@@std@@V?$allocator@VRace@BWAPI@@@4@$0A@@std@@@std@@IAE?AU?$pair@V?$_Tree_const_iterator@V?$_Tree_val@U?$_Tree_simple_types@VRace@BWAPI@@@std@@@std@@@std@@_N@1@_NABVRace@BWAPI@@U_Nil@1@@Z 004466f0 f i BWAPI:Race.obj
 0001:000457e0       ??$_Buynode@U?$pair@V?$basic_string@DU?$char_traits@D@std@@V?$allocator@D@2@@std@@VRace@BWAPI@@@std@@@?$_Tree_buy@U?$pair@$$CBV?$basic_string@DU?$char_traits@D@std@@V?$allocator@D@2@@std@@VRace@BWAPI@@@std@@V?$allocator@U?$pair@$$CBV?$basic_string@DU?$char_traits@D@std@@V?$allocator@D@2@@std@@VRace@BWAPI@@@std@@@2@@std@@QAEPAU?$_Tree_node@U?$pair@$$CBV?$basic_string@DU?$char_traits@D@std@@V?$allocator@D@2@@std@@VRace@BWAPI@@@std@@PAX@1@$$QAU?$pair@V?$basic_string@DU?$char_traits@D@std@@V?$allocator@D@2@@std@@VRace@BWAPI@@@1@@Z 004467e0 f i BWAPI:Race.obj
 0001:00045820       ??$_Insert_nohint@AAU?$pair@$$CBV?$basic_string@DU?$char_traits@D@std@@V?$allocator@D@2@@std@@VRace@BWAPI@@@std@@PAU?$_Tree_node@U?$pair@$$CBV?$basic_string@DU?$char_traits@D@std@@V?$allocator@D@2@@std@@VRace@BWAPI@@@std@@PAX@2@@?$_Tree@V?$_Tmap_traits@V?$basic_string@DU?$char_traits@D@std@@V?$allocator@D@2@@std@@VRace@BWAPI@@U?$less@V?$basic_string@DU?$char_traits@D@std@@V?$allocator@D@2@@std@@@2@V?$allocator@U?$pair@$$CBV?$basic_string@DU?$char_traits@D@std@@V?$allocator@D@2@@std@@VRace@BWAPI@@@std@@@2@$0A@@std@@@std@@IAE?AU?$pair@V?$_Tree_iterator@V?$_Tree_val@U?$_Tree_simple_types@U?$pair@$$CBV?$basic_string@DU?$char_traits@D@std@@V?$allocator@D@2@@std@@VRace@BWAPI@@@std@@@std@@@std@@@std@@_N@1@_NAAU?$pair@$$CBV?$basic_string@DU?$char_traits@D@std@@V?$allocator@D@2@@std@@VRace@BWAPI@@@1@PAU?$_Tree_node@U?$pair@$$CBV?$basic_string@DU?$char_traits@D@std@@V?$allocator@D@2@@std@@VRace@BWAPI@@@std@@PAX@1@@Z 00446820 f i BWAPI:Race.obj
 0001:00045a30       ??$_Insert_at@ABVRace@BWAPI@@U_Nil@std@@@?$_Tree@V?$_Tset_traits@VRace@BWAPI@@U?$less@VRace@BWAPI@@@std@@V?$allocator@VRace@BWAPI@@@4@$0A@@std@@@std@@IAE?AV?$_Tree_const_iterator@V?$_Tree_val@U?$_Tree_simple_types@VRace@BWAPI@@@std@@@std@@@1@_NPAU?$_Tree_node@VRace@BWAPI@@PAX@1@ABVRace@BWAPI@@U_Nil@1@@Z 00446a30 f i BWAPI:Race.obj
 0001:00045be0       ?_Buynode0@?$_Tree_buy@U?$pair@$$CBV?$basic_string@DU?$char_traits@D@std@@V?$allocator@D@2@@std@@VRace@BWAPI@@@std@@V?$allocator@U?$pair@$$CBV?$basic_string@DU?$char_traits@D@std@@V?$allocator@D@2@@std@@VRace@BWAPI@@@std@@@2@@std@@QAEPAU?$_Tree_node@U?$pair@$$CBV?$basic_string@DU?$char_traits@D@std@@V?$allocator@D@2@@std@@VRace@BWAPI@@@std@@PAX@2@XZ 00446be0 f i BWAPI:Race.obj
 0001:00045c20       ??$_Insert_at@AAU?$pair@$$CBV?$basic_string@DU?$char_traits@D@std@@V?$allocator@D@2@@std@@VRace@BWAPI@@@std@@PAU?$_Tree_node@U?$pair@$$CBV?$basic_string@DU?$char_traits@D@std@@V?$allocator@D@2@@std@@VRace@BWAPI@@@std@@PAX@2@@?$_Tree@V?$_Tmap_traits@V?$basic_string@DU?$char_traits@D@std@@V?$allocator@D@2@@std@@VRace@BWAPI@@U?$less@V?$basic_string@DU?$char_traits@D@std@@V?$allocator@D@2@@std@@@2@V?$allocator@U?$pair@$$CBV?$basic_string@DU?$char_traits@D@std@@V?$allocator@D@2@@std@@VRace@BWAPI@@@std@@@2@$0A@@std@@@std@@IAE?AV?$_Tree_iterator@V?$_Tree_val@U?$_Tree_simple_types@U?$pair@$$CBV?$basic_string@DU?$char_traits@D@std@@V?$allocator@D@2@@std@@VRace@BWAPI@@@std@@@std@@@std@@@1@_NPAU?$_Tree_node@U?$pair@$$CBV?$basic_string@DU?$char_traits@D@std@@V?$allocator@D@2@@std@@VRace@BWAPI@@@std@@PAX@1@AAU?$pair@$$CBV?$basic_string@DU?$char_traits@D@std@@V?$allocator@D@2@@std@@VRace@BWAPI@@@1@1@Z 00446c20 f i BWAPI:Race.obj
 0001:00045e00       ??$_Buynode@ABVRace@BWAPI@@@?$_Tree_buy@VRace@BWAPI@@V?$allocator@VRace@BWAPI@@@std@@@std@@QAEPAU?$_Tree_node@VRace@BWAPI@@PAX@1@ABVRace@BWAPI@@@Z 00446e00 f i BWAPI:Race.obj
 0001:00045e20       ?_Buynode0@?$_Tree_buy@VRace@BWAPI@@V?$allocator@VRace@BWAPI@@@std@@@std@@QAEPAU?$_Tree_node@VRace@BWAPI@@PAX@2@XZ 00446e20 f i BWAPI:Race.obj
 0001:00045e60       ?fixName@BWAPI@@YAXPAV?$basic_string@DU?$char_traits@D@std@@V?$allocator@D@2@@std@@@Z 00446e60 f   BWAPI:Common.obj
 0001:00045ee0       ?init@GameTypes@BWAPI@@YAXXZ 00446ee0 f   BWAPI:GameType.obj
 0001:00046350       ?getName@GameType@BWAPI@@QBE?AV?$basic_string@DU?$char_traits@D@std@@V?$allocator@D@2@@std@@XZ 00447350 f   BWAPI:GameType.obj
 0001:00046390       ?erase@?$_Tree@V?$_Tmap_traits@V?$basic_string@DU?$char_traits@D@std@@V?$allocator@D@2@@std@@VGameType@BWAPI@@U?$less@V?$basic_string@DU?$char_traits@D@std@@V?$allocator@D@2@@std@@@2@V?$allocator@U?$pair@$$CBV?$basic_string@DU?$char_traits@D@std@@V?$allocator@D@2@@std@@VGameType@BWAPI@@@std@@@2@$0A@@std@@@std@@QAE?AV?$_Tree_iterator@V?$_Tree_val@U?$_Tree_simple_types@U?$pair@$$CBV?$basic_string@DU?$char_traits@D@std@@V?$allocator@D@2@@std@@VGameType@BWAPI@@@std@@@std@@@std@@@2@V?$_Tree_const_iterator@V?$_Tree_val@U?$_Tree_simple_types@U?$pair@$$CBV?$basic_string@DU?$char_traits@D@std@@V?$allocator@D@2@@std@@VGameType@BWAPI@@@std@@@std@@@std@@@2@0@Z 00447390 f i BWAPI:GameType.obj
 0001:00046460       ?erase@?$_Tree@V?$_Tset_traits@VGameType@BWAPI@@U?$less@VGameType@BWAPI@@@std@@V?$allocator@VGameType@BWAPI@@@4@$0A@@std@@@std@@QAE?AV?$_Tree_const_iterator@V?$_Tree_val@U?$_Tree_simple_types@VGameType@BWAPI@@@std@@@std@@@2@V32@0@Z 00447460 f i BWAPI:GameType.obj
 0001:00046530       ?erase@?$_Tree@V?$_Tmap_traits@V?$basic_string@DU?$char_traits@D@std@@V?$allocator@D@2@@std@@VGameType@BWAPI@@U?$less@V?$basic_string@DU?$char_traits@D@std@@V?$allocator@D@2@@std@@@2@V?$allocator@U?$pair@$$CBV?$basic_string@DU?$char_traits@D@std@@V?$allocator@D@2@@std@@VGameType@BWAPI@@@std@@@2@$0A@@std@@@std@@QAE?AV?$_Tree_iterator@V?$_Tree_val@U?$_Tree_simple_types@U?$pair@$$CBV?$basic_string@DU?$char_traits@D@std@@V?$allocator@D@2@@std@@VGameType@BWAPI@@@std@@@std@@@std@@@2@V?$_Tree_const_iterator@V?$_Tree_val@U?$_Tree_simple_types@U?$pair@$$CBV?$basic_string@DU?$char_traits@D@std@@V?$allocator@D@2@@std@@VGameType@BWAPI@@@std@@@std@@@std@@@2@@Z 00447530 f i BWAPI:GameType.obj
 0001:000467b0       ?erase@?$_Tree@V?$_Tset_traits@VGameType@BWAPI@@U?$less@VGameType@BWAPI@@@std@@V?$allocator@VGameType@BWAPI@@@4@$0A@@std@@@std@@QAE?AV?$_Tree_const_iterator@V?$_Tree_val@U?$_Tree_simple_types@VGameType@BWAPI@@@std@@@std@@@2@V32@@Z 004477b0 f i BWAPI:GameType.obj
 0001:00046a10       ?_Lrotate@?$_Tree@V?$_Tmap_traits@V?$basic_string@DU?$char_traits@D@std@@V?$allocator@D@2@@std@@VGameType@BWAPI@@U?$less@V?$basic_string@DU?$char_traits@D@std@@V?$allocator@D@2@@std@@@2@V?$allocator@U?$pair@$$CBV?$basic_string@DU?$char_traits@D@std@@V?$allocator@D@2@@std@@VGameType@BWAPI@@@std@@@2@$0A@@std@@@std@@IAEXPAU?$_Tree_node@U?$pair@$$CBV?$basic_string@DU?$char_traits@D@std@@V?$allocator@D@2@@std@@VGameType@BWAPI@@@std@@PAX@2@@Z 00447a10 f i BWAPI:GameType.obj
 0001:00046a60       ?_Rrotate@?$_Tree@V?$_Tmap_traits@V?$basic_string@DU?$char_traits@D@std@@V?$allocator@D@2@@std@@VGameType@BWAPI@@U?$less@V?$basic_string@DU?$char_traits@D@std@@V?$allocator@D@2@@std@@@2@V?$allocator@U?$pair@$$CBV?$basic_string@DU?$char_traits@D@std@@V?$allocator@D@2@@std@@VGameType@BWAPI@@@std@@@2@$0A@@std@@@std@@IAEXPAU?$_Tree_node@U?$pair@$$CBV?$basic_string@DU?$char_traits@D@std@@V?$allocator@D@2@@std@@VGameType@BWAPI@@@std@@PAX@2@@Z 00447a60 f i BWAPI:GameType.obj
 0001:00046ac0       ?_Lrotate@?$_Tree@V?$_Tset_traits@VGameType@BWAPI@@U?$less@VGameType@BWAPI@@@std@@V?$allocator@VGameType@BWAPI@@@4@$0A@@std@@@std@@IAEXPAU?$_Tree_node@VGameType@BWAPI@@PAX@2@@Z 00447ac0 f i BWAPI:GameType.obj
 0001:00046b10       ?_Rrotate@?$_Tree@V?$_Tset_traits@VGameType@BWAPI@@U?$less@VGameType@BWAPI@@@std@@V?$allocator@VGameType@BWAPI@@@4@$0A@@std@@@std@@IAEXPAU?$_Tree_node@VGameType@BWAPI@@PAX@2@@Z 00447b10 f i BWAPI:GameType.obj
 0001:00046b70       ??$_Insert_nohint@ABVGameType@BWAPI@@U_Nil@std@@@?$_Tree@V?$_Tset_traits@VGameType@BWAPI@@U?$less@VGameType@BWAPI@@@std@@V?$allocator@VGameType@BWAPI@@@4@$0A@@std@@@std@@IAE?AU?$pair@V?$_Tree_const_iterator@V?$_Tree_val@U?$_Tree_simple_types@VGameType@BWAPI@@@std@@@std@@@std@@_N@1@_NABVGameType@BWAPI@@U_Nil@1@@Z 00447b70 f i BWAPI:GameType.obj
 0001:00046c60       ??$_Buynode@U?$pair@V?$basic_string@DU?$char_traits@D@std@@V?$allocator@D@2@@std@@VGameType@BWAPI@@@std@@@?$_Tree_buy@U?$pair@$$CBV?$basic_string@DU?$char_traits@D@std@@V?$allocator@D@2@@std@@VGameType@BWAPI@@@std@@V?$allocator@U?$pair@$$CBV?$basic_string@DU?$char_traits@D@std@@V?$allocator@D@2@@std@@VGameType@BWAPI@@@std@@@2@@std@@QAEPAU?$_Tree_node@U?$pair@$$CBV?$basic_string@DU?$char_traits@D@std@@V?$allocator@D@2@@std@@VGameType@BWAPI@@@std@@PAX@1@$$QAU?$pair@V?$basic_string@DU?$char_traits@D@std@@V?$allocator@D@2@@std@@VGameType@BWAPI@@@1@@Z 00447c60 f i BWAPI:GameType.obj
 0001:00046ca0       ??$_Insert_nohint@AAU?$pair@$$CBV?$basic_string@DU?$char_traits@D@std@@V?$allocator@D@2@@std@@VGameType@BWAPI@@@std@@PAU?$_Tree_node@U?$pair@$$CBV?$basic_string@DU?$char_traits@D@std@@V?$allocator@D@2@@std@@VGameType@BWAPI@@@std@@PAX@2@@?$_Tree@V?$_Tmap_traits@V?$basic_string@DU?$char_traits@D@std@@V?$allocator@D@2@@std@@VGameType@BWAPI@@U?$less@V?$basic_string@DU?$char_traits@D@std@@V?$allocator@D@2@@std@@@2@V?$allocator@U?$pair@$$CBV?$basic_string@DU?$char_traits@D@std@@V?$allocator@D@2@@std@@VGameType@BWAPI@@@std@@@2@$0A@@std@@@std@@IAE?AU?$pair@V?$_Tree_iterator@V?$_Tree_val@U?$_Tree_simple_types@U?$pair@$$CBV?$basic_string@DU?$char_traits@D@std@@V?$allocator@D@2@@std@@VGameType@BWAPI@@@std@@@std@@@std@@@std@@_N@1@_NAAU?$pair@$$CBV?$basic_string@DU?$char_traits@D@std@@V?$allocator@D@2@@std@@VGameType@BWAPI@@@1@PAU?$_Tree_node@U?$pair@$$CBV?$basic_string@DU?$char_traits@D@std@@V?$allocator@D@2@@std@@VGameType@BWAPI@@@std@@PAX@1@@Z 00447ca0 f i BWAPI:GameType.obj
 0001:00046eb0       ??$_Insert_at@ABVGameType@BWAPI@@U_Nil@std@@@?$_Tree@V?$_Tset_traits@VGameType@BWAPI@@U?$less@VGameType@BWAPI@@@std@@V?$allocator@VGameType@BWAPI@@@4@$0A@@std@@@std@@IAE?AV?$_Tree_const_iterator@V?$_Tree_val@U?$_Tree_simple_types@VGameType@BWAPI@@@std@@@std@@@1@_NPAU?$_Tree_node@VGameType@BWAPI@@PAX@1@ABVGameType@BWAPI@@U_Nil@1@@Z 00447eb0 f i BWAPI:GameType.obj
 0001:00047060       ?_Buynode0@?$_Tree_buy@U?$pair@$$CBV?$basic_string@DU?$char_traits@D@std@@V?$allocator@D@2@@std@@VGameType@BWAPI@@@std@@V?$allocator@U?$pair@$$CBV?$basic_string@DU?$char_traits@D@std@@V?$allocator@D@2@@std@@VGameType@BWAPI@@@std@@@2@@std@@QAEPAU?$_Tree_node@U?$pair@$$CBV?$basic_string@DU?$char_traits@D@std@@V?$allocator@D@2@@std@@VGameType@BWAPI@@@std@@PAX@2@XZ 00448060 f i BWAPI:GameType.obj
 0001:000470a0       ??$_Insert_at@AAU?$pair@$$CBV?$basic_string@DU?$char_traits@D@std@@V?$allocator@D@2@@std@@VGameType@BWAPI@@@std@@PAU?$_Tree_node@U?$pair@$$CBV?$basic_string@DU?$char_traits@D@std@@V?$allocator@D@2@@std@@VGameType@BWAPI@@@std@@PAX@2@@?$_Tree@V?$_Tmap_traits@V?$basic_string@DU?$char_traits@D@std@@V?$allocator@D@2@@std@@VGameType@BWAPI@@U?$less@V?$basic_string@DU?$char_traits@D@std@@V?$allocator@D@2@@std@@@2@V?$allocator@U?$pair@$$CBV?$basic_string@DU?$char_traits@D@std@@V?$allocator@D@2@@std@@VGameType@BWAPI@@@std@@@2@$0A@@std@@@std@@IAE?AV?$_Tree_iterator@V?$_Tree_val@U?$_Tree_simple_types@U?$pair@$$CBV?$basic_string@DU?$char_traits@D@std@@V?$allocator@D@2@@std@@VGameType@BWAPI@@@std@@@std@@@std@@@1@_NPAU?$_Tree_node@U?$pair@$$CBV?$basic_string@DU?$char_traits@D@std@@V?$allocator@D@2@@std@@VGameType@BWAPI@@@std@@PAX@1@AAU?$pair@$$CBV?$basic_string@DU?$char_traits@D@std@@V?$allocator@D@2@@std@@VGameType@BWAPI@@@1@1@Z 004480a0 f i BWAPI:GameType.obj
 0001:00047280       ??$_Buynode@ABVGameType@BWAPI@@@?$_Tree_buy@VGameType@BWAPI@@V?$allocator@VGameType@BWAPI@@@std@@@std@@QAEPAU?$_Tree_node@VGameType@BWAPI@@PAX@1@ABVGameType@BWAPI@@@Z 00448280 f i BWAPI:GameType.obj
 0001:000472a0       ?_Buynode0@?$_Tree_buy@VGameType@BWAPI@@V?$allocator@VGameType@BWAPI@@@std@@@std@@QAEPAU?$_Tree_node@VGameType@BWAPI@@PAX@2@XZ 004482a0 f i BWAPI:GameType.obj
 0001:000472e0       ?init@Errors@BWAPI@@YAXXZ  004482e0 f   BWAPI:Error.obj
 0001:00047910       ?toString@Error@BWAPI@@QBE?AV?$basic_string@DU?$char_traits@D@std@@V?$allocator@D@2@@std@@XZ 00448910 f   BWAPI:Error.obj
 0001:00047950       ?erase@?$_Tree@V?$_Tmap_traits@V?$basic_string@DU?$char_traits@D@std@@V?$allocator@D@2@@std@@VError@BWAPI@@U?$less@V?$basic_string@DU?$char_traits@D@std@@V?$allocator@D@2@@std@@@2@V?$allocator@U?$pair@$$CBV?$basic_string@DU?$char_traits@D@std@@V?$allocator@D@2@@std@@VError@BWAPI@@@std@@@2@$0A@@std@@@std@@QAE?AV?$_Tree_iterator@V?$_Tree_val@U?$_Tree_simple_types@U?$pair@$$CBV?$basic_string@DU?$char_traits@D@std@@V?$allocator@D@2@@std@@VError@BWAPI@@@std@@@std@@@std@@@2@V?$_Tree_const_iterator@V?$_Tree_val@U?$_Tree_simple_types@U?$pair@$$CBV?$basic_string@DU?$char_traits@D@std@@V?$allocator@D@2@@std@@VError@BWAPI@@@std@@@std@@@std@@@2@0@Z 00448950 f i BWAPI:Error.obj
 0001:00047a20       ?erase@?$_Tree@V?$_Tset_traits@VError@BWAPI@@U?$less@VError@BWAPI@@@std@@V?$allocator@VError@BWAPI@@@4@$0A@@std@@@std@@QAE?AV?$_Tree_const_iterator@V?$_Tree_val@U?$_Tree_simple_types@VError@BWAPI@@@std@@@std@@@2@V32@0@Z 00448a20 f i BWAPI:Error.obj
 0001:00047af0       ?erase@?$_Tree@V?$_Tmap_traits@V?$basic_string@DU?$char_traits@D@std@@V?$allocator@D@2@@std@@VError@BWAPI@@U?$less@V?$basic_string@DU?$char_traits@D@std@@V?$allocator@D@2@@std@@@2@V?$allocator@U?$pair@$$CBV?$basic_string@DU?$char_traits@D@std@@V?$allocator@D@2@@std@@VError@BWAPI@@@std@@@2@$0A@@std@@@std@@QAE?AV?$_Tree_iterator@V?$_Tree_val@U?$_Tree_simple_types@U?$pair@$$CBV?$basic_string@DU?$char_traits@D@std@@V?$allocator@D@2@@std@@VError@BWAPI@@@std@@@std@@@std@@@2@V?$_Tree_const_iterator@V?$_Tree_val@U?$_Tree_simple_types@U?$pair@$$CBV?$basic_string@DU?$char_traits@D@std@@V?$allocator@D@2@@std@@VError@BWAPI@@@std@@@std@@@std@@@2@@Z 00448af0 f i BWAPI:Error.obj
 0001:00047d70       ?erase@?$_Tree@V?$_Tset_traits@VError@BWAPI@@U?$less@VError@BWAPI@@@std@@V?$allocator@VError@BWAPI@@@4@$0A@@std@@@std@@QAE?AV?$_Tree_const_iterator@V?$_Tree_val@U?$_Tree_simple_types@VError@BWAPI@@@std@@@std@@@2@V32@@Z 00448d70 f i BWAPI:Error.obj
 0001:00047fd0       ?_Lrotate@?$_Tree@V?$_Tmap_traits@V?$basic_string@DU?$char_traits@D@std@@V?$allocator@D@2@@std@@VError@BWAPI@@U?$less@V?$basic_string@DU?$char_traits@D@std@@V?$allocator@D@2@@std@@@2@V?$allocator@U?$pair@$$CBV?$basic_string@DU?$char_traits@D@std@@V?$allocator@D@2@@std@@VError@BWAPI@@@std@@@2@$0A@@std@@@std@@IAEXPAU?$_Tree_node@U?$pair@$$CBV?$basic_string@DU?$char_traits@D@std@@V?$allocator@D@2@@std@@VError@BWAPI@@@std@@PAX@2@@Z 00448fd0 f i BWAPI:Error.obj
 0001:00048020       ?_Rrotate@?$_Tree@V?$_Tmap_traits@V?$basic_string@DU?$char_traits@D@std@@V?$allocator@D@2@@std@@VError@BWAPI@@U?$less@V?$basic_string@DU?$char_traits@D@std@@V?$allocator@D@2@@std@@@2@V?$allocator@U?$pair@$$CBV?$basic_string@DU?$char_traits@D@std@@V?$allocator@D@2@@std@@VError@BWAPI@@@std@@@2@$0A@@std@@@std@@IAEXPAU?$_Tree_node@U?$pair@$$CBV?$basic_string@DU?$char_traits@D@std@@V?$allocator@D@2@@std@@VError@BWAPI@@@std@@PAX@2@@Z 00449020 f i BWAPI:Error.obj
 0001:00048080       ?_Lrotate@?$_Tree@V?$_Tset_traits@VError@BWAPI@@U?$less@VError@BWAPI@@@std@@V?$allocator@VError@BWAPI@@@4@$0A@@std@@@std@@IAEXPAU?$_Tree_node@VError@BWAPI@@PAX@2@@Z 00449080 f i BWAPI:Error.obj
 0001:000480d0       ?_Rrotate@?$_Tree@V?$_Tset_traits@VError@BWAPI@@U?$less@VError@BWAPI@@@std@@V?$allocator@VError@BWAPI@@@4@$0A@@std@@@std@@IAEXPAU?$_Tree_node@VError@BWAPI@@PAX@2@@Z 004490d0 f i BWAPI:Error.obj
 0001:00048130       ??$_Insert_nohint@ABVError@BWAPI@@U_Nil@std@@@?$_Tree@V?$_Tset_traits@VError@BWAPI@@U?$less@VError@BWAPI@@@std@@V?$allocator@VError@BWAPI@@@4@$0A@@std@@@std@@IAE?AU?$pair@V?$_Tree_const_iterator@V?$_Tree_val@U?$_Tree_simple_types@VError@BWAPI@@@std@@@std@@@std@@_N@1@_NABVError@BWAPI@@U_Nil@1@@Z 00449130 f i BWAPI:Error.obj
 0001:00048220       ??$_Buynode@U?$pair@V?$basic_string@DU?$char_traits@D@std@@V?$allocator@D@2@@std@@VError@BWAPI@@@std@@@?$_Tree_buy@U?$pair@$$CBV?$basic_string@DU?$char_traits@D@std@@V?$allocator@D@2@@std@@VError@BWAPI@@@std@@V?$allocator@U?$pair@$$CBV?$basic_string@DU?$char_traits@D@std@@V?$allocator@D@2@@std@@VError@BWAPI@@@std@@@2@@std@@QAEPAU?$_Tree_node@U?$pair@$$CBV?$basic_string@DU?$char_traits@D@std@@V?$allocator@D@2@@std@@VError@BWAPI@@@std@@PAX@1@$$QAU?$pair@V?$basic_string@DU?$char_traits@D@std@@V?$allocator@D@2@@std@@VError@BWAPI@@@1@@Z 00449220 f i BWAPI:Error.obj
 0001:00048260       ??$_Insert_nohint@AAU?$pair@$$CBV?$basic_string@DU?$char_traits@D@std@@V?$allocator@D@2@@std@@VError@BWAPI@@@std@@PAU?$_Tree_node@U?$pair@$$CBV?$basic_string@DU?$char_traits@D@std@@V?$allocator@D@2@@std@@VError@BWAPI@@@std@@PAX@2@@?$_Tree@V?$_Tmap_traits@V?$basic_string@DU?$char_traits@D@std@@V?$allocator@D@2@@std@@VError@BWAPI@@U?$less@V?$basic_string@DU?$char_traits@D@std@@V?$allocator@D@2@@std@@@2@V?$allocator@U?$pair@$$CBV?$basic_string@DU?$char_traits@D@std@@V?$allocator@D@2@@std@@VError@BWAPI@@@std@@@2@$0A@@std@@@std@@IAE?AU?$pair@V?$_Tree_iterator@V?$_Tree_val@U?$_Tree_simple_types@U?$pair@$$CBV?$basic_string@DU?$char_traits@D@std@@V?$allocator@D@2@@std@@VError@BWAPI@@@std@@@std@@@std@@@std@@_N@1@_NAAU?$pair@$$CBV?$basic_string@DU?$char_traits@D@std@@V?$allocator@D@2@@std@@VError@BWAPI@@@1@PAU?$_Tree_node@U?$pair@$$CBV?$basic_string@DU?$char_traits@D@std@@V?$allocator@D@2@@std@@VError@BWAPI@@@std@@PAX@1@@Z 00449260 f i BWAPI:Error.obj
 0001:00048470       ??$_Insert_at@ABVError@BWAPI@@U_Nil@std@@@?$_Tree@V?$_Tset_traits@VError@BWAPI@@U?$less@VError@BWAPI@@@std@@V?$allocator@VError@BWAPI@@@4@$0A@@std@@@std@@IAE?AV?$_Tree_const_iterator@V?$_Tree_val@U?$_Tree_simple_types@VError@BWAPI@@@std@@@std@@@1@_NPAU?$_Tree_node@VError@BWAPI@@PAX@1@ABVError@BWAPI@@U_Nil@1@@Z 00449470 f i BWAPI:Error.obj
 0001:00048620       ?_Buynode0@?$_Tree_buy@U?$pair@$$CBV?$basic_string@DU?$char_traits@D@std@@V?$allocator@D@2@@std@@VError@BWAPI@@@std@@V?$allocator@U?$pair@$$CBV?$basic_string@DU?$char_traits@D@std@@V?$allocator@D@2@@std@@VError@BWAPI@@@std@@@2@@std@@QAEPAU?$_Tree_node@U?$pair@$$CBV?$basic_string@DU?$char_traits@D@std@@V?$allocator@D@2@@std@@VError@BWAPI@@@std@@PAX@2@XZ 00449620 f i BWAPI:Error.obj
 0001:00048660       ??$_Insert_at@AAU?$pair@$$CBV?$basic_string@DU?$char_traits@D@std@@V?$allocator@D@2@@std@@VError@BWAPI@@@std@@PAU?$_Tree_node@U?$pair@$$CBV?$basic_string@DU?$char_traits@D@std@@V?$allocator@D@2@@std@@VError@BWAPI@@@std@@PAX@2@@?$_Tree@V?$_Tmap_traits@V?$basic_string@DU?$char_traits@D@std@@V?$allocator@D@2@@std@@VError@BWAPI@@U?$less@V?$basic_string@DU?$char_traits@D@std@@V?$allocator@D@2@@std@@@2@V?$allocator@U?$pair@$$CBV?$basic_string@DU?$char_traits@D@std@@V?$allocator@D@2@@std@@VError@BWAPI@@@std@@@2@$0A@@std@@@std@@IAE?AV?$_Tree_iterator@V?$_Tree_val@U?$_Tree_simple_types@U?$pair@$$CBV?$basic_string@DU?$char_traits@D@std@@V?$allocator@D@2@@std@@VError@BWAPI@@@std@@@std@@@std@@@1@_NPAU?$_Tree_node@U?$pair@$$CBV?$basic_string@DU?$char_traits@D@std@@V?$allocator@D@2@@std@@VError@BWAPI@@@std@@PAX@1@AAU?$pair@$$CBV?$basic_string@DU?$char_traits@D@std@@V?$allocator@D@2@@std@@VError@BWAPI@@@1@1@Z 00449660 f i BWAPI:Error.obj
 0001:00048840       ??$_Buynode@ABVError@BWAPI@@@?$_Tree_buy@VError@BWAPI@@V?$allocator@VError@BWAPI@@@std@@@std@@QAEPAU?$_Tree_node@VError@BWAPI@@PAX@1@ABVError@BWAPI@@@Z 00449840 f i BWAPI:Error.obj
 0001:00048860       ?_Buynode0@?$_Tree_buy@VError@BWAPI@@V?$allocator@VError@BWAPI@@@std@@@std@@QAEPAU?$_Tree_node@VError@BWAPI@@PAX@2@XZ 00449860 f i BWAPI:Error.obj
 0001:000488a0       ?init@UnitCommandTypes@BWAPI@@YAXXZ 004498a0 f   BWAPI:UnitCommandType.obj
 0001:000492d0       ?getName@UnitCommandType@BWAPI@@QBE?AV?$basic_string@DU?$char_traits@D@std@@V?$allocator@D@2@@std@@XZ 0044a2d0 f   BWAPI:UnitCommandType.obj
 0001:00049310       ?erase@?$_Tree@V?$_Tmap_traits@V?$basic_string@DU?$char_traits@D@std@@V?$allocator@D@2@@std@@VUnitCommandType@BWAPI@@U?$less@V?$basic_string@DU?$char_traits@D@std@@V?$allocator@D@2@@std@@@2@V?$allocator@U?$pair@$$CBV?$basic_string@DU?$char_traits@D@std@@V?$allocator@D@2@@std@@VUnitCommandType@BWAPI@@@std@@@2@$0A@@std@@@std@@QAE?AV?$_Tree_iterator@V?$_Tree_val@U?$_Tree_simple_types@U?$pair@$$CBV?$basic_string@DU?$char_traits@D@std@@V?$allocator@D@2@@std@@VUnitCommandType@BWAPI@@@std@@@std@@@std@@@2@V?$_Tree_const_iterator@V?$_Tree_val@U?$_Tree_simple_types@U?$pair@$$CBV?$basic_string@DU?$char_traits@D@std@@V?$allocator@D@2@@std@@VUnitCommandType@BWAPI@@@std@@@std@@@std@@@2@0@Z 0044a310 f i BWAPI:UnitCommandType.obj
 0001:000493e0       ?erase@?$_Tree@V?$_Tset_traits@VUnitCommandType@BWAPI@@U?$less@VUnitCommandType@BWAPI@@@std@@V?$allocator@VUnitCommandType@BWAPI@@@4@$0A@@std@@@std@@QAE?AV?$_Tree_const_iterator@V?$_Tree_val@U?$_Tree_simple_types@VUnitCommandType@BWAPI@@@std@@@std@@@2@V32@0@Z 0044a3e0 f i BWAPI:UnitCommandType.obj
 0001:000494b0       ?erase@?$_Tree@V?$_Tmap_traits@V?$basic_string@DU?$char_traits@D@std@@V?$allocator@D@2@@std@@VUnitCommandType@BWAPI@@U?$less@V?$basic_string@DU?$char_traits@D@std@@V?$allocator@D@2@@std@@@2@V?$allocator@U?$pair@$$CBV?$basic_string@DU?$char_traits@D@std@@V?$allocator@D@2@@std@@VUnitCommandType@BWAPI@@@std@@@2@$0A@@std@@@std@@QAE?AV?$_Tree_iterator@V?$_Tree_val@U?$_Tree_simple_types@U?$pair@$$CBV?$basic_string@DU?$char_traits@D@std@@V?$allocator@D@2@@std@@VUnitCommandType@BWAPI@@@std@@@std@@@std@@@2@V?$_Tree_const_iterator@V?$_Tree_val@U?$_Tree_simple_types@U?$pair@$$CBV?$basic_string@DU?$char_traits@D@std@@V?$allocator@D@2@@std@@VUnitCommandType@BWAPI@@@std@@@std@@@std@@@2@@Z 0044a4b0 f i BWAPI:UnitCommandType.obj
 0001:00049730       ?erase@?$_Tree@V?$_Tset_traits@VUnitCommandType@BWAPI@@U?$less@VUnitCommandType@BWAPI@@@std@@V?$allocator@VUnitCommandType@BWAPI@@@4@$0A@@std@@@std@@QAE?AV?$_Tree_const_iterator@V?$_Tree_val@U?$_Tree_simple_types@VUnitCommandType@BWAPI@@@std@@@std@@@2@V32@@Z 0044a730 f i BWAPI:UnitCommandType.obj
 0001:00049990       ?_Lrotate@?$_Tree@V?$_Tmap_traits@V?$basic_string@DU?$char_traits@D@std@@V?$allocator@D@2@@std@@VUnitCommandType@BWAPI@@U?$less@V?$basic_string@DU?$char_traits@D@std@@V?$allocator@D@2@@std@@@2@V?$allocator@U?$pair@$$CBV?$basic_string@DU?$char_traits@D@std@@V?$allocator@D@2@@std@@VUnitCommandType@BWAPI@@@std@@@2@$0A@@std@@@std@@IAEXPAU?$_Tree_node@U?$pair@$$CBV?$basic_string@DU?$char_traits@D@std@@V?$allocator@D@2@@std@@VUnitCommandType@BWAPI@@@std@@PAX@2@@Z 0044a990 f i BWAPI:UnitCommandType.obj
 0001:000499e0       ?_Rrotate@?$_Tree@V?$_Tmap_traits@V?$basic_string@DU?$char_traits@D@std@@V?$allocator@D@2@@std@@VUnitCommandType@BWAPI@@U?$less@V?$basic_string@DU?$char_traits@D@std@@V?$allocator@D@2@@std@@@2@V?$allocator@U?$pair@$$CBV?$basic_string@DU?$char_traits@D@std@@V?$allocator@D@2@@std@@VUnitCommandType@BWAPI@@@std@@@2@$0A@@std@@@std@@IAEXPAU?$_Tree_node@U?$pair@$$CBV?$basic_string@DU?$char_traits@D@std@@V?$allocator@D@2@@std@@VUnitCommandType@BWAPI@@@std@@PAX@2@@Z 0044a9e0 f i BWAPI:UnitCommandType.obj
 0001:00049a40       ?_Lrotate@?$_Tree@V?$_Tset_traits@VUnitCommandType@BWAPI@@U?$less@VUnitCommandType@BWAPI@@@std@@V?$allocator@VUnitCommandType@BWAPI@@@4@$0A@@std@@@std@@IAEXPAU?$_Tree_node@VUnitCommandType@BWAPI@@PAX@2@@Z 0044aa40 f i BWAPI:UnitCommandType.obj
 0001:00049a90       ?_Rrotate@?$_Tree@V?$_Tset_traits@VUnitCommandType@BWAPI@@U?$less@VUnitCommandType@BWAPI@@@std@@V?$allocator@VUnitCommandType@BWAPI@@@4@$0A@@std@@@std@@IAEXPAU?$_Tree_node@VUnitCommandType@BWAPI@@PAX@2@@Z 0044aa90 f i BWAPI:UnitCommandType.obj
 0001:00049af0       ??$_Insert_nohint@ABVUnitCommandType@BWAPI@@U_Nil@std@@@?$_Tree@V?$_Tset_traits@VUnitCommandType@BWAPI@@U?$less@VUnitCommandType@BWAPI@@@std@@V?$allocator@VUnitCommandType@BWAPI@@@4@$0A@@std@@@std@@IAE?AU?$pair@V?$_Tree_const_iterator@V?$_Tree_val@U?$_Tree_simple_types@VUnitCommandType@BWAPI@@@std@@@std@@@std@@_N@1@_NABVUnitCommandType@BWAPI@@U_Nil@1@@Z 0044aaf0 f i BWAPI:UnitCommandType.obj
 0001:00049be0       ??$_Buynode@U?$pair@V?$basic_string@DU?$char_traits@D@std@@V?$allocator@D@2@@std@@VUnitCommandType@BWAPI@@@std@@@?$_Tree_buy@U?$pair@$$CBV?$basic_string@DU?$char_traits@D@std@@V?$allocator@D@2@@std@@VUnitCommandType@BWAPI@@@std@@V?$allocator@U?$pair@$$CBV?$basic_string@DU?$char_traits@D@std@@V?$allocator@D@2@@std@@VUnitCommandType@BWAPI@@@std@@@2@@std@@QAEPAU?$_Tree_node@U?$pair@$$CBV?$basic_string@DU?$char_traits@D@std@@V?$allocator@D@2@@std@@VUnitCommandType@BWAPI@@@std@@PAX@1@$$QAU?$pair@V?$basic_string@DU?$char_traits@D@std@@V?$allocator@D@2@@std@@VUnitCommandType@BWAPI@@@1@@Z 0044abe0 f i BWAPI:UnitCommandType.obj
 0001:00049c20       ??$_Insert_nohint@AAU?$pair@$$CBV?$basic_string@DU?$char_traits@D@std@@V?$allocator@D@2@@std@@VUnitCommandType@BWAPI@@@std@@PAU?$_Tree_node@U?$pair@$$CBV?$basic_string@DU?$char_traits@D@std@@V?$allocator@D@2@@std@@VUnitCommandType@BWAPI@@@std@@PAX@2@@?$_Tree@V?$_Tmap_traits@V?$basic_string@DU?$char_traits@D@std@@V?$allocator@D@2@@std@@VUnitCommandType@BWAPI@@U?$less@V?$basic_string@DU?$char_traits@D@std@@V?$allocator@D@2@@std@@@2@V?$allocator@U?$pair@$$CBV?$basic_string@DU?$char_traits@D@std@@V?$allocator@D@2@@std@@VUnitCommandType@BWAPI@@@std@@@2@$0A@@std@@@std@@IAE?AU?$pair@V?$_Tree_iterator@V?$_Tree_val@U?$_Tree_simple_types@U?$pair@$$CBV?$basic_string@DU?$char_traits@D@std@@V?$allocator@D@2@@std@@VUnitCommandType@BWAPI@@@std@@@std@@@std@@@std@@_N@1@_NAAU?$pair@$$CBV?$basic_string@DU?$char_traits@D@std@@V?$allocator@D@2@@std@@VUnitCommandType@BWAPI@@@1@PAU?$_Tree_node@U?$pair@$$CBV?$basic_string@DU?$char_traits@D@std@@V?$allocator@D@2@@std@@VUnitCommandType@BWAPI@@@std@@PAX@1@@Z 0044ac20 f i BWAPI:UnitCommandType.obj
 0001:00049e30       ??$_Insert_at@ABVUnitCommandType@BWAPI@@U_Nil@std@@@?$_Tree@V?$_Tset_traits@VUnitCommandType@BWAPI@@U?$less@VUnitCommandType@BWAPI@@@std@@V?$allocator@VUnitCommandType@BWAPI@@@4@$0A@@std@@@std@@IAE?AV?$_Tree_const_iterator@V?$_Tree_val@U?$_Tree_simple_types@VUnitCommandType@BWAPI@@@std@@@std@@@1@_NPAU?$_Tree_node@VUnitCommandType@BWAPI@@PAX@1@ABVUnitCommandType@BWAPI@@U_Nil@1@@Z 0044ae30 f i BWAPI:UnitCommandType.obj
 0001:00049fe0       ?_Buynode0@?$_Tree_buy@U?$pair@$$CBV?$basic_string@DU?$char_traits@D@std@@V?$allocator@D@2@@std@@VUnitCommandType@BWAPI@@@std@@V?$allocator@U?$pair@$$CBV?$basic_string@DU?$char_traits@D@std@@V?$allocator@D@2@@std@@VUnitCommandType@BWAPI@@@std@@@2@@std@@QAEPAU?$_Tree_node@U?$pair@$$CBV?$basic_string@DU?$char_traits@D@std@@V?$allocator@D@2@@std@@VUnitCommandType@BWAPI@@@std@@PAX@2@XZ 0044afe0 f i BWAPI:UnitCommandType.obj
 0001:0004a020       ??$_Insert_at@AAU?$pair@$$CBV?$basic_string@DU?$char_traits@D@std@@V?$allocator@D@2@@std@@VUnitCommandType@BWAPI@@@std@@PAU?$_Tree_node@U?$pair@$$CBV?$basic_string@DU?$char_traits@D@std@@V?$allocator@D@2@@std@@VUnitCommandType@BWAPI@@@std@@PAX@2@@?$_Tree@V?$_Tmap_traits@V?$basic_string@DU?$char_traits@D@std@@V?$allocator@D@2@@std@@VUnitCommandType@BWAPI@@U?$less@V?$basic_string@DU?$char_traits@D@std@@V?$allocator@D@2@@std@@@2@V?$allocator@U?$pair@$$CBV?$basic_string@DU?$char_traits@D@std@@V?$allocator@D@2@@std@@VUnitCommandType@BWAPI@@@std@@@2@$0A@@std@@@std@@IAE?AV?$_Tree_iterator@V?$_Tree_val@U?$_Tree_simple_types@U?$pair@$$CBV?$basic_string@DU?$char_traits@D@std@@V?$allocator@D@2@@std@@VUnitCommandType@BWAPI@@@std@@@std@@@std@@@1@_NPAU?$_Tree_node@U?$pair@$$CBV?$basic_string@DU?$char_traits@D@std@@V?$allocator@D@2@@std@@VUnitCommandType@BWAPI@@@std@@PAX@1@AAU?$pair@$$CBV?$basic_string@DU?$char_traits@D@std@@V?$allocator@D@2@@std@@VUnitCommandType@BWAPI@@@1@1@Z 0044b020 f i BWAPI:UnitCommandType.obj
 0001:0004a200       ??$_Buynode@ABVUnitCommandType@BWAPI@@@?$_Tree_buy@VUnitCommandType@BWAPI@@V?$allocator@VUnitCommandType@BWAPI@@@std@@@std@@QAEPAU?$_Tree_node@VUnitCommandType@BWAPI@@PAX@1@ABVUnitCommandType@BWAPI@@@Z 0044b200 f i BWAPI:UnitCommandType.obj
 0001:0004a220       ?_Buynode0@?$_Tree_buy@VUnitCommandType@BWAPI@@V?$allocator@VUnitCommandType@BWAPI@@@std@@@std@@QAEPAU?$_Tree_node@VUnitCommandType@BWAPI@@PAX@2@XZ 0044b220 f i BWAPI:UnitCommandType.obj
 0001:0004a260       ?init@Colors@BWAPI@@YAXXZ  0044b260 f   BWAPI:Color.obj
 0001:0004a2f0       ??0?$list@HV?$allocator@H@std@@@std@@QAE@XZ 0044b2f0 f i BWAPI:Color.obj
 0001:0004a310       ??1?$list@HV?$allocator@H@std@@@std@@QAE@XZ 0044b310 f i BWAPI:Color.obj
 0001:0004a350       ?_Buynode0@?$_List_alloc@$0A@U?$_List_base_types@HV?$allocator@H@std@@@std@@@std@@QAEPAU?$_List_node@HPAX@2@PAU32@0@Z 0044b350 f i BWAPI:Color.obj
 0001:0004a390       ??$_Buynode@ABH@?$_List_buy@HV?$allocator@H@std@@@std@@QAEPAU?$_List_node@HPAX@1@PAU21@0ABH@Z 0044b390 f i BWAPI:Color.obj
 0001:0004a3b0       ?init@PlayerTypes@BWAPI@@YAXXZ 0044b3b0 f   BWAPI:PlayerType.obj
 0001:0004a720       ?getName@PlayerType@BWAPI@@QBE?AV?$basic_string@DU?$char_traits@D@std@@V?$allocator@D@2@@std@@XZ 0044b720 f   BWAPI:PlayerType.obj
 0001:0004a760       ?erase@?$_Tree@V?$_Tmap_traits@V?$basic_string@DU?$char_traits@D@std@@V?$allocator@D@2@@std@@VPlayerType@BWAPI@@U?$less@V?$basic_string@DU?$char_traits@D@std@@V?$allocator@D@2@@std@@@2@V?$allocator@U?$pair@$$CBV?$basic_string@DU?$char_traits@D@std@@V?$allocator@D@2@@std@@VPlayerType@BWAPI@@@std@@@2@$0A@@std@@@std@@QAE?AV?$_Tree_iterator@V?$_Tree_val@U?$_Tree_simple_types@U?$pair@$$CBV?$basic_string@DU?$char_traits@D@std@@V?$allocator@D@2@@std@@VPlayerType@BWAPI@@@std@@@std@@@std@@@2@V?$_Tree_const_iterator@V?$_Tree_val@U?$_Tree_simple_types@U?$pair@$$CBV?$basic_string@DU?$char_traits@D@std@@V?$allocator@D@2@@std@@VPlayerType@BWAPI@@@std@@@std@@@std@@@2@0@Z 0044b760 f i BWAPI:PlayerType.obj
 0001:0004a830       ?erase@?$_Tree@V?$_Tset_traits@VPlayerType@BWAPI@@U?$less@VPlayerType@BWAPI@@@std@@V?$allocator@VPlayerType@BWAPI@@@4@$0A@@std@@@std@@QAE?AV?$_Tree_const_iterator@V?$_Tree_val@U?$_Tree_simple_types@VPlayerType@BWAPI@@@std@@@std@@@2@V32@0@Z 0044b830 f i BWAPI:PlayerType.obj
 0001:0004a900       ?erase@?$_Tree@V?$_Tmap_traits@V?$basic_string@DU?$char_traits@D@std@@V?$allocator@D@2@@std@@VPlayerType@BWAPI@@U?$less@V?$basic_string@DU?$char_traits@D@std@@V?$allocator@D@2@@std@@@2@V?$allocator@U?$pair@$$CBV?$basic_string@DU?$char_traits@D@std@@V?$allocator@D@2@@std@@VPlayerType@BWAPI@@@std@@@2@$0A@@std@@@std@@QAE?AV?$_Tree_iterator@V?$_Tree_val@U?$_Tree_simple_types@U?$pair@$$CBV?$basic_string@DU?$char_traits@D@std@@V?$allocator@D@2@@std@@VPlayerType@BWAPI@@@std@@@std@@@std@@@2@V?$_Tree_const_iterator@V?$_Tree_val@U?$_Tree_simple_types@U?$pair@$$CBV?$basic_string@DU?$char_traits@D@std@@V?$allocator@D@2@@std@@VPlayerType@BWAPI@@@std@@@std@@@std@@@2@@Z 0044b900 f i BWAPI:PlayerType.obj
 0001:0004ab80       ?erase@?$_Tree@V?$_Tset_traits@VPlayerType@BWAPI@@U?$less@VPlayerType@BWAPI@@@std@@V?$allocator@VPlayerType@BWAPI@@@4@$0A@@std@@@std@@QAE?AV?$_Tree_const_iterator@V?$_Tree_val@U?$_Tree_simple_types@VPlayerType@BWAPI@@@std@@@std@@@2@V32@@Z 0044bb80 f i BWAPI:PlayerType.obj
 0001:0004ade0       ?_Lrotate@?$_Tree@V?$_Tmap_traits@V?$basic_string@DU?$char_traits@D@std@@V?$allocator@D@2@@std@@VPlayerType@BWAPI@@U?$less@V?$basic_string@DU?$char_traits@D@std@@V?$allocator@D@2@@std@@@2@V?$allocator@U?$pair@$$CBV?$basic_string@DU?$char_traits@D@std@@V?$allocator@D@2@@std@@VPlayerType@BWAPI@@@std@@@2@$0A@@std@@@std@@IAEXPAU?$_Tree_node@U?$pair@$$CBV?$basic_string@DU?$char_traits@D@std@@V?$allocator@D@2@@std@@VPlayerType@BWAPI@@@std@@PAX@2@@Z 0044bde0 f i BWAPI:PlayerType.obj
 0001:0004ae30       ?_Rrotate@?$_Tree@V?$_Tmap_traits@V?$basic_string@DU?$char_traits@D@std@@V?$allocator@D@2@@std@@VPlayerType@BWAPI@@U?$less@V?$basic_string@DU?$char_traits@D@std@@V?$allocator@D@2@@std@@@2@V?$allocator@U?$pair@$$CBV?$basic_string@DU?$char_traits@D@std@@V?$allocator@D@2@@std@@VPlayerType@BWAPI@@@std@@@2@$0A@@std@@@std@@IAEXPAU?$_Tree_node@U?$pair@$$CBV?$basic_string@DU?$char_traits@D@std@@V?$allocator@D@2@@std@@VPlayerType@BWAPI@@@std@@PAX@2@@Z 0044be30 f i BWAPI:PlayerType.obj
 0001:0004ae90       ?_Lrotate@?$_Tree@V?$_Tset_traits@VPlayerType@BWAPI@@U?$less@VPlayerType@BWAPI@@@std@@V?$allocator@VPlayerType@BWAPI@@@4@$0A@@std@@@std@@IAEXPAU?$_Tree_node@VPlayerType@BWAPI@@PAX@2@@Z 0044be90 f i BWAPI:PlayerType.obj
 0001:0004aee0       ?_Rrotate@?$_Tree@V?$_Tset_traits@VPlayerType@BWAPI@@U?$less@VPlayerType@BWAPI@@@std@@V?$allocator@VPlayerType@BWAPI@@@4@$0A@@std@@@std@@IAEXPAU?$_Tree_node@VPlayerType@BWAPI@@PAX@2@@Z 0044bee0 f i BWAPI:PlayerType.obj
 0001:0004af40       ??$_Insert_nohint@ABVPlayerType@BWAPI@@U_Nil@std@@@?$_Tree@V?$_Tset_traits@VPlayerType@BWAPI@@U?$less@VPlayerType@BWAPI@@@std@@V?$allocator@VPlayerType@BWAPI@@@4@$0A@@std@@@std@@IAE?AU?$pair@V?$_Tree_const_iterator@V?$_Tree_val@U?$_Tree_simple_types@VPlayerType@BWAPI@@@std@@@std@@@std@@_N@1@_NABVPlayerType@BWAPI@@U_Nil@1@@Z 0044bf40 f i BWAPI:PlayerType.obj
 0001:0004b030       ??$_Buynode@U?$pair@V?$basic_string@DU?$char_traits@D@std@@V?$allocator@D@2@@std@@VPlayerType@BWAPI@@@std@@@?$_Tree_buy@U?$pair@$$CBV?$basic_string@DU?$char_traits@D@std@@V?$allocator@D@2@@std@@VPlayerType@BWAPI@@@std@@V?$allocator@U?$pair@$$CBV?$basic_string@DU?$char_traits@D@std@@V?$allocator@D@2@@std@@VPlayerType@BWAPI@@@std@@@2@@std@@QAEPAU?$_Tree_node@U?$pair@$$CBV?$basic_string@DU?$char_traits@D@std@@V?$allocator@D@2@@std@@VPlayerType@BWAPI@@@std@@PAX@1@$$QAU?$pair@V?$basic_string@DU?$char_traits@D@std@@V?$allocator@D@2@@std@@VPlayerType@BWAPI@@@1@@Z 0044c030 f i BWAPI:PlayerType.obj
 0001:0004b070       ??$_Insert_nohint@AAU?$pair@$$CBV?$basic_string@DU?$char_traits@D@std@@V?$allocator@D@2@@std@@VPlayerType@BWAPI@@@std@@PAU?$_Tree_node@U?$pair@$$CBV?$basic_string@DU?$char_traits@D@std@@V?$allocator@D@2@@std@@VPlayerType@BWAPI@@@std@@PAX@2@@?$_Tree@V?$_Tmap_traits@V?$basic_string@DU?$char_traits@D@std@@V?$allocator@D@2@@std@@VPlayerType@BWAPI@@U?$less@V?$basic_string@DU?$char_traits@D@std@@V?$allocator@D@2@@std@@@2@V?$allocator@U?$pair@$$CBV?$basic_string@DU?$char_traits@D@std@@V?$allocator@D@2@@std@@VPlayerType@BWAPI@@@std@@@2@$0A@@std@@@std@@IAE?AU?$pair@V?$_Tree_iterator@V?$_Tree_val@U?$_Tree_simple_types@U?$pair@$$CBV?$basic_string@DU?$char_traits@D@std@@V?$allocator@D@2@@std@@VPlayerType@BWAPI@@@std@@@std@@@std@@@std@@_N@1@_NAAU?$pair@$$CBV?$basic_string@DU?$char_traits@D@std@@V?$allocator@D@2@@std@@VPlayerType@BWAPI@@@1@PAU?$_Tree_node@U?$pair@$$CBV?$basic_string@DU?$char_traits@D@std@@V?$allocator@D@2@@std@@VPlayerType@BWAPI@@@std@@PAX@1@@Z 0044c070 f i BWAPI:PlayerType.obj
 0001:0004b280       ??$_Insert_at@ABVPlayerType@BWAPI@@U_Nil@std@@@?$_Tree@V?$_Tset_traits@VPlayerType@BWAPI@@U?$less@VPlayerType@BWAPI@@@std@@V?$allocator@VPlayerType@BWAPI@@@4@$0A@@std@@@std@@IAE?AV?$_Tree_const_iterator@V?$_Tree_val@U?$_Tree_simple_types@VPlayerType@BWAPI@@@std@@@std@@@1@_NPAU?$_Tree_node@VPlayerType@BWAPI@@PAX@1@ABVPlayerType@BWAPI@@U_Nil@1@@Z 0044c280 f i BWAPI:PlayerType.obj
 0001:0004b430       ?_Buynode0@?$_Tree_buy@U?$pair@$$CBV?$basic_string@DU?$char_traits@D@std@@V?$allocator@D@2@@std@@VPlayerType@BWAPI@@@std@@V?$allocator@U?$pair@$$CBV?$basic_string@DU?$char_traits@D@std@@V?$allocator@D@2@@std@@VPlayerType@BWAPI@@@std@@@2@@std@@QAEPAU?$_Tree_node@U?$pair@$$CBV?$basic_string@DU?$char_traits@D@std@@V?$allocator@D@2@@std@@VPlayerType@BWAPI@@@std@@PAX@2@XZ 0044c430 f i BWAPI:PlayerType.obj
 0001:0004b470       ??$_Insert_at@AAU?$pair@$$CBV?$basic_string@DU?$char_traits@D@std@@V?$allocator@D@2@@std@@VPlayerType@BWAPI@@@std@@PAU?$_Tree_node@U?$pair@$$CBV?$basic_string@DU?$char_traits@D@std@@V?$allocator@D@2@@std@@VPlayerType@BWAPI@@@std@@PAX@2@@?$_Tree@V?$_Tmap_traits@V?$basic_string@DU?$char_traits@D@std@@V?$allocator@D@2@@std@@VPlayerType@BWAPI@@U?$less@V?$basic_string@DU?$char_traits@D@std@@V?$allocator@D@2@@std@@@2@V?$allocator@U?$pair@$$CBV?$basic_string@DU?$char_traits@D@std@@V?$allocator@D@2@@std@@VPlayerType@BWAPI@@@std@@@2@$0A@@std@@@std@@IAE?AV?$_Tree_iterator@V?$_Tree_val@U?$_Tree_simple_types@U?$pair@$$CBV?$basic_string@DU?$char_traits@D@std@@V?$allocator@D@2@@std@@VPlayerType@BWAPI@@@std@@@std@@@std@@@1@_NPAU?$_Tree_node@U?$pair@$$CBV?$basic_string@DU?$char_traits@D@std@@V?$allocator@D@2@@std@@VPlayerType@BWAPI@@@std@@PAX@1@AAU?$pair@$$CBV?$basic_string@DU?$char_traits@D@std@@V?$allocator@D@2@@std@@VPlayerType@BWAPI@@@1@1@Z 0044c470 f i BWAPI:PlayerType.obj
 0001:0004b650       ??$_Buynode@ABVPlayerType@BWAPI@@@?$_Tree_buy@VPlayerType@BWAPI@@V?$allocator@VPlayerType@BWAPI@@@std@@@std@@QAEPAU?$_Tree_node@VPlayerType@BWAPI@@PAX@1@ABVPlayerType@BWAPI@@@Z 0044c650 f i BWAPI:PlayerType.obj
 0001:0004b670       ?_Buynode0@?$_Tree_buy@VPlayerType@BWAPI@@V?$allocator@VPlayerType@BWAPI@@@std@@@std@@QAEPAU?$_Tree_node@VPlayerType@BWAPI@@PAX@2@XZ 0044c670 f i BWAPI:PlayerType.obj
 0001:0004b6b0       ?init@BulletTypes@BWAPI@@YAXXZ 0044c6b0 f   BWAPI:BulletType.obj
 0001:0004bf10       ?getName@BulletType@BWAPI@@QBE?AV?$basic_string@DU?$char_traits@D@std@@V?$allocator@D@2@@std@@XZ 0044cf10 f   BWAPI:BulletType.obj
 0001:0004bf50       ?erase@?$_Tree@V?$_Tmap_traits@V?$basic_string@DU?$char_traits@D@std@@V?$allocator@D@2@@std@@VBulletType@BWAPI@@U?$less@V?$basic_string@DU?$char_traits@D@std@@V?$allocator@D@2@@std@@@2@V?$allocator@U?$pair@$$CBV?$basic_string@DU?$char_traits@D@std@@V?$allocator@D@2@@std@@VBulletType@BWAPI@@@std@@@2@$0A@@std@@@std@@QAE?AV?$_Tree_iterator@V?$_Tree_val@U?$_Tree_simple_types@U?$pair@$$CBV?$basic_string@DU?$char_traits@D@std@@V?$allocator@D@2@@std@@VBulletType@BWAPI@@@std@@@std@@@std@@@2@V?$_Tree_const_iterator@V?$_Tree_val@U?$_Tree_simple_types@U?$pair@$$CBV?$basic_string@DU?$char_traits@D@std@@V?$allocator@D@2@@std@@VBulletType@BWAPI@@@std@@@std@@@std@@@2@0@Z 0044cf50 f i BWAPI:BulletType.obj
 0001:0004c020       ?erase@?$_Tree@V?$_Tset_traits@VBulletType@BWAPI@@U?$less@VBulletType@BWAPI@@@std@@V?$allocator@VBulletType@BWAPI@@@4@$0A@@std@@@std@@QAE?AV?$_Tree_const_iterator@V?$_Tree_val@U?$_Tree_simple_types@VBulletType@BWAPI@@@std@@@std@@@2@V32@0@Z 0044d020 f i BWAPI:BulletType.obj
 0001:0004c0f0       ?erase@?$_Tree@V?$_Tmap_traits@V?$basic_string@DU?$char_traits@D@std@@V?$allocator@D@2@@std@@VBulletType@BWAPI@@U?$less@V?$basic_string@DU?$char_traits@D@std@@V?$allocator@D@2@@std@@@2@V?$allocator@U?$pair@$$CBV?$basic_string@DU?$char_traits@D@std@@V?$allocator@D@2@@std@@VBulletType@BWAPI@@@std@@@2@$0A@@std@@@std@@QAE?AV?$_Tree_iterator@V?$_Tree_val@U?$_Tree_simple_types@U?$pair@$$CBV?$basic_string@DU?$char_traits@D@std@@V?$allocator@D@2@@std@@VBulletType@BWAPI@@@std@@@std@@@std@@@2@V?$_Tree_const_iterator@V?$_Tree_val@U?$_Tree_simple_types@U?$pair@$$CBV?$basic_string@DU?$char_traits@D@std@@V?$allocator@D@2@@std@@VBulletType@BWAPI@@@std@@@std@@@std@@@2@@Z 0044d0f0 f i BWAPI:BulletType.obj
 0001:0004c370       ?erase@?$_Tree@V?$_Tset_traits@VBulletType@BWAPI@@U?$less@VBulletType@BWAPI@@@std@@V?$allocator@VBulletType@BWAPI@@@4@$0A@@std@@@std@@QAE?AV?$_Tree_const_iterator@V?$_Tree_val@U?$_Tree_simple_types@VBulletType@BWAPI@@@std@@@std@@@2@V32@@Z 0044d370 f i BWAPI:BulletType.obj
 0001:0004c5d0       ?_Lrotate@?$_Tree@V?$_Tmap_traits@V?$basic_string@DU?$char_traits@D@std@@V?$allocator@D@2@@std@@VBulletType@BWAPI@@U?$less@V?$basic_string@DU?$char_traits@D@std@@V?$allocator@D@2@@std@@@2@V?$allocator@U?$pair@$$CBV?$basic_string@DU?$char_traits@D@std@@V?$allocator@D@2@@std@@VBulletType@BWAPI@@@std@@@2@$0A@@std@@@std@@IAEXPAU?$_Tree_node@U?$pair@$$CBV?$basic_string@DU?$char_traits@D@std@@V?$allocator@D@2@@std@@VBulletType@BWAPI@@@std@@PAX@2@@Z 0044d5d0 f i BWAPI:BulletType.obj
 0001:0004c620       ?_Rrotate@?$_Tree@V?$_Tmap_traits@V?$basic_string@DU?$char_traits@D@std@@V?$allocator@D@2@@std@@VBulletType@BWAPI@@U?$less@V?$basic_string@DU?$char_traits@D@std@@V?$allocator@D@2@@std@@@2@V?$allocator@U?$pair@$$CBV?$basic_string@DU?$char_traits@D@std@@V?$allocator@D@2@@std@@VBulletType@BWAPI@@@std@@@2@$0A@@std@@@std@@IAEXPAU?$_Tree_node@U?$pair@$$CBV?$basic_string@DU?$char_traits@D@std@@V?$allocator@D@2@@std@@VBulletType@BWAPI@@@std@@PAX@2@@Z 0044d620 f i BWAPI:BulletType.obj
 0001:0004c680       ?_Lrotate@?$_Tree@V?$_Tset_traits@VBulletType@BWAPI@@U?$less@VBulletType@BWAPI@@@std@@V?$allocator@VBulletType@BWAPI@@@4@$0A@@std@@@std@@IAEXPAU?$_Tree_node@VBulletType@BWAPI@@PAX@2@@Z 0044d680 f i BWAPI:BulletType.obj
 0001:0004c6d0       ?_Rrotate@?$_Tree@V?$_Tset_traits@VBulletType@BWAPI@@U?$less@VBulletType@BWAPI@@@std@@V?$allocator@VBulletType@BWAPI@@@4@$0A@@std@@@std@@IAEXPAU?$_Tree_node@VBulletType@BWAPI@@PAX@2@@Z 0044d6d0 f i BWAPI:BulletType.obj
 0001:0004c730       ??$_Insert_nohint@ABVBulletType@BWAPI@@U_Nil@std@@@?$_Tree@V?$_Tset_traits@VBulletType@BWAPI@@U?$less@VBulletType@BWAPI@@@std@@V?$allocator@VBulletType@BWAPI@@@4@$0A@@std@@@std@@IAE?AU?$pair@V?$_Tree_const_iterator@V?$_Tree_val@U?$_Tree_simple_types@VBulletType@BWAPI@@@std@@@std@@@std@@_N@1@_NABVBulletType@BWAPI@@U_Nil@1@@Z 0044d730 f i BWAPI:BulletType.obj
 0001:0004c820       ??$_Buynode@U?$pair@V?$basic_string@DU?$char_traits@D@std@@V?$allocator@D@2@@std@@VBulletType@BWAPI@@@std@@@?$_Tree_buy@U?$pair@$$CBV?$basic_string@DU?$char_traits@D@std@@V?$allocator@D@2@@std@@VBulletType@BWAPI@@@std@@V?$allocator@U?$pair@$$CBV?$basic_string@DU?$char_traits@D@std@@V?$allocator@D@2@@std@@VBulletType@BWAPI@@@std@@@2@@std@@QAEPAU?$_Tree_node@U?$pair@$$CBV?$basic_string@DU?$char_traits@D@std@@V?$allocator@D@2@@std@@VBulletType@BWAPI@@@std@@PAX@1@$$QAU?$pair@V?$basic_string@DU?$char_traits@D@std@@V?$allocator@D@2@@std@@VBulletType@BWAPI@@@1@@Z 0044d820 f i BWAPI:BulletType.obj
 0001:0004c860       ??$_Insert_nohint@AAU?$pair@$$CBV?$basic_string@DU?$char_traits@D@std@@V?$allocator@D@2@@std@@VBulletType@BWAPI@@@std@@PAU?$_Tree_node@U?$pair@$$CBV?$basic_string@DU?$char_traits@D@std@@V?$allocator@D@2@@std@@VBulletType@BWAPI@@@std@@PAX@2@@?$_Tree@V?$_Tmap_traits@V?$basic_string@DU?$char_traits@D@std@@V?$allocator@D@2@@std@@VBulletType@BWAPI@@U?$less@V?$basic_string@DU?$char_traits@D@std@@V?$allocator@D@2@@std@@@2@V?$allocator@U?$pair@$$CBV?$basic_string@DU?$char_traits@D@std@@V?$allocator@D@2@@std@@VBulletType@BWAPI@@@std@@@2@$0A@@std@@@std@@IAE?AU?$pair@V?$_Tree_iterator@V?$_Tree_val@U?$_Tree_simple_types@U?$pair@$$CBV?$basic_string@DU?$char_traits@D@std@@V?$allocator@D@2@@std@@VBulletType@BWAPI@@@std@@@std@@@std@@@std@@_N@1@_NAAU?$pair@$$CBV?$basic_string@DU?$char_traits@D@std@@V?$allocator@D@2@@std@@VBulletType@BWAPI@@@1@PAU?$_Tree_node@U?$pair@$$CBV?$basic_string@DU?$char_traits@D@std@@V?$allocator@D@2@@std@@VBulletType@BWAPI@@@std@@PAX@1@@Z 0044d860 f i BWAPI:BulletType.obj
 0001:0004ca70       ??$_Insert_at@ABVBulletType@BWAPI@@U_Nil@std@@@?$_Tree@V?$_Tset_traits@VBulletType@BWAPI@@U?$less@VBulletType@BWAPI@@@std@@V?$allocator@VBulletType@BWAPI@@@4@$0A@@std@@@std@@IAE?AV?$_Tree_const_iterator@V?$_Tree_val@U?$_Tree_simple_types@VBulletType@BWAPI@@@std@@@std@@@1@_NPAU?$_Tree_node@VBulletType@BWAPI@@PAX@1@ABVBulletType@BWAPI@@U_Nil@1@@Z 0044da70 f i BWAPI:BulletType.obj
 0001:0004cc20       ?_Buynode0@?$_Tree_buy@U?$pair@$$CBV?$basic_string@DU?$char_traits@D@std@@V?$allocator@D@2@@std@@VBulletType@BWAPI@@@std@@V?$allocator@U?$pair@$$CBV?$basic_string@DU?$char_traits@D@std@@V?$allocator@D@2@@std@@VBulletType@BWAPI@@@std@@@2@@std@@QAEPAU?$_Tree_node@U?$pair@$$CBV?$basic_string@DU?$char_traits@D@std@@V?$allocator@D@2@@std@@VBulletType@BWAPI@@@std@@PAX@2@XZ 0044dc20 f i BWAPI:BulletType.obj
 0001:0004cc60       ??$_Insert_at@AAU?$pair@$$CBV?$basic_string@DU?$char_traits@D@std@@V?$allocator@D@2@@std@@VBulletType@BWAPI@@@std@@PAU?$_Tree_node@U?$pair@$$CBV?$basic_string@DU?$char_traits@D@std@@V?$allocator@D@2@@std@@VBulletType@BWAPI@@@std@@PAX@2@@?$_Tree@V?$_Tmap_traits@V?$basic_string@DU?$char_traits@D@std@@V?$allocator@D@2@@std@@VBulletType@BWAPI@@U?$less@V?$basic_string@DU?$char_traits@D@std@@V?$allocator@D@2@@std@@@2@V?$allocator@U?$pair@$$CBV?$basic_string@DU?$char_traits@D@std@@V?$allocator@D@2@@std@@VBulletType@BWAPI@@@std@@@2@$0A@@std@@@std@@IAE?AV?$_Tree_iterator@V?$_Tree_val@U?$_Tree_simple_types@U?$pair@$$CBV?$basic_string@DU?$char_traits@D@std@@V?$allocator@D@2@@std@@VBulletType@BWAPI@@@std@@@std@@@std@@@1@_NPAU?$_Tree_node@U?$pair@$$CBV?$basic_string@DU?$char_traits@D@std@@V?$allocator@D@2@@std@@VBulletType@BWAPI@@@std@@PAX@1@AAU?$pair@$$CBV?$basic_string@DU?$char_traits@D@std@@V?$allocator@D@2@@std@@VBulletType@BWAPI@@@1@1@Z 0044dc60 f i BWAPI:BulletType.obj
 0001:0004ce40       ??$_Buynode@ABVBulletType@BWAPI@@@?$_Tree_buy@VBulletType@BWAPI@@V?$allocator@VBulletType@BWAPI@@@std@@@std@@QAEPAU?$_Tree_node@VBulletType@BWAPI@@PAX@1@ABVBulletType@BWAPI@@@Z 0044de40 f i BWAPI:BulletType.obj
 0001:0004ce60       ?_Buynode0@?$_Tree_buy@VBulletType@BWAPI@@V?$allocator@VBulletType@BWAPI@@@std@@@std@@QAEPAU?$_Tree_node@VBulletType@BWAPI@@PAX@2@XZ 0044de60 f i BWAPI:BulletType.obj
 0001:0004cea0       ?init@ExplosionTypes@BWAPI@@YAXXZ 0044dea0 f   BWAPI:ExplosionType.obj
 0001:0004d4d0       ?getName@ExplosionType@BWAPI@@QBE?AV?$basic_string@DU?$char_traits@D@std@@V?$allocator@D@2@@std@@XZ 0044e4d0 f   BWAPI:ExplosionType.obj
 0001:0004d510       ?erase@?$_Tree@V?$_Tmap_traits@V?$basic_string@DU?$char_traits@D@std@@V?$allocator@D@2@@std@@VExplosionType@BWAPI@@U?$less@V?$basic_string@DU?$char_traits@D@std@@V?$allocator@D@2@@std@@@2@V?$allocator@U?$pair@$$CBV?$basic_string@DU?$char_traits@D@std@@V?$allocator@D@2@@std@@VExplosionType@BWAPI@@@std@@@2@$0A@@std@@@std@@QAE?AV?$_Tree_iterator@V?$_Tree_val@U?$_Tree_simple_types@U?$pair@$$CBV?$basic_string@DU?$char_traits@D@std@@V?$allocator@D@2@@std@@VExplosionType@BWAPI@@@std@@@std@@@std@@@2@V?$_Tree_const_iterator@V?$_Tree_val@U?$_Tree_simple_types@U?$pair@$$CBV?$basic_string@DU?$char_traits@D@std@@V?$allocator@D@2@@std@@VExplosionType@BWAPI@@@std@@@std@@@std@@@2@0@Z 0044e510 f i BWAPI:ExplosionType.obj
 0001:0004d5e0       ?erase@?$_Tree@V?$_Tset_traits@VExplosionType@BWAPI@@U?$less@VExplosionType@BWAPI@@@std@@V?$allocator@VExplosionType@BWAPI@@@4@$0A@@std@@@std@@QAE?AV?$_Tree_const_iterator@V?$_Tree_val@U?$_Tree_simple_types@VExplosionType@BWAPI@@@std@@@std@@@2@V32@0@Z 0044e5e0 f i BWAPI:ExplosionType.obj
 0001:0004d6b0       ?erase@?$_Tree@V?$_Tmap_traits@V?$basic_string@DU?$char_traits@D@std@@V?$allocator@D@2@@std@@VExplosionType@BWAPI@@U?$less@V?$basic_string@DU?$char_traits@D@std@@V?$allocator@D@2@@std@@@2@V?$allocator@U?$pair@$$CBV?$basic_string@DU?$char_traits@D@std@@V?$allocator@D@2@@std@@VExplosionType@BWAPI@@@std@@@2@$0A@@std@@@std@@QAE?AV?$_Tree_iterator@V?$_Tree_val@U?$_Tree_simple_types@U?$pair@$$CBV?$basic_string@DU?$char_traits@D@std@@V?$allocator@D@2@@std@@VExplosionType@BWAPI@@@std@@@std@@@std@@@2@V?$_Tree_const_iterator@V?$_Tree_val@U?$_Tree_simple_types@U?$pair@$$CBV?$basic_string@DU?$char_traits@D@std@@V?$allocator@D@2@@std@@VExplosionType@BWAPI@@@std@@@std@@@std@@@2@@Z 0044e6b0 f i BWAPI:ExplosionType.obj
 0001:0004d930       ?erase@?$_Tree@V?$_Tset_traits@VExplosionType@BWAPI@@U?$less@VExplosionType@BWAPI@@@std@@V?$allocator@VExplosionType@BWAPI@@@4@$0A@@std@@@std@@QAE?AV?$_Tree_const_iterator@V?$_Tree_val@U?$_Tree_simple_types@VExplosionType@BWAPI@@@std@@@std@@@2@V32@@Z 0044e930 f i BWAPI:ExplosionType.obj
 0001:0004db90       ?_Lrotate@?$_Tree@V?$_Tmap_traits@V?$basic_string@DU?$char_traits@D@std@@V?$allocator@D@2@@std@@VExplosionType@BWAPI@@U?$less@V?$basic_string@DU?$char_traits@D@std@@V?$allocator@D@2@@std@@@2@V?$allocator@U?$pair@$$CBV?$basic_string@DU?$char_traits@D@std@@V?$allocator@D@2@@std@@VExplosionType@BWAPI@@@std@@@2@$0A@@std@@@std@@IAEXPAU?$_Tree_node@U?$pair@$$CBV?$basic_string@DU?$char_traits@D@std@@V?$allocator@D@2@@std@@VExplosionType@BWAPI@@@std@@PAX@2@@Z 0044eb90 f i BWAPI:ExplosionType.obj
 0001:0004dbe0       ?_Rrotate@?$_Tree@V?$_Tmap_traits@V?$basic_string@DU?$char_traits@D@std@@V?$allocator@D@2@@std@@VExplosionType@BWAPI@@U?$less@V?$basic_string@DU?$char_traits@D@std@@V?$allocator@D@2@@std@@@2@V?$allocator@U?$pair@$$CBV?$basic_string@DU?$char_traits@D@std@@V?$allocator@D@2@@std@@VExplosionType@BWAPI@@@std@@@2@$0A@@std@@@std@@IAEXPAU?$_Tree_node@U?$pair@$$CBV?$basic_string@DU?$char_traits@D@std@@V?$allocator@D@2@@std@@VExplosionType@BWAPI@@@std@@PAX@2@@Z 0044ebe0 f i BWAPI:ExplosionType.obj
 0001:0004dc40       ?_Lrotate@?$_Tree@V?$_Tset_traits@VExplosionType@BWAPI@@U?$less@VExplosionType@BWAPI@@@std@@V?$allocator@VExplosionType@BWAPI@@@4@$0A@@std@@@std@@IAEXPAU?$_Tree_node@VExplosionType@BWAPI@@PAX@2@@Z 0044ec40 f i BWAPI:ExplosionType.obj
 0001:0004dc90       ?_Rrotate@?$_Tree@V?$_Tset_traits@VExplosionType@BWAPI@@U?$less@VExplosionType@BWAPI@@@std@@V?$allocator@VExplosionType@BWAPI@@@4@$0A@@std@@@std@@IAEXPAU?$_Tree_node@VExplosionType@BWAPI@@PAX@2@@Z 0044ec90 f i BWAPI:ExplosionType.obj
 0001:0004dcf0       ??$_Insert_nohint@ABVExplosionType@BWAPI@@U_Nil@std@@@?$_Tree@V?$_Tset_traits@VExplosionType@BWAPI@@U?$less@VExplosionType@BWAPI@@@std@@V?$allocator@VExplosionType@BWAPI@@@4@$0A@@std@@@std@@IAE?AU?$pair@V?$_Tree_const_iterator@V?$_Tree_val@U?$_Tree_simple_types@VExplosionType@BWAPI@@@std@@@std@@@std@@_N@1@_NABVExplosionType@BWAPI@@U_Nil@1@@Z 0044ecf0 f i BWAPI:ExplosionType.obj
 0001:0004dde0       ??$_Buynode@U?$pair@V?$basic_string@DU?$char_traits@D@std@@V?$allocator@D@2@@std@@VExplosionType@BWAPI@@@std@@@?$_Tree_buy@U?$pair@$$CBV?$basic_string@DU?$char_traits@D@std@@V?$allocator@D@2@@std@@VExplosionType@BWAPI@@@std@@V?$allocator@U?$pair@$$CBV?$basic_string@DU?$char_traits@D@std@@V?$allocator@D@2@@std@@VExplosionType@BWAPI@@@std@@@2@@std@@QAEPAU?$_Tree_node@U?$pair@$$CBV?$basic_string@DU?$char_traits@D@std@@V?$allocator@D@2@@std@@VExplosionType@BWAPI@@@std@@PAX@1@$$QAU?$pair@V?$basic_string@DU?$char_traits@D@std@@V?$allocator@D@2@@std@@VExplosionType@BWAPI@@@1@@Z 0044ede0 f i BWAPI:ExplosionType.obj
 0001:0004de20       ??$_Insert_nohint@AAU?$pair@$$CBV?$basic_string@DU?$char_traits@D@std@@V?$allocator@D@2@@std@@VExplosionType@BWAPI@@@std@@PAU?$_Tree_node@U?$pair@$$CBV?$basic_string@DU?$char_traits@D@std@@V?$allocator@D@2@@std@@VExplosionType@BWAPI@@@std@@PAX@2@@?$_Tree@V?$_Tmap_traits@V?$basic_string@DU?$char_traits@D@std@@V?$allocator@D@2@@std@@VExplosionType@BWAPI@@U?$less@V?$basic_string@DU?$char_traits@D@std@@V?$allocator@D@2@@std@@@2@V?$allocator@U?$pair@$$CBV?$basic_string@DU?$char_traits@D@std@@V?$allocator@D@2@@std@@VExplosionType@BWAPI@@@std@@@2@$0A@@std@@@std@@IAE?AU?$pair@V?$_Tree_iterator@V?$_Tree_val@U?$_Tree_simple_types@U?$pair@$$CBV?$basic_string@DU?$char_traits@D@std@@V?$allocator@D@2@@std@@VExplosionType@BWAPI@@@std@@@std@@@std@@@std@@_N@1@_NAAU?$pair@$$CBV?$basic_string@DU?$char_traits@D@std@@V?$allocator@D@2@@std@@VExplosionType@BWAPI@@@1@PAU?$_Tree_node@U?$pair@$$CBV?$basic_string@DU?$char_traits@D@std@@V?$allocator@D@2@@std@@VExplosionType@BWAPI@@@std@@PAX@1@@Z 0044ee20 f i BWAPI:ExplosionType.obj
 0001:0004e030       ??$_Insert_at@ABVExplosionType@BWAPI@@U_Nil@std@@@?$_Tree@V?$_Tset_traits@VExplosionType@BWAPI@@U?$less@VExplosionType@BWAPI@@@std@@V?$allocator@VExplosionType@BWAPI@@@4@$0A@@std@@@std@@IAE?AV?$_Tree_const_iterator@V?$_Tree_val@U?$_Tree_simple_types@VExplosionType@BWAPI@@@std@@@std@@@1@_NPAU?$_Tree_node@VExplosionType@BWAPI@@PAX@1@ABVExplosionType@BWAPI@@U_Nil@1@@Z 0044f030 f i BWAPI:ExplosionType.obj
 0001:0004e1e0       ?_Buynode0@?$_Tree_buy@U?$pair@$$CBV?$basic_string@DU?$char_traits@D@std@@V?$allocator@D@2@@std@@VExplosionType@BWAPI@@@std@@V?$allocator@U?$pair@$$CBV?$basic_string@DU?$char_traits@D@std@@V?$allocator@D@2@@std@@VExplosionType@BWAPI@@@std@@@2@@std@@QAEPAU?$_Tree_node@U?$pair@$$CBV?$basic_string@DU?$char_traits@D@std@@V?$allocator@D@2@@std@@VExplosionType@BWAPI@@@std@@PAX@2@XZ 0044f1e0 f i BWAPI:ExplosionType.obj
 0001:0004e220       ??$_Insert_at@AAU?$pair@$$CBV?$basic_string@DU?$char_traits@D@std@@V?$allocator@D@2@@std@@VExplosionType@BWAPI@@@std@@PAU?$_Tree_node@U?$pair@$$CBV?$basic_string@DU?$char_traits@D@std@@V?$allocator@D@2@@std@@VExplosionType@BWAPI@@@std@@PAX@2@@?$_Tree@V?$_Tmap_traits@V?$basic_string@DU?$char_traits@D@std@@V?$allocator@D@2@@std@@VExplosionType@BWAPI@@U?$less@V?$basic_string@DU?$char_traits@D@std@@V?$allocator@D@2@@std@@@2@V?$allocator@U?$pair@$$CBV?$basic_string@DU?$char_traits@D@std@@V?$allocator@D@2@@std@@VExplosionType@BWAPI@@@std@@@2@$0A@@std@@@std@@IAE?AV?$_Tree_iterator@V?$_Tree_val@U?$_Tree_simple_types@U?$pair@$$CBV?$basic_string@DU?$char_traits@D@std@@V?$allocator@D@2@@std@@VExplosionType@BWAPI@@@std@@@std@@@std@@@1@_NPAU?$_Tree_node@U?$pair@$$CBV?$basic_string@DU?$char_traits@D@std@@V?$allocator@D@2@@std@@VExplosionType@BWAPI@@@std@@PAX@1@AAU?$pair@$$CBV?$basic_string@DU?$char_traits@D@std@@V?$allocator@D@2@@std@@VExplosionType@BWAPI@@@1@1@Z 0044f220 f i BWAPI:ExplosionType.obj
 0001:0004e400       ??$_Buynode@ABVExplosionType@BWAPI@@@?$_Tree_buy@VExplosionType@BWAPI@@V?$allocator@VExplosionType@BWAPI@@@std@@@std@@QAEPAU?$_Tree_node@VExplosionType@BWAPI@@PAX@1@ABVExplosionType@BWAPI@@@Z 0044f400 f i BWAPI:ExplosionType.obj
 0001:0004e420       ?_Buynode0@?$_Tree_buy@VExplosionType@BWAPI@@V?$allocator@VExplosionType@BWAPI@@@std@@@std@@QAEPAU?$_Tree_node@VExplosionType@BWAPI@@PAX@2@XZ 0044f420 f i BWAPI:ExplosionType.obj
 0001:0004e470       ?init@Orders@BWAPI@@YAXXZ  0044f470 f   BWAPI:Order.obj
 0001:00050350       ?getName@Order@BWAPI@@QBE?AV?$basic_string@DU?$char_traits@D@std@@V?$allocator@D@2@@std@@XZ 00451350 f   BWAPI:Order.obj
 0001:00050390       ?insert@?$set@VOrder@BWAPI@@U?$less@VOrder@BWAPI@@@std@@V?$allocator@VOrder@BWAPI@@@4@@std@@QAE?AU?$pair@V?$_Tree_const_iterator@V?$_Tree_val@U?$_Tree_simple_types@VOrder@BWAPI@@@std@@@std@@@std@@_N@2@ABVOrder@BWAPI@@@Z 00451390 f i BWAPI:Order.obj
 0001:000503c0       ?begin@?$_Tree@V?$_Tset_traits@VOrder@BWAPI@@U?$less@VOrder@BWAPI@@@std@@V?$allocator@VOrder@BWAPI@@@4@$0A@@std@@@std@@QAE?AV?$_Tree_const_iterator@V?$_Tree_val@U?$_Tree_simple_types@VOrder@BWAPI@@@std@@@std@@@2@XZ 004513c0 f i BWAPI:Order.obj
 0001:000503d0       ?end@?$_Tree@V?$_Tset_traits@VOrder@BWAPI@@U?$less@VOrder@BWAPI@@@std@@V?$allocator@VOrder@BWAPI@@@4@$0A@@std@@@std@@QAE?AV?$_Tree_const_iterator@V?$_Tree_val@U?$_Tree_simple_types@VOrder@BWAPI@@@std@@@std@@@2@XZ 004513d0 f i BWAPI:Order.obj
 0001:000503e0       ?erase@?$_Tree@V?$_Tmap_traits@V?$basic_string@DU?$char_traits@D@std@@V?$allocator@D@2@@std@@VOrder@BWAPI@@U?$less@V?$basic_string@DU?$char_traits@D@std@@V?$allocator@D@2@@std@@@2@V?$allocator@U?$pair@$$CBV?$basic_string@DU?$char_traits@D@std@@V?$allocator@D@2@@std@@VOrder@BWAPI@@@std@@@2@$0A@@std@@@std@@QAE?AV?$_Tree_iterator@V?$_Tree_val@U?$_Tree_simple_types@U?$pair@$$CBV?$basic_string@DU?$char_traits@D@std@@V?$allocator@D@2@@std@@VOrder@BWAPI@@@std@@@std@@@std@@@2@V?$_Tree_const_iterator@V?$_Tree_val@U?$_Tree_simple_types@U?$pair@$$CBV?$basic_string@DU?$char_traits@D@std@@V?$allocator@D@2@@std@@VOrder@BWAPI@@@std@@@std@@@std@@@2@0@Z 004513e0 f i BWAPI:Order.obj
 0001:000504b0       ?erase@?$_Tree@V?$_Tset_traits@VOrder@BWAPI@@U?$less@VOrder@BWAPI@@@std@@V?$allocator@VOrder@BWAPI@@@4@$0A@@std@@@std@@QAE?AV?$_Tree_const_iterator@V?$_Tree_val@U?$_Tree_simple_types@VOrder@BWAPI@@@std@@@std@@@2@V32@0@Z 004514b0 f i BWAPI:Order.obj
 0001:00050580       ?erase@?$_Tree@V?$_Tmap_traits@V?$basic_string@DU?$char_traits@D@std@@V?$allocator@D@2@@std@@VOrder@BWAPI@@U?$less@V?$basic_string@DU?$char_traits@D@std@@V?$allocator@D@2@@std@@@2@V?$allocator@U?$pair@$$CBV?$basic_string@DU?$char_traits@D@std@@V?$allocator@D@2@@std@@VOrder@BWAPI@@@std@@@2@$0A@@std@@@std@@QAE?AV?$_Tree_iterator@V?$_Tree_val@U?$_Tree_simple_types@U?$pair@$$CBV?$basic_string@DU?$char_traits@D@std@@V?$allocator@D@2@@std@@VOrder@BWAPI@@@std@@@std@@@std@@@2@V?$_Tree_const_iterator@V?$_Tree_val@U?$_Tree_simple_types@U?$pair@$$CBV?$basic_string@DU?$char_traits@D@std@@V?$allocator@D@2@@std@@VOrder@BWAPI@@@std@@@std@@@std@@@2@@Z 00451580 f i BWAPI:Order.obj
 0001:00050800       ?erase@?$_Tree@V?$_Tset_traits@VOrder@BWAPI@@U?$less@VOrder@BWAPI@@@std@@V?$allocator@VOrder@BWAPI@@@4@$0A@@std@@@std@@QAE?AV?$_Tree_const_iterator@V?$_Tree_val@U?$_Tree_simple_types@VOrder@BWAPI@@@std@@@std@@@2@V32@@Z 00451800 f i BWAPI:Order.obj
 0001:00050a60       ?_Lrotate@?$_Tree@V?$_Tmap_traits@V?$basic_string@DU?$char_traits@D@std@@V?$allocator@D@2@@std@@VOrder@BWAPI@@U?$less@V?$basic_string@DU?$char_traits@D@std@@V?$allocator@D@2@@std@@@2@V?$allocator@U?$pair@$$CBV?$basic_string@DU?$char_traits@D@std@@V?$allocator@D@2@@std@@VOrder@BWAPI@@@std@@@2@$0A@@std@@@std@@IAEXPAU?$_Tree_node@U?$pair@$$CBV?$basic_string@DU?$char_traits@D@std@@V?$allocator@D@2@@std@@VOrder@BWAPI@@@std@@PAX@2@@Z 00451a60 f i BWAPI:Order.obj
 0001:00050ab0       ?_Rrotate@?$_Tree@V?$_Tmap_traits@V?$basic_string@DU?$char_traits@D@std@@V?$allocator@D@2@@std@@VOrder@BWAPI@@U?$less@V?$basic_string@DU?$char_traits@D@std@@V?$allocator@D@2@@std@@@2@V?$allocator@U?$pair@$$CBV?$basic_string@DU?$char_traits@D@std@@V?$allocator@D@2@@std@@VOrder@BWAPI@@@std@@@2@$0A@@std@@@std@@IAEXPAU?$_Tree_node@U?$pair@$$CBV?$basic_string@DU?$char_traits@D@std@@V?$allocator@D@2@@std@@VOrder@BWAPI@@@std@@PAX@2@@Z 00451ab0 f i BWAPI:Order.obj
 0001:00050b10       ?_Lrotate@?$_Tree@V?$_Tset_traits@VOrder@BWAPI@@U?$less@VOrder@BWAPI@@@std@@V?$allocator@VOrder@BWAPI@@@4@$0A@@std@@@std@@IAEXPAU?$_Tree_node@VOrder@BWAPI@@PAX@2@@Z 00451b10 f i BWAPI:Order.obj
 0001:00050b60       ?_Rrotate@?$_Tree@V?$_Tset_traits@VOrder@BWAPI@@U?$less@VOrder@BWAPI@@@std@@V?$allocator@VOrder@BWAPI@@@4@$0A@@std@@@std@@IAEXPAU?$_Tree_node@VOrder@BWAPI@@PAX@2@@Z 00451b60 f i BWAPI:Order.obj
 0001:00050bc0       ??$insert@U?$pair@V?$basic_string@DU?$char_traits@D@std@@V?$allocator@D@2@@std@@VOrder@BWAPI@@@std@@@?$_Tree@V?$_Tmap_traits@V?$basic_string@DU?$char_traits@D@std@@V?$allocator@D@2@@std@@VOrder@BWAPI@@U?$less@V?$basic_string@DU?$char_traits@D@std@@V?$allocator@D@2@@std@@@2@V?$allocator@U?$pair@$$CBV?$basic_string@DU?$char_traits@D@std@@V?$allocator@D@2@@std@@VOrder@BWAPI@@@std@@@2@$0A@@std@@@std@@QAE?AU?$pair@V?$_Tree_iterator@V?$_Tree_val@U?$_Tree_simple_types@U?$pair@$$CBV?$basic_string@DU?$char_traits@D@std@@V?$allocator@D@2@@std@@VOrder@BWAPI@@@std@@@std@@@std@@@std@@_N@1@$$QAU?$pair@V?$basic_string@DU?$char_traits@D@std@@V?$allocator@D@2@@std@@VOrder@BWAPI@@@1@@Z 00451bc0 f i BWAPI:Order.obj
 0001:00050c00       ??$_Insert_nohint@ABVOrder@BWAPI@@U_Nil@std@@@?$_Tree@V?$_Tset_traits@VOrder@BWAPI@@U?$less@VOrder@BWAPI@@@std@@V?$allocator@VOrder@BWAPI@@@4@$0A@@std@@@std@@IAE?AU?$pair@V?$_Tree_const_iterator@V?$_Tree_val@U?$_Tree_simple_types@VOrder@BWAPI@@@std@@@std@@@std@@_N@1@_NABVOrder@BWAPI@@U_Nil@1@@Z 00451c00 f i BWAPI:Order.obj
 0001:00050cf0       ??$_Buynode@U?$pair@V?$basic_string@DU?$char_traits@D@std@@V?$allocator@D@2@@std@@VOrder@BWAPI@@@std@@@?$_Tree_buy@U?$pair@$$CBV?$basic_string@DU?$char_traits@D@std@@V?$allocator@D@2@@std@@VOrder@BWAPI@@@std@@V?$allocator@U?$pair@$$CBV?$basic_string@DU?$char_traits@D@std@@V?$allocator@D@2@@std@@VOrder@BWAPI@@@std@@@2@@std@@QAEPAU?$_Tree_node@U?$pair@$$CBV?$basic_string@DU?$char_traits@D@std@@V?$allocator@D@2@@std@@VOrder@BWAPI@@@std@@PAX@1@$$QAU?$pair@V?$basic_string@DU?$char_traits@D@std@@V?$allocator@D@2@@std@@VOrder@BWAPI@@@1@@Z 00451cf0 f i BWAPI:Order.obj
 0001:00050d30       ??$_Insert_nohint@AAU?$pair@$$CBV?$basic_string@DU?$char_traits@D@std@@V?$allocator@D@2@@std@@VOrder@BWAPI@@@std@@PAU?$_Tree_node@U?$pair@$$CBV?$basic_string@DU?$char_traits@D@std@@V?$allocator@D@2@@std@@VOrder@BWAPI@@@std@@PAX@2@@?$_Tree@V?$_Tmap_traits@V?$basic_string@DU?$char_traits@D@std@@V?$allocator@D@2@@std@@VOrder@BWAPI@@U?$less@V?$basic_string@DU?$char_traits@D@std@@V?$allocator@D@2@@std@@@2@V?$allocator@U?$pair@$$CBV?$basic_string@DU?$char_traits@D@std@@V?$allocator@D@2@@std@@VOrder@BWAPI@@@std@@@2@$0A@@std@@@std@@IAE?AU?$pair@V?$_Tree_iterator@V?$_Tree_val@U?$_Tree_simple_types@U?$pair@$$CBV?$basic_string@DU?$char_traits@D@std@@V?$allocator@D@2@@std@@VOrder@BWAPI@@@std@@@std@@@std@@@std@@_N@1@_NAAU?$pair@$$CBV?$basic_string@DU?$char_traits@D@std@@V?$allocator@D@2@@std@@VOrder@BWAPI@@@1@PAU?$_Tree_node@U?$pair@$$CBV?$basic_string@DU?$char_traits@D@std@@V?$allocator@D@2@@std@@VOrder@BWAPI@@@std@@PAX@1@@Z 00451d30 f i BWAPI:Order.obj
 0001:00050f40       ??$_Insert_at@ABVOrder@BWAPI@@U_Nil@std@@@?$_Tree@V?$_Tset_traits@VOrder@BWAPI@@U?$less@VOrder@BWAPI@@@std@@V?$allocator@VOrder@BWAPI@@@4@$0A@@std@@@std@@IAE?AV?$_Tree_const_iterator@V?$_Tree_val@U?$_Tree_simple_types@VOrder@BWAPI@@@std@@@std@@@1@_NPAU?$_Tree_node@VOrder@BWAPI@@PAX@1@ABVOrder@BWAPI@@U_Nil@1@@Z 00451f40 f i BWAPI:Order.obj
 0001:000510f0       ?_Buynode0@?$_Tree_buy@U?$pair@$$CBV?$basic_string@DU?$char_traits@D@std@@V?$allocator@D@2@@std@@VOrder@BWAPI@@@std@@V?$allocator@U?$pair@$$CBV?$basic_string@DU?$char_traits@D@std@@V?$allocator@D@2@@std@@VOrder@BWAPI@@@std@@@2@@std@@QAEPAU?$_Tree_node@U?$pair@$$CBV?$basic_string@DU?$char_traits@D@std@@V?$allocator@D@2@@std@@VOrder@BWAPI@@@std@@PAX@2@XZ 004520f0 f i BWAPI:Order.obj
 0001:00051130       ??$_Insert_at@AAU?$pair@$$CBV?$basic_string@DU?$char_traits@D@std@@V?$allocator@D@2@@std@@VOrder@BWAPI@@@std@@PAU?$_Tree_node@U?$pair@$$CBV?$basic_string@DU?$char_traits@D@std@@V?$allocator@D@2@@std@@VOrder@BWAPI@@@std@@PAX@2@@?$_Tree@V?$_Tmap_traits@V?$basic_string@DU?$char_traits@D@std@@V?$allocator@D@2@@std@@VOrder@BWAPI@@U?$less@V?$basic_string@DU?$char_traits@D@std@@V?$allocator@D@2@@std@@@2@V?$allocator@U?$pair@$$CBV?$basic_string@DU?$char_traits@D@std@@V?$allocator@D@2@@std@@VOrder@BWAPI@@@std@@@2@$0A@@std@@@std@@IAE?AV?$_Tree_iterator@V?$_Tree_val@U?$_Tree_simple_types@U?$pair@$$CBV?$basic_string@DU?$char_traits@D@std@@V?$allocator@D@2@@std@@VOrder@BWAPI@@@std@@@std@@@std@@@1@_NPAU?$_Tree_node@U?$pair@$$CBV?$basic_string@DU?$char_traits@D@std@@V?$allocator@D@2@@std@@VOrder@BWAPI@@@std@@PAX@1@AAU?$pair@$$CBV?$basic_string@DU?$char_traits@D@std@@V?$allocator@D@2@@std@@VOrder@BWAPI@@@1@1@Z 00452130 f i BWAPI:Order.obj
 0001:00051310       ??$_Buynode@ABVOrder@BWAPI@@@?$_Tree_buy@VOrder@BWAPI@@V?$allocator@VOrder@BWAPI@@@std@@@std@@QAEPAU?$_Tree_node@VOrder@BWAPI@@PAX@1@ABVOrder@BWAPI@@@Z 00452310 f i BWAPI:Order.obj
 0001:00051330       ?_Buynode0@?$_Tree_buy@VOrder@BWAPI@@V?$allocator@VOrder@BWAPI@@@std@@@std@@QAEPAU?$_Tree_node@VOrder@BWAPI@@PAX@2@XZ 00452330 f i BWAPI:Order.obj
 0001:0005136e       _SDL_Init                  0045236e f   SDL:SDL.dll
 0001:00051374       _SDL_GetError              00452374 f   SDL:SDL.dll
 0001:0005137a       _SDL_Quit                  0045237a f   SDL:SDL.dll
 0001:00051380       ??1_Fac_node@std@@QAE@XZ   00452380 f i msvcprt:locale0_implib.obj
 0001:00051395       ??1_Fac_tidy_reg_t@std@@QAE@XZ 00452395 f i msvcprt:locale0_implib.obj
 0001:000513b9       ?_Facet_Register@std@@YAXPAV_Facet_base@1@@Z 004523b9 f   msvcprt:locale0_implib.obj
 0001:000513e2       ?_Add_vtordisp2@?$basic_ios@DU?$char_traits@D@std@@@std@@UAEXXZ 004523e2 f   msvcprt:MSVCP110.dll
 0001:000513e8       ?_Add_vtordisp1@?$basic_ios@DU?$char_traits@D@std@@@std@@UAEXXZ 004523e8 f   msvcprt:MSVCP110.dll
 0001:000513ee       ?imbue@?$basic_streambuf@DU?$char_traits@D@std@@@std@@MAEXABVlocale@2@@Z 004523ee f   msvcprt:MSVCP110.dll
 0001:000513f4       ?sync@?$basic_streambuf@DU?$char_traits@D@std@@@std@@MAEHXZ 004523f4 f   msvcprt:MSVCP110.dll
 0001:000513fa       ?setbuf@?$basic_streambuf@DU?$char_traits@D@std@@@std@@MAEPAV12@PAD_J@Z 004523fa f   msvcprt:MSVCP110.dll
 0001:00051400       ?xsputn@?$basic_streambuf@DU?$char_traits@D@std@@@std@@MAE_JPBD_J@Z 00452400 f   msvcprt:MSVCP110.dll
 0001:00051406       ?xsgetn@?$basic_streambuf@DU?$char_traits@D@std@@@std@@MAE_JPAD_J@Z 00452406 f   msvcprt:MSVCP110.dll
 0001:0005140c       ?uflow@?$basic_streambuf@DU?$char_traits@D@std@@@std@@MAEHXZ 0045240c f   msvcprt:MSVCP110.dll
 0001:00051412       ?showmanyc@?$basic_streambuf@DU?$char_traits@D@std@@@std@@MAE_JXZ 00452412 f   msvcprt:MSVCP110.dll
 0001:00051418       ?_Unlock@?$basic_streambuf@DU?$char_traits@D@std@@@std@@UAEXXZ 00452418 f   msvcprt:MSVCP110.dll
 0001:0005141e       ?_Lock@?$basic_streambuf@DU?$char_traits@D@std@@@std@@UAEXXZ 0045241e f   msvcprt:MSVCP110.dll
 0001:00051424       ??_U@YAPAXI@Z              00452424 f   msvcprt:newaop_s.obj
 0001:0005142d       @__security_check_cookie@4 0045242d f   MSVCRT:secchk.obj
 0001:0005143c       ___atonexitinit            0045243c f   MSVCRT:atonexit.obj
 0001:00051478       __onexit                   00452478 f   MSVCRT:atonexit.obj
 0001:0005151d       _atexit                    0045251d f   MSVCRT:atonexit.obj
 0001:00051532       __purecall                 00452532 f   MSVCRT:MSVCR110.dll
 0001:00051538       ??3@YAXPAX@Z               00452538 f   MSVCRT:MSVCR110.dll
 0001:0005153e       ??_Etype_info@@UAEPAXI@Z   0045253e f i MSVCRT:ti_inst.obj
 0001:00051588       ??2@YAPAXI@Z               00452588 f   MSVCRT:MSVCR110.dll
 0001:0005158e       ??1bad_cast@std@@UAE@XZ    0045258e f   MSVCRT:MSVCR110.dll
 0001:00051594       ??0bad_cast@std@@QAE@ABV01@@Z 00452594 f   MSVCRT:MSVCR110.dll
 0001:0005159a       ??0exception@std@@QAE@ABV01@@Z 0045259a f   MSVCRT:MSVCR110.dll
 0001:000515a0       ??_M@YGXPAXIHP6EX0@Z@Z     004525a0 f   MSVCRT:ehvecdtr.obj
 0001:0005160f       ?__ArrayUnwind@@YGXPAXIHP6EX0@Z@Z 0045260f f   MSVCRT:ehvecdtr.obj
 0001:0005166d       ??_L@YGXPAXIHP6EX0@Z1@Z    0045266d f   MSVCRT:ehvecctr.obj
 0001:0005193e       _mainCRTStartup            0045293e f   MSVCRT:crtexe.obj
 0001:00051948       ?what@exception@std@@UBEPBDXZ 00452948 f   MSVCRT:MSVCR110.dll
 0001:0005194e       ??__C@YGXPAX0IHP6EX00@ZP6EX0@Z@Z 0045294e f   MSVCRT:ehvccctr.obj
 0001:000519c2       ___raise_securityfailure   004529c2 f   MSVCRT:gs_report.obj
 0001:000519ff       ___report_gsfailure        004529ff f   MSVCRT:gs_report.obj
 0001:00051af8       __lock                     00452af8 f   MSVCRT:MSVCR110.dll
 0001:00051afe       __unlock                   00452afe f   MSVCRT:MSVCR110.dll
 0001:00051b04       ___dllonexit               00452b04 f   MSVCRT:MSVCR110.dll
 0001:00051b10       __SEH_prolog4              00452b10 f   MSVCRT:sehprolg4.obj
 0001:00051b55       __SEH_epilog4              00452b55 f   MSVCRT:sehprolg4.obj
 0001:00051b69       __except_handler4          00452b69 f   MSVCRT:chandler4gs.obj
 0001:00051b8c       ??1type_info@@UAE@XZ       00452b8c f   MSVCRT:MSVCR110.dll
 0001:00051b92       ?terminate@@YAXXZ          00452b92 f   MSVCRT:MSVCR110.dll
 0001:00051b98       ?__CxxUnhandledExceptionFilter@@YGJPAU_EXCEPTION_POINTERS@@@Z 00452b98 f   MSVCRT:unhandld.obj
 0001:00051bd9       ___CxxSetUnhandledExceptionFilter 00452bd9 f   MSVCRT:unhandld.obj
 0001:00051be8       __XcptFilter               00452be8 f   MSVCRT:MSVCR110.dll
 0001:00051bee       __amsg_exit                00452bee f   MSVCRT:MSVCR110.dll
 0001:00051c00       __FindPESection            00452c00 f   MSVCRT:pesect.obj
 0001:00051c50       __IsNonwritableInCurrentImage 00452c50 f   MSVCRT:pesect.obj
 0001:00051d10       __ValidateImageBase        00452d10 f   MSVCRT:pesect.obj
 0001:00051d41       ___security_init_cookie    00452d41 f   MSVCRT:gs_support.obj
 0001:00051ddb       __setargv                  00452ddb f   MSVCRT:dllargv.obj
 0001:00051ddb       __matherr                  00452ddb f   MSVCRT:merr.obj
 0001:00051dde       __RTC_Initialize           00452dde f   MSVCRT:initsect.obj
 0001:00051dfe       __RTC_Terminate            00452dfe f   MSVCRT:initsect.obj
 0001:00051e1e       __setdefaultprecision      00452e1e f   MSVCRT:fp8.obj
 0001:00051e46       __initterm_e               00452e46 f   MSVCRT:MSVCR110.dll
 0001:00051e4c       __initterm                 00452e4c f   MSVCRT:MSVCR110.dll
 0001:00051e52       __crt_debugger_hook        00452e52 f   MSVCRT:MSVCR110.dll
 0001:00051e58       ___crtUnhandledException   00452e58 f   MSVCRT:MSVCR110.dll
 0001:00051e5e       ___crtTerminateProcess     00452e5e f   MSVCRT:MSVCR110.dll
 0001:00051e64       __except_handler4_common   00452e64 f   MSVCRT:MSVCR110.dll
 0001:00051e6a       ___crtSetUnhandledExceptionFilter 00452e6a f   MSVCRT:MSVCR110.dll
 0001:00051e70       __invoke_watson            00452e70 f   MSVCRT:MSVCR110.dll
 0001:00051e76       __controlfp_s              00452e76 f   MSVCRT:MSVCR110.dll
 0001:00051e80       _main                      00452e80 f   SDLmain:SDL_win32_main.obj
 0001:0005213e       _IsProcessorFeaturePresent@4 0045313e f   kernel32:KERNEL32.dll
 0001:00052144       _strlen                    00453144 f   MSVCRT:MSVCR110.dll
 0001:00052150       __alloca_probe_16          00453150 f   MSVCRT:alloca16.obj
 0001:00052166       __alloca_probe_8           00453166     MSVCRT:alloca16.obj
 0001:00052180       __chkstk                   00453180 f   MSVCRT:chkstk.obj
 0001:00052180       __alloca_probe             00453180     MSVCRT:chkstk.obj
 0001:000521ac       _SDL_SetModuleHandle       004531ac f   SDL:SDL.dll
 0001:000521b2       _SDL_strlcpy               004531b2 f   SDL:SDL.dll
 0001:000521b8       __CxxThrowException@8      004531b8 f   MSVCRT:MSVCR110.dll
 0001:000521be       ___CxxFrameHandler3        004531be f   MSVCRT:MSVCR110.dll
 0001:000521c4       ___RTDynamicCast           004531c4 f   MSVCRT:MSVCR110.dll
 0001:000521d0       __aullrem                  004531d0 f   MSVCRT:ullrem.obj
 0001:00052246       __libm_sse2_log_precise    00453246 f   MSVCRT:MSVCR110.dll
 0001:0005224c       __libm_sse2_sqrt_precise   0045324c f   MSVCRT:MSVCR110.dll
 0001:00052252       _memcpy                    00453252 f   MSVCRT:MSVCR110.dll
 0001:00052258       _memset                    00453258 f   MSVCRT:MSVCR110.dll
 0002:00000000       __imp__EncodePointer@4     00460000     kernel32:KERNEL32.dll
 0002:00000004       __imp__QueryPerformanceFrequency@4 00460004     kernel32:KERNEL32.dll
 0002:00000008       __imp__QueryPerformanceCounter@4 00460008     kernel32:KERNEL32.dll
 0002:0000000c       __imp__DecodePointer@4     0046000c     kernel32:KERNEL32.dll
 0002:00000010       __imp__IsDebuggerPresent@0 00460010     kernel32:KERNEL32.dll
 0002:00000014       __imp__IsProcessorFeaturePresent@4 00460014     kernel32:KERNEL32.dll
 0002:00000018       __imp__GetCurrentThreadId@0 00460018     kernel32:KERNEL32.dll
 0002:0000001c       __imp__GetSystemTimeAsFileTime@4 0046001c     kernel32:KERNEL32.dll
 0002:00000020       __imp__GetTickCount64@0    00460020     kernel32:KERNEL32.dll
 0002:00000024       __imp__GetModuleHandleA@4  00460024     kernel32:KERNEL32.dll
 0002:00000028       \177KERNEL32_NULL_THUNK_DATA 00460028     kernel32:KERNEL32.dll
 0002:0000002c       __imp_?getloc@ios_base@std@@QBE?AVlocale@2@XZ 0046002c     msvcprt:MSVCP110.dll
 0002:00000030       __imp_?_Getcat@?$ctype@D@std@@SAIPAPBVfacet@locale@2@PBV42@@Z 00460030     msvcprt:MSVCP110.dll
 0002:00000034       __imp_?always_noconv@codecvt_base@std@@QBE_NXZ 00460034     msvcprt:MSVCP110.dll
 0002:00000038       __imp_??Bid@locale@std@@QAEIXZ 00460038     msvcprt:MSVCP110.dll
 0002:0000003c       __imp_?read@?$basic_istream@DU?$char_traits@D@std@@@std@@QAEAAV12@PAD_J@Z 0046003c     msvcprt:MSVCP110.dll
 0002:00000040       __imp_?endl@std@@YAAAV?$basic_ostream@DU?$char_traits@D@std@@@1@AAV21@@Z 00460040     msvcprt:MSVCP110.dll
 0002:00000044       __imp_??1?$basic_streambuf@DU?$char_traits@D@std@@@std@@UAE@XZ 00460044     msvcprt:MSVCP110.dll
 0002:00000048       __imp_?sgetc@?$basic_streambuf@DU?$char_traits@D@std@@@std@@QAEHXZ 00460048     msvcprt:MSVCP110.dll
 0002:0000004c       __imp_?snextc@?$basic_streambuf@DU?$char_traits@D@std@@@std@@QAEHXZ 0046004c     msvcprt:MSVCP110.dll
 0002:00000050       __imp_?_Lock@?$basic_streambuf@DU?$char_traits@D@std@@@std@@UAEXXZ 00460050     msvcprt:MSVCP110.dll
 0002:00000054       __imp_?_Unlock@?$basic_streambuf@DU?$char_traits@D@std@@@std@@UAEXXZ 00460054     msvcprt:MSVCP110.dll
 0002:00000058       __imp_?showmanyc@?$basic_streambuf@DU?$char_traits@D@std@@@std@@MAE_JXZ 00460058     msvcprt:MSVCP110.dll
 0002:0000005c       __imp_?uflow@?$basic_streambuf@DU?$char_traits@D@std@@@std@@MAEHXZ 0046005c     msvcprt:MSVCP110.dll
 0002:00000060       __imp_?xsgetn@?$basic_streambuf@DU?$char_traits@D@std@@@std@@MAE_JPAD_J@Z 00460060     msvcprt:MSVCP110.dll
 0002:00000064       __imp_?xsputn@?$basic_streambuf@DU?$char_traits@D@std@@@std@@MAE_JPBD_J@Z 00460064     msvcprt:MSVCP110.dll
 0002:00000068       __imp_?setbuf@?$basic_streambuf@DU?$char_traits@D@std@@@std@@MAEPAV12@PAD_J@Z 00460068     msvcprt:MSVCP110.dll
 0002:0000006c       __imp_?sync@?$basic_streambuf@DU?$char_traits@D@std@@@std@@MAEHXZ 0046006c     msvcprt:MSVCP110.dll
 0002:00000070       __imp_?imbue@?$basic_streambuf@DU?$char_traits@D@std@@@std@@MAEXABVlocale@2@@Z 00460070     msvcprt:MSVCP110.dll
 0002:00000074       __imp_??1?$basic_ios@DU?$char_traits@D@std@@@std@@UAE@XZ 00460074     msvcprt:MSVCP110.dll
 0002:00000078       __imp_?_Add_vtordisp1@?$basic_ios@DU?$char_traits@D@std@@@std@@UAEXXZ 00460078     msvcprt:MSVCP110.dll
 0002:0000007c       __imp_?_Add_vtordisp2@?$basic_ios@DU?$char_traits@D@std@@@std@@UAEXXZ 0046007c     msvcprt:MSVCP110.dll
 0002:00000080       __imp_??1?$basic_ostream@DU?$char_traits@D@std@@@std@@UAE@XZ 00460080     msvcprt:MSVCP110.dll
 0002:00000084       __imp_?_Add_vtordisp2@?$basic_ostream@DU?$char_traits@D@std@@@std@@UAEXXZ 00460084     msvcprt:MSVCP110.dll
 0002:00000088       __imp_??6?$basic_ostream@DU?$char_traits@D@std@@@std@@QAEAAV01@P6AAAV01@AAV01@@Z@Z 00460088     msvcprt:MSVCP110.dll
 0002:0000008c       __imp_??6?$basic_ostream@DU?$char_traits@D@std@@@std@@QAEAAV01@F@Z 0046008c     msvcprt:MSVCP110.dll
 0002:00000090       __imp_??6?$basic_ostream@DU?$char_traits@D@std@@@std@@QAEAAV01@_K@Z 00460090     msvcprt:MSVCP110.dll
 0002:00000094       __imp_??0?$basic_ostream@DU?$char_traits@D@std@@@std@@QAE@PAV?$basic_streambuf@DU?$char_traits@D@std@@@1@_N@Z 00460094     msvcprt:MSVCP110.dll
 0002:00000098       __imp_?_Winerror_map@std@@YAPBDH@Z 00460098     msvcprt:MSVCP110.dll
 0002:0000009c       __imp_?_Syserror_map@std@@YAPBDH@Z 0046009c     msvcprt:MSVCP110.dll
 0002:000000a0       __imp_?_Xbad_alloc@std@@YAXXZ 004600a0     msvcprt:MSVCP110.dll
 0002:000000a4       __imp_?cerr@std@@3V?$basic_ostream@DU?$char_traits@D@std@@@1@A 004600a4     msvcprt:MSVCP110.dll
 0002:000000a8       __imp_?_Xout_of_range@std@@YAXPBD@Z 004600a8     msvcprt:MSVCP110.dll
 0002:000000ac       __imp_?_Xlength_error@std@@YAXPBD@Z 004600ac     msvcprt:MSVCP110.dll
 0002:000000b0       __imp_?uncaught_exception@std@@YA_NXZ 004600b0     msvcprt:MSVCP110.dll
 0002:000000b4       __imp_?sputn@?$basic_streambuf@DU?$char_traits@D@std@@@std@@QAE_JPBD_J@Z 004600b4     msvcprt:MSVCP110.dll
 0002:000000b8       __imp_?_Osfx@?$basic_ostream@DU?$char_traits@D@std@@@std@@QAEXXZ 004600b8     msvcprt:MSVCP110.dll
 0002:000000bc       __imp_?sputc@?$basic_streambuf@DU?$char_traits@D@std@@@std@@QAEHD@Z 004600bc     msvcprt:MSVCP110.dll
 0002:000000c0       __imp_?flush@?$basic_ostream@DU?$char_traits@D@std@@@std@@QAEAAV12@XZ 004600c0     msvcprt:MSVCP110.dll
 0002:000000c4       __imp_?setstate@?$basic_ios@DU?$char_traits@D@std@@@std@@QAEXH_N@Z 004600c4     msvcprt:MSVCP110.dll
 0002:000000c8       __imp_?setw@std@@YA?AU?$_Smanip@_J@1@_J@Z 004600c8     msvcprt:MSVCP110.dll
 0002:000000cc       __imp_?_BADOFF@std@@3_JB   004600cc     msvcprt:MSVCP110.dll
 0002:000000d0       __imp_?cout@std@@3V?$basic_ostream@DU?$char_traits@D@std@@@1@A 004600d0     msvcprt:MSVCP110.dll
 0002:000000d4       __imp_?setiosflags@std@@YA?AU?$_Smanip@H@1@H@Z 004600d4     msvcprt:MSVCP110.dll
 0002:000000d8       __imp_?setprecision@std@@YA?AU?$_Smanip@_J@1@_J@Z 004600d8     msvcprt:MSVCP110.dll
 0002:000000dc       __imp_?id@?$ctype@D@std@@2V0locale@2@A 004600dc     msvcprt:MSVCP110.dll
 0002:000000e0       __imp_??1_Lockit@std@@QAE@XZ 004600e0     msvcprt:MSVCP110.dll
 0002:000000e4       __imp_??0_Lockit@std@@QAE@H@Z 004600e4     msvcprt:MSVCP110.dll
 0002:000000e8       __imp_?_Getgloballocale@locale@std@@CAPAV_Locimp@12@XZ 004600e8     msvcprt:MSVCP110.dll
 0002:000000ec       __imp_?_Fiopen@std@@YAPAU_iobuf@@PBDHH@Z 004600ec     msvcprt:MSVCP110.dll
 0002:000000f0       __imp_?id@?$codecvt@DDH@std@@2V0locale@2@A 004600f0     msvcprt:MSVCP110.dll
 0002:000000f4       __imp_??_7?$basic_istream@DU?$char_traits@D@std@@@std@@6B@ 004600f4     msvcprt:MSVCP110.dll
 0002:000000f8       __imp_?_Getcat@?$codecvt@DDH@std@@SAIPAPBVfacet@locale@2@PBV42@@Z 004600f8     msvcprt:MSVCP110.dll
 0002:000000fc       __imp_?widen@?$basic_ios@DU?$char_traits@D@std@@@std@@QBEDD@Z 004600fc     msvcprt:MSVCP110.dll
 0002:00000100       __imp_?_Init@?$basic_streambuf@DU?$char_traits@D@std@@@std@@IAEXXZ 00460100     msvcprt:MSVCP110.dll
 0002:00000104       __imp_?getloc@?$basic_streambuf@DU?$char_traits@D@std@@@std@@QBE?AVlocale@2@XZ 00460104     msvcprt:MSVCP110.dll
 0002:00000108       __imp_??0?$basic_streambuf@DU?$char_traits@D@std@@@std@@IAE@XZ 00460108     msvcprt:MSVCP110.dll
 0002:0000010c       __imp_?unshift@?$codecvt@DDH@std@@QBEHAAHPAD1AAPAD@Z 0046010c     msvcprt:MSVCP110.dll
 0002:00000110       __imp_??0?$basic_iostream@DU?$char_traits@D@std@@@std@@QAE@PAV?$basic_streambuf@DU?$char_traits@D@std@@@1@@Z 00460110     msvcprt:MSVCP110.dll
 0002:00000114       __imp_?_Ipfx@?$basic_istream@DU?$char_traits@D@std@@@std@@QAE_N_N@Z 00460114     msvcprt:MSVCP110.dll
 0002:00000118       __imp_??0?$basic_istream@DU?$char_traits@D@std@@@std@@QAE@PAV?$basic_streambuf@DU?$char_traits@D@std@@@1@_N@Z 00460118     msvcprt:MSVCP110.dll
 0002:0000011c       __imp_??0?$basic_ios@DU?$char_traits@D@std@@@std@@IAE@XZ 0046011c     msvcprt:MSVCP110.dll
 0002:00000120       __imp_?_Pninc@?$basic_streambuf@DU?$char_traits@D@std@@@std@@IAEPADXZ 00460120     msvcprt:MSVCP110.dll
 0002:00000124       __imp_?setg@?$basic_streambuf@DU?$char_traits@D@std@@@std@@IAEXPAD00@Z 00460124     msvcprt:MSVCP110.dll
 0002:00000128       __imp_?sbumpc@?$basic_streambuf@DU?$char_traits@D@std@@@std@@QAEHXZ 00460128     msvcprt:MSVCP110.dll
 0002:0000012c       __imp_?out@?$codecvt@DDH@std@@QBEHAAHPBD1AAPBDPAD3AAPAD@Z 0046012c     msvcprt:MSVCP110.dll
 0002:00000130       __imp_?in@?$codecvt@DDH@std@@QBEHAAHPBD1AAPBDPAD3AAPAD@Z 00460130     msvcprt:MSVCP110.dll
 0002:00000134       __imp_??1?$basic_iostream@DU?$char_traits@D@std@@@std@@UAE@XZ 00460134     msvcprt:MSVCP110.dll
 0002:00000138       __imp_??5?$basic_istream@DU?$char_traits@D@std@@@std@@QAEAAV01@AAN@Z 00460138     msvcprt:MSVCP110.dll
 0002:0000013c       __imp_??5?$basic_istream@DU?$char_traits@D@std@@@std@@QAEAAV01@AAI@Z 0046013c     msvcprt:MSVCP110.dll
 0002:00000140       __imp_??5?$basic_istream@DU?$char_traits@D@std@@@std@@QAEAAV01@AAH@Z 00460140     msvcprt:MSVCP110.dll
 0002:00000144       __imp_?_Add_vtordisp1@?$basic_istream@DU?$char_traits@D@std@@@std@@UAEXXZ 00460144     msvcprt:MSVCP110.dll
 0002:00000148       __imp_??1?$basic_istream@DU?$char_traits@D@std@@@std@@UAE@XZ 00460148     msvcprt:MSVCP110.dll
 0002:0000014c       __imp_??6?$basic_ostream@DU?$char_traits@D@std@@@std@@QAEAAV01@N@Z 0046014c     msvcprt:MSVCP110.dll
 0002:00000150       __imp_??6?$basic_ostream@DU?$char_traits@D@std@@@std@@QAEAAV01@I@Z 00460150     msvcprt:MSVCP110.dll
 0002:00000154       __imp_??6?$basic_ostream@DU?$char_traits@D@std@@@std@@QAEAAV01@H@Z 00460154     msvcprt:MSVCP110.dll
 0002:00000158       \177MSVCP110_NULL_THUNK_DATA 00460158     msvcprt:MSVCP110.dll
 0002:0000015c       __imp____set_app_type      0046015c     MSVCRT:MSVCR110.dll
 0002:00000160       __imp__exit                00460160     MSVCRT:MSVCR110.dll
 0002:00000164       __imp___exit               00460164     MSVCRT:MSVCR110.dll
 0002:00000168       __imp__memset              00460168     MSVCRT:MSVCR110.dll
 0002:0000016c       __imp___cexit              0046016c     MSVCRT:MSVCR110.dll
 0002:00000170       __imp___configthreadlocale 00460170     MSVCRT:MSVCR110.dll
 0002:00000174       __imp____setusermatherr    00460174     MSVCRT:MSVCR110.dll
 0002:00000178       __imp___initterm_e         00460178     MSVCRT:MSVCR110.dll
 0002:0000017c       __imp___initterm           0046017c     MSVCRT:MSVCR110.dll
 0002:00000180       __imp____initenv           00460180     MSVCRT:MSVCR110.dll
 0002:00000184       __imp___fmode              00460184     MSVCRT:MSVCR110.dll
 0002:00000188       __imp___commode            00460188     MSVCRT:MSVCR110.dll
 0002:0000018c       __imp___crt_debugger_hook  0046018c     MSVCRT:MSVCR110.dll
 0002:00000190       __imp____crtUnhandledException 00460190     MSVCRT:MSVCR110.dll
 0002:00000194       __imp____crtTerminateProcess 00460194     MSVCRT:MSVCR110.dll
 0002:00000198       __imp___except_handler4_common 00460198     MSVCRT:MSVCR110.dll
 0002:0000019c       __imp____crtSetUnhandledExceptionFilter 0046019c     MSVCRT:MSVCR110.dll
 0002:000001a0       __imp___invoke_watson      004601a0     MSVCRT:MSVCR110.dll
 0002:000001a4       __imp___controlfp_s        004601a4     MSVCRT:MSVCR110.dll
 0002:000001a8       __imp__strlen              004601a8     MSVCRT:MSVCR110.dll
 0002:000001ac       __imp__strrchr             004601ac     MSVCRT:MSVCR110.dll
 0002:000001b0       __imp__remove              004601b0     MSVCRT:MSVCR110.dll
 0002:000001b4       __imp___CxxThrowException@8 004601b4     MSVCRT:MSVCR110.dll
 0002:000001b8       __imp____CxxFrameHandler3  004601b8     MSVCRT:MSVCR110.dll
 0002:000001bc       __imp____RTDynamicCast     004601bc     MSVCRT:MSVCR110.dll
 0002:000001c0       __imp___libm_sse2_log_precise 004601c0     MSVCRT:MSVCR110.dll
 0002:000001c4       __imp___libm_sse2_sqrt_precise 004601c4     MSVCRT:MSVCR110.dll
 0002:000001c8       __imp__memcpy              004601c8     MSVCRT:MSVCR110.dll
 0002:000001cc       __imp____getmainargs       004601cc     MSVCRT:MSVCR110.dll
 0002:000001d0       __imp__memmove             004601d0     MSVCRT:MSVCR110.dll
 0002:000001d4       __imp___purecall           004601d4     MSVCRT:MSVCR110.dll
 0002:000001d8       __imp_??3@YAXPAX@Z         004601d8     MSVCRT:MSVCR110.dll
 0002:000001dc       __imp_??2@YAPAXI@Z         004601dc     MSVCRT:MSVCR110.dll
 0002:000001e0       __imp__fputc               004601e0     MSVCRT:MSVCR110.dll
 0002:000001e4       __imp__sprintf             004601e4     MSVCRT:MSVCR110.dll
 0002:000001e8       __imp_??1bad_cast@std@@UAE@XZ 004601e8     MSVCRT:MSVCR110.dll
 0002:000001ec       __imp_??0bad_cast@std@@QAE@PBD@Z 004601ec     MSVCRT:MSVCR110.dll
 0002:000001f0       __imp_??0bad_cast@std@@QAE@ABV01@@Z 004601f0     MSVCRT:MSVCR110.dll
 0002:000001f4       __imp_??0exception@std@@QAE@ABV01@@Z 004601f4     MSVCRT:MSVCR110.dll
 0002:000001f8       __imp___unlock_file        004601f8     MSVCRT:MSVCR110.dll
 0002:000001fc       __imp__ungetc              004601fc     MSVCRT:MSVCR110.dll
 0002:00000200       __imp____iob_func          00460200     MSVCRT:MSVCR110.dll
 0002:00000204       __imp__fgetpos             00460204     MSVCRT:MSVCR110.dll
 0002:00000208       __imp___fseeki64           00460208     MSVCRT:MSVCR110.dll
 0002:0000020c       __imp__fflush              0046020c     MSVCRT:MSVCR110.dll
 0002:00000210       __imp__atoi                00460210     MSVCRT:MSVCR110.dll
 0002:00000214       __imp__fgetc               00460214     MSVCRT:MSVCR110.dll
 0002:00000218       __imp__fsetpos             00460218     MSVCRT:MSVCR110.dll
 0002:0000021c       __imp__printf              0046021c     MSVCRT:MSVCR110.dll
 0002:00000220       __imp__setvbuf             00460220     MSVCRT:MSVCR110.dll
 0002:00000224       __imp___lock_file          00460224     MSVCRT:MSVCR110.dll
 0002:00000228       __imp__fprintf             00460228     MSVCRT:MSVCR110.dll
 0002:0000022c       __imp__strftime            0046022c     MSVCRT:MSVCR110.dll
 0002:00000230       __imp__memcpy_s            00460230     MSVCRT:MSVCR110.dll
 0002:00000234       __imp__fwrite              00460234     MSVCRT:MSVCR110.dll
 0002:00000238       __imp___localtime64        00460238     MSVCRT:MSVCR110.dll
 0002:0000023c       __imp__fclose              0046023c     MSVCRT:MSVCR110.dll
 0002:00000240       __imp___time64             00460240     MSVCRT:MSVCR110.dll
 0002:00000244       __imp_?what@exception@std@@UBEPBDXZ 00460244     MSVCRT:MSVCR110.dll
 0002:00000248       __imp_??1exception@std@@UAE@XZ 00460248     MSVCRT:MSVCR110.dll
 0002:0000024c       __imp_??0exception@std@@QAE@ABQBD@Z 0046024c     MSVCRT:MSVCR110.dll
 0002:00000250       __imp_??_V@YAXPAX@Z        00460250     MSVCRT:MSVCR110.dll
 0002:00000254       __imp___stat64i32          00460254     MSVCRT:MSVCR110.dll
 0002:00000258       __imp__rand                00460258     MSVCRT:MSVCR110.dll
 0002:0000025c       __imp__fopen               0046025c     MSVCRT:MSVCR110.dll
 0002:00000260       __imp___lock               00460260     MSVCRT:MSVCR110.dll
 0002:00000264       __imp___unlock             00460264     MSVCRT:MSVCR110.dll
 0002:00000268       __imp___calloc_crt         00460268     MSVCRT:MSVCR110.dll
 0002:0000026c       __imp____dllonexit         0046026c     MSVCRT:MSVCR110.dll
 0002:00000270       __imp___onexit             00460270     MSVCRT:MSVCR110.dll
 0002:00000274       __imp_??1type_info@@UAE@XZ 00460274     MSVCRT:MSVCR110.dll
 0002:00000278       __imp_?terminate@@YAXXZ    00460278     MSVCRT:MSVCR110.dll
 0002:0000027c       __imp___XcptFilter         0046027c     MSVCRT:MSVCR110.dll
 0002:00000280       __imp___amsg_exit          00460280     MSVCRT:MSVCR110.dll
 0002:00000284       \177MSVCR110_NULL_THUNK_DATA 00460284     MSVCRT:MSVCR110.dll
 0002:00000288       __imp__glBegin@4           00460288     opengl32:OPENGL32.dll
 0002:0000028c       __imp__glClear@4           0046028c     opengl32:OPENGL32.dll
 0002:00000290       __imp__glLoadIdentity@0    00460290     opengl32:OPENGL32.dll
 0002:00000294       __imp__glColor3f@12        00460294     opengl32:OPENGL32.dll
 0002:00000298       __imp__glGenTextures@8     00460298     opengl32:OPENGL32.dll
 0002:0000029c       __imp__wglGetProcAddress@4 0046029c     opengl32:OPENGL32.dll
 0002:000002a0       __imp__glEnable@4          004602a0     opengl32:OPENGL32.dll
 0002:000002a4       __imp__glTranslatef@12     004602a4     opengl32:OPENGL32.dll
 0002:000002a8       __imp__glTexCoord3d@24     004602a8     opengl32:OPENGL32.dll
 0002:000002ac       __imp__glViewport@16       004602ac     opengl32:OPENGL32.dll
 0002:000002b0       __imp__glMatrixMode@4      004602b0     opengl32:OPENGL32.dll
 0002:000002b4       __imp__glPushAttrib@4      004602b4     opengl32:OPENGL32.dll
 0002:000002b8       __imp__glBlendFunc@8       004602b8     opengl32:OPENGL32.dll
 0002:000002bc       __imp__glVertex2iv@4       004602bc     opengl32:OPENGL32.dll
 0002:000002c0       __imp__glPushMatrix@0      004602c0     opengl32:OPENGL32.dll
 0002:000002c4       __imp__glPopMatrix@0       004602c4     opengl32:OPENGL32.dll
 0002:000002c8       __imp__glTexParameteri@12  004602c8     opengl32:OPENGL32.dll
 0002:000002cc       __imp__glColor4f@16        004602cc     opengl32:OPENGL32.dll
 0002:000002d0       __imp__glOrtho@48          004602d0     opengl32:OPENGL32.dll
 0002:000002d4       __imp__glDisable@4         004602d4     opengl32:OPENGL32.dll
 0002:000002d8       __imp__glPopAttrib@0       004602d8     opengl32:OPENGL32.dll
 0002:000002dc       __imp__glTexImage2D@36     004602dc     opengl32:OPENGL32.dll
 0002:000002e0       __imp__glColor3fv@4        004602e0     opengl32:OPENGL32.dll
 0002:000002e4       __imp__glVertex2i@8        004602e4     opengl32:OPENGL32.dll
 0002:000002e8       __imp__glBindTexture@8     004602e8     opengl32:OPENGL32.dll
 0002:000002ec       __imp__glEnd@0             004602ec     opengl32:OPENGL32.dll
 0002:000002f0       \177OPENGL32_NULL_THUNK_DATA 004602f0     opengl32:OPENGL32.dll
 0002:000002f4       __imp__SDL_SetVideoMode    004602f4     SDL:SDL.dll
 0002:000002f8       __imp__SDL_Init            004602f8     SDL:SDL.dll
 0002:000002fc       __imp__SDL_FreeSurface     004602fc     SDL:SDL.dll
 0002:00000300       __imp__SDL_Quit            00460300     SDL:SDL.dll
 0002:00000304       __imp__SDL_SetModuleHandle 00460304     SDL:SDL.dll
 0002:00000308       __imp__SDL_strlcpy         00460308     SDL:SDL.dll
 0002:0000030c       __imp__SDL_GL_SetAttribute 0046030c     SDL:SDL.dll
 0002:00000310       __imp__SDL_GetError        00460310     SDL:SDL.dll
 0002:00000314       __imp__SDL_PollEvent       00460314     SDL:SDL.dll
 0002:00000318       __imp__SDL_WM_SetCaption   00460318     SDL:SDL.dll
 0002:0000031c       __imp__SDL_GL_SwapBuffers  0046031c     SDL:SDL.dll
 0002:00000320       \177SDL_NULL_THUNK_DATA    00460320     SDL:SDL.dll
 0002:00000324       __imp__IMG_Load            00460324     SDL_image:SDL_image.dll
 0002:00000328       \177SDL_image_NULL_THUNK_DATA 00460328     SDL_image:SDL_image.dll
 0002:0000032c       ___xc_a                    0046032c     MSVCRT:cinitexe.obj
 0002:00000d70       ___xc_z                    00460d70     MSVCRT:cinitexe.obj
 0002:00000d74       ___xi_a                    00460d74     MSVCRT:cinitexe.obj
 0002:00000d84       ___xi_z                    00460d84     MSVCRT:cinitexe.obj
 0002:00000dcc       ??_7type_info@@6B@         00460dcc     MSVCRT:ti_inst.obj
 0002:00000dd8       ??_C@_0BA@KMDNPDDA@WinMain?$CI?$CJ?5error?$AA@ 00460dd8     SDLmain:SDL_win32_main.obj
 0002:00000de8       ??_C@_07KJFPOMFC@?$CFs?3?5?$CFs?6?$AA@ 00460de8     SDLmain:SDL_win32_main.obj
 0002:00000df0       ??_C@_0M@HFFOIJBL@Fatal?5Error?$AA@ 00460df0     SDLmain:SDL_win32_main.obj
 0002:00000dfc       ??_C@_0BJ@HFNMHALN@Out?5of?5memory?5?9?5aborting?$AA@ 00460dfc     SDLmain:SDL_win32_main.obj
 0002:00000e18       ??_C@_02JDPG@rb?$AA@       00460e18     SDLmain:SDL_win32_main.obj
 0002:00000e1c       ??_C@_07DCLBNMLN@generic?$AA@ 00460e1c     main.obj
 0002:00000e24       ??_C@_0O@BFJCFAAK@unknown?5error?$AA@ 00460e24     main.obj
 0002:00000e34       ??_C@_08LLGCOLLL@iostream?$AA@ 00460e34     main.obj
 0002:00000e40       ??_C@_0BG@PADBLCHM@iostream?5stream?5error?$AA@ 00460e40     main.obj
 0002:00000e58       ??_C@_06FHFOAHML@system?$AA@ 00460e58     main.obj
 0002:00001c18       ?pixelShift@SparCraft@@3HB 00461c18     SparCraft:WeaponProperties.obj
 0002:00001c50       ?damageMultipliers@SparCraft@@3QAY05$$CBMA 00461c50     SparCraft:WeaponProperties.obj
 0002:00005048       ??_C@_0BA@JFNIOLAK@string?5too?5long?$AA@ 00465048     main.obj
 0002:00005058       ??_C@_0BI@CFPLBAOH@invalid?5string?5position?$AA@ 00465058     main.obj
 0002:00005070       ??_C@_0BM@PAPJHAGI@invalid?5map?1set?$DMT?$DO?5iterator?$AA@ 00465070     main.obj
 0002:00005090       ??_7_Generic_error_category@std@@6B@ 00465090     main.obj
 0002:000050a8       ?default_seed@?$mersenne_twister_engine@I$0CA@$0CHA@$0BIN@$0BP@$0JJAILANP@$0L@$0PPPPPPPP@$06$0JNCMFGIA@$0P@$0OPMGAAAA@$0BC@$0GMAHIJGF@@random@boost@@2IB 004650a8     main.obj
 0002:000050b0       ??_7_System_error_category@std@@6B@ 004650b0     main.obj
 0002:000050cc       ??_7_Iostream_error_category@std@@6B@ 004650cc     main.obj
 0002:000050e8       ??_7error_category@std@@6B@ 004650e8     main.obj
 0002:00005104       ??_7?$basic_ifstream@DU?$char_traits@D@std@@@std@@6B@ 00465104     SearchExperiment.obj
 0002:00005110       ??_8?$basic_istringstream@DU?$char_traits@D@std@@V?$allocator@D@2@@std@@7B@ 00465110     SearchExperiment.obj
 0002:00005110       ??_8?$basic_ofstream@DU?$char_traits@D@std@@@std@@7B@ 00465110     SearchExperiment.obj
 0002:0000511c       ??_7?$sp_counted_impl_p@VPlayer_AlphaBeta@SparCraft@@@detail@boost@@6B@ 0046511c     SearchExperiment.obj
 0002:00005134       ??_7?$sp_counted_impl_p@VPlayer_AttackDPS@SparCraft@@@detail@boost@@6B@ 00465134     SearchExperiment.obj
 0002:0000514c       ??_7?$sp_counted_impl_p@VPlayer_UCT@SparCraft@@@detail@boost@@6B@ 0046514c     SearchExperiment.obj
 0002:00005164       ??_7?$basic_stringbuf@DU?$char_traits@D@std@@V?$allocator@D@2@@std@@6B@ 00465164     SearchExperiment.obj
 0002:000051a4       ??_7?$sp_counted_impl_p@VPlayer_PortfolioGreedySearch@SparCraft@@@detail@boost@@6B@ 004651a4     SearchExperiment.obj
 0002:000051bc       ??_7?$sp_counted_impl_p@VPlayer_AttackClosest@SparCraft@@@detail@boost@@6B@ 004651bc     SearchExperiment.obj
 0002:000051d0       ??_8?$basic_ifstream@DU?$char_traits@D@std@@@std@@7B@ 004651d0     SearchExperiment.obj
 0002:000051dc       ??_7?$sp_counted_impl_p@VPlayer_Kiter@SparCraft@@@detail@boost@@6B@ 004651dc     SearchExperiment.obj
 0002:000051f4       ??_7?$sp_counted_impl_p@VPlayer_NOKDPS@SparCraft@@@detail@boost@@6B@ 004651f4     SearchExperiment.obj
 0002:0000520c       ??_7?$basic_stringstream@DU?$char_traits@D@std@@V?$allocator@D@2@@std@@6B@ 0046520c     SearchExperiment.obj
 0002:0000521c       ??_7sp_counted_base@detail@boost@@6B@ 0046521c     SearchExperiment.obj
 0002:00005234       ??_7?$sp_counted_impl_p@VPlayer_AttackWeakest@SparCraft@@@detail@boost@@6B@ 00465234     SearchExperiment.obj
 0002:00005248       ??_8?$basic_stringstream@DU?$char_traits@D@std@@V?$allocator@D@2@@std@@7B?$basic_istream@DU?$char_traits@D@std@@@1@@ 00465248     SearchExperiment.obj
 0002:00005254       ??_7?$sp_counted_impl_p@VPlayer_Random@SparCraft@@@detail@boost@@6B@ 00465254     SearchExperiment.obj
 0002:00005268       ??_8?$basic_stringstream@DU?$char_traits@D@std@@V?$allocator@D@2@@std@@7B?$basic_ostream@DU?$char_traits@D@std@@@1@@ 00465268     SearchExperiment.obj
 0002:00005274       ??_7?$basic_ofstream@DU?$char_traits@D@std@@@std@@6B@ 00465274     SearchExperiment.obj
 0002:00005284       ??_7?$sp_counted_impl_p@VTranspositionTable@SparCraft@@@detail@boost@@6B@ 00465284     SearchExperiment.obj
 0002:0000529c       ??_7?$sp_counted_impl_p@VPlayer_Cluster@SparCraft@@@detail@boost@@6B@ 0046529c     SearchExperiment.obj
 0002:000052b4       ??_7?$sp_counted_impl_p@VPlayer_KiterDPS@SparCraft@@@detail@boost@@6B@ 004652b4     SearchExperiment.obj
 0002:000052cc       ??_7?$basic_istringstream@DU?$char_traits@D@std@@V?$allocator@D@2@@std@@6B@ 004652cc     SearchExperiment.obj
 0002:000052dc       ??_7?$basic_filebuf@DU?$char_traits@D@std@@@std@@6B@ 004652dc     SearchExperiment.obj
 0002:0000531c       ??_7?$sp_counted_impl_p@VPlayer_Kiter_NOKDPS@SparCraft@@@detail@boost@@6B@ 0046531c     SearchExperiment.obj
 0002:00005334       ??_7?$sp_counted_impl_p@VPlayer_IUCT@SparCraft@@@detail@boost@@6B@ 00465334     SearchExperiment.obj
 0002:00005348       ??_C@_05LEHMOKNM@?5ID?3?5?$AA@ 00465348     SearchExperiment.obj
 0002:00005350       ??_C@_08GFFKJBOF@Unknown?5?$AA@ 00465350     SearchExperiment.obj
 0002:0000535c       ??_C@_09FIGKKLGC@?5String?3?5?$AA@ 0046535c     SearchExperiment.obj
 0002:00005368       ??_C@_0BD@OLBABOEK@vector?$DMT?$DO?5too?5long?$AA@ 00465368     SearchExperiment.obj
 0002:0000537c       ??_C@_0BG@EOMJEIFA@vector?$DMbool?$DO?5too?5long?$AA@ 0046537c     SearchExperiment.obj
 0002:00005394       ??_C@_08EPJLHIJG@bad?5cast?$AA@ 00465394     SearchExperiment.obj
 0002:000053a4       ??_7Player_AttackClosest@SparCraft@@6B@ 004653a4     SparCraft:Player_AttackClosest.obj
 0002:000053b0       ??_7Player_AlphaBeta@SparCraft@@6B@ 004653b0     SparCraft:Player_AlphaBeta.obj
 0002:000053c0       ??_7Player_Kiter_NOKDPS@SparCraft@@6B@ 004653c0     SparCraft:Player_Kiter_NOKDPS.obj
 0002:000053c8       ??_C@_06JIJKOHKJ@ATTACK?$AA@ 004653c8     SparCraft:GameState.obj
 0002:000053d0       ??_C@_04LPPGDFDD@MOVE?$AA@ 004653d0     SparCraft:GameState.obj
 0002:000053d8       ??_C@_06DCHFNDBF@RELOAD?$AA@ 004653d8     SparCraft:GameState.obj
 0002:000053e0       ??_C@_04NNAKGGAP@PASS?$AA@ 004653e0     SparCraft:GameState.obj
 0002:000053e8       ??_C@_04NAAAFEJL@HEAL?$AA@ 004653e8     SparCraft:GameState.obj
 0002:000053f0       ??_C@_04OKGDLNCL@NONE?$AA@ 004653f0     SparCraft:GameState.obj
 0002:000053f8       ??_C@_0BE@JONHPENG@map?1set?$DMT?$DO?5too?5long?$AA@ 004653f8     SparCraft:GameState.obj
 0002:00005410       ??_7Player_AttackWeakest@SparCraft@@6B@ 00465410     SparCraft:Player_AttackWeakest.obj
 0002:0000541c       ??_7Player_KiterDPS@SparCraft@@6B@ 0046541c     SparCraft:Player_KiterDPS.obj
 0002:00005428       ??_7Player_IUCT@SparCraft@@6B@ 00465428     SparCraft:Player_IUCT.obj
 0002:00005434       ??_7runtime_error@std@@6B@ 00465434     SparCraft:Display.obj
 0002:00005440       ??_7Player_Cluster@SparCraft@@6B@ 00465440     SparCraft:Player_Cluster.obj
 0002:0000544c       ??_7Player_PortfolioGreedySearch@SparCraft@@6B@ 0046544c     SparCraft:Player_PortfolioGreedySearch.obj
 0002:00005458       ??_7Player_Random@SparCraft@@6B@ 00465458     SparCraft:Player_Random.obj
 0002:00005464       ??_7Player_AttackDPS@SparCraft@@6B@ 00465464     SparCraft:Player_AttackDPS.obj
 0002:00005470       ??_7Player_Kiter@SparCraft@@6B@ 00465470     SparCraft:Player_Kiter.obj
 0002:00005478       ??_C@_09BCOFADI@AlphaBeta?$AA@ 00465478     SparCraft:Game.obj
 0002:00005484       ??_C@_0BB@DGACADDC@Nodes?5Searched?3?5?$AA@ 00465484     SparCraft:Game.obj
 0002:00005498       ??_C@_0L@NLAMIDFJ@AB?5Value?3?5?$AA@ 00465498     SparCraft:Game.obj
 0002:000054a4       ??_C@_0M@ONBAPOCK@Max?5Depth?3?5?$AA@ 004654a4     SparCraft:Game.obj
 0002:000054b0       ??_C@_0N@BLDEJMME@Player?5Type?3?$AA@ 004654b0     SparCraft:Game.obj
 0002:000054c0       ??_C@_0M@KGNIINDM@Time?5Limit?3?$AA@ 004654c0     SparCraft:Game.obj
 0002:000054cc       ??_C@_0O@MFFDLJAL@Max?5Children?3?$AA@ 004654cc     SparCraft:Game.obj
 0002:000054dc       ??_C@_0P@LFCHLJEH@Move?5Ordering?3?$AA@ 004654dc     SparCraft:Game.obj
 0002:000054ec       ??_C@_0BA@MNAKDBCN@Player?5To?5Move?3?$AA@ 004654ec     SparCraft:Game.obj
 0002:000054fc       ??_C@_0BA@NFMHJBHP@Opponent?5Model?3?$AA@ 004654fc     SparCraft:Game.obj
 0002:0000550c       ??_C@_02EEKDFEKL@ms?$AA@   0046550c     SparCraft:Game.obj
 0002:00005510       ??_C@_08OPKEKLOH@C?5Value?3?$AA@ 00465510     SparCraft:Game.obj
 0002:0000551c       ??_C@_0BA@EJKECJFA@Max?5Traversals?3?$AA@ 0046551c     SparCraft:Game.obj
 0002:0000552c       ??_C@_03IOGDHELK@UCT?$AA@  0046552c     SparCraft:Game.obj
 0002:00005530       ??_C@_0N@OEFNNCED@Traversals?3?5?$AA@ 00465530     SparCraft:Game.obj
 0002:00005540       ??_C@_0BA@OJINEKMG@Nodes?5Visited?3?5?$AA@ 00465540     SparCraft:Game.obj
 0002:00005550       ??_C@_0P@NPJOGNBN@Total?5Visits?3?5?$AA@ 00465550     SparCraft:Game.obj
 0002:00005560       ??_C@_0BA@IPKEKKAN@Nodes?5Created?3?5?$AA@ 00465560     SparCraft:Game.obj
 0002:00005574       ??_7Player_UCT@SparCraft@@6B@ 00465574     SparCraft:Player_UCT.obj
 0002:00005580       ??_7Player_NOKDPS@SparCraft@@6B@ 00465580     SparCraft:Player_NOKDPS.obj
 0002:00005588       ??_C@_07OLBIDKLK@Players?$AA@ 00465588     SparCraft:EnumData.obj
 0002:00005590       ??_C@_0L@BIALLJLK@Player?5One?$AA@ 00465590     SparCraft:EnumData.obj
 0002:0000559c       ??_C@_0L@HGALBJFB@Player?5Two?$AA@ 0046559c     SparCraft:EnumData.obj
 0002:000055a8       ??_C@_0M@LKKPGPPN@Player?5None?$AA@ 004655a8     SparCraft:EnumData.obj
 0002:000055b4       ??_C@_0M@NLEANKBH@Player?5Both?$AA@ 004655b4     SparCraft:EnumData.obj
 0002:000055c0       ??_C@_0N@DMADNCOF@SearchMethod?$AA@ 004655c0     SparCraft:EnumData.obj
 0002:000055d0       ??_C@_0M@FCCKBJCN@IDAlphaBeta?$AA@ 004655d0     SparCraft:EnumData.obj
 0002:000055dc       ??_C@_07FHDKFHID@MiniMax?$AA@ 004655dc     SparCraft:EnumData.obj
 0002:000055e4       ??_C@_0N@EODFHNNC@PlayerModels?$AA@ 004655e4     SparCraft:EnumData.obj
 0002:000055f4       ??_C@_0O@GHIHHMBB@AttackClosest?$AA@ 004655f4     SparCraft:EnumData.obj
 0002:00005604       ??_C@_05IMIJELL@Kiter?$AA@ 00465604     SparCraft:EnumData.obj
 0002:0000560c       ??_C@_06BEOPDEGP@Random?$AA@ 0046560c     SparCraft:EnumData.obj
 0002:00005614       ??_C@_0O@GAHELLCA@AttackWeakest?$AA@ 00465614     SparCraft:EnumData.obj
 0002:00005624       ??_C@_09EMEHGFBA@AttackDPS?$AA@ 00465624     SparCraft:EnumData.obj
 0002:00005630       ??_C@_08KAMFPLCI@KiterDPS?$AA@ 00465630     SparCraft:EnumData.obj
 0002:0000563c       ??_C@_06EONGBAAJ@NOKDPS?$AA@ 0046563c     SparCraft:EnumData.obj
 0002:00005644       ??_C@_0N@BIBHBFBI@Kiter_NOKDPS?$AA@ 00465644     SparCraft:EnumData.obj
 0002:00005654       ??_C@_07CDAMOABA@Cluster?$AA@ 00465654     SparCraft:EnumData.obj
 0002:0000565c       ??_C@_0BG@MHMIIONG@PortfolioGreedySearch?$AA@ 0046565c     SparCraft:EnumData.obj
 0002:00005674       ??_C@_04DMOGGGID@IUCT?$AA@ 00465674     SparCraft:EnumData.obj
 0002:0000567c       ??_C@_04OHJIHAFH@None?$AA@ 0046567c     SparCraft:EnumData.obj
 0002:00005684       ??_C@_0BC@OKKOAIOI@EvaluationMethods?$AA@ 00465684     SparCraft:EnumData.obj
 0002:00005698       ??_C@_03PANJMLAL@LTD?$AA@  00465698     SparCraft:EnumData.obj
 0002:0000569c       ??_C@_04HKFCFEDC@LTD2?$AA@ 0046569c     SparCraft:EnumData.obj
 0002:000056a4       ??_C@_07MOKLFKJM@Playout?$AA@ 004656a4     SparCraft:EnumData.obj
 0002:000056ac       ??_C@_0P@CANGCI@SearchNodeType?$AA@ 004656ac     SparCraft:EnumData.obj
 0002:000056bc       ??_C@_07MCAEODGB@Default?$AA@ 004656bc     SparCraft:EnumData.obj
 0002:000056c4       ??_C@_08HCAGLOAO@RootNode?$AA@ 004656c4     SparCraft:EnumData.obj
 0002:000056d0       ??_C@_08DNIEECII@SoloNode?$AA@ 004656d0     SparCraft:EnumData.obj
 0002:000056dc       ??_C@_0N@OMFIPKBG@FirstSimNode?$AA@ 004656dc     SparCraft:EnumData.obj
 0002:000056ec       ??_C@_0O@JGIMCFKK@SecondSimNode?$AA@ 004656ec     SparCraft:EnumData.obj
 0002:000056fc       ??_C@_0BA@CKLMBDHL@MoveOrderMethod?$AA@ 004656fc     SparCraft:EnumData.obj
 0002:0000570c       ??_C@_0M@CBADLIAG@ScriptFirst?$AA@ 0046570c     SparCraft:EnumData.obj
 0002:00005718       ??_C@_0N@BCDGJKKP@PlayerToMove?$AA@ 00465718     SparCraft:EnumData.obj
 0002:00005728       ??_C@_09IOMONPGB@Alternate?$AA@ 00465728     SparCraft:EnumData.obj
 0002:00005734       ??_C@_0O@NDFEPAKD@Not_Alternate?$AA@ 00465734     SparCraft:EnumData.obj
 0002:00005748       ??_7GLFontBase@@6B@        00465748     SparCraft:glfont.obj
 0002:00005750       ??_7PixelPerfectGLFont@@6B@ 00465750     SparCraft:glfont.obj
 0002:00005754       ??_C@_0BB@MOGOBHAF@list?$DMT?$DO?5too?5long?$AA@ 00465754     BWAPI:Color.obj
 0002:00005768       __real@0010000000000000    00465768     main.obj
 0002:00005770       __real@3dcccccd            00465770     main.obj
 0002:00005778       __real@3f50624dd2f1a9fc    00465778     main.obj
 0002:00005780       __real@3f800000            00465780     main.obj
 0002:00005788       __real@3fe0000000000000    00465788     main.obj
 0002:00005790       __real@3fea8f5c28f5c28f    00465790     main.obj
 0002:00005798       __real@3ff0000000000000    00465798     main.obj
 0002:000057a0       __real@3ff1ae147ae147ae    004657a0     main.obj
 0002:000057a8       __real@3ff2ac083126e979    004657a8     main.obj
 0002:000057b0       __real@3ff8e5604189374c    004657b0     main.obj
 0002:000057b8       __real@3ff9d70a3d70a3d7    004657b8     main.obj
 0002:000057c0       __real@3ffc7ae147ae147b    004657c0     main.obj
 0002:000057c8       __real@3ffe189374bc6a7f    004657c8     main.obj
 0002:000057d0       __real@4004000000000000    004657d0     main.obj
 0002:000057d8       __real@400999999999999a    004657d8     main.obj
 0002:000057e0       __real@400aa3d70a3d70a4    004657e0     main.obj
 0002:000057e8       __real@400d47ae147ae148    004657e8     main.obj
 0002:000057f0       __real@4010000000000000    004657f0     main.obj
 0002:000057f8       __real@4011b851eb851eb8    004657f8     main.obj
 0002:00005800       __real@401247ae147ae148    00465800     main.obj
 0002:00005808       __real@4013ae147ae147ae    00465808     main.obj
 0002:00005810       __real@4014000000000000    00465810     main.obj
 0002:00005818       __real@40147ae147ae147b    00465818     main.obj
 0002:00005820       __real@4015e147ae147ae1    00465820     main.obj
 0002:00005828       __real@4015f5c28f5c28f6    00465828     main.obj
 0002:00005830       __real@401747ae147ae148    00465830     main.obj
 0002:00005838       __real@4018000000000000    00465838     main.obj
 0002:00005840       __real@401999999999999a    00465840     main.obj
 0002:00005848       __real@401a666666666666    00465848     main.obj
 0002:00005850       __real@401aae147ae147ae    00465850     main.obj
 0002:00005858       __real@402aa8f5c28f5c29    00465858     main.obj
 0002:00005860       __real@4030000000000000    00465860     main.obj
 0002:00005868       __real@4040aa3d70a3d70a    00465868     main.obj
 0002:00005870       __real@4049000000000000    00465870     main.obj
 0002:00005878       __real@4062c00000000000    00465878     main.obj
 0002:00005880       __real@4090000000000000    00465880     main.obj
 0002:00005888       __real@412e848000000000    00465888     main.obj
 0002:00005890       __real@447a0000            00465890     main.obj
 0002:00005898       __real@7fefffffffffffff    00465898     main.obj
 0002:000058a0       __real@bff0000000000000    004658a0     main.obj
 0002:000058b0       __xmm@41f00000000000000000000000000000 004658b0     main.obj
 0002:000058c0       __load_config_used         004658c0     MSVCRT:loadcfg.obj
 0002:00005980       ??_R4type_info@@6B@        00465980     MSVCRT:ti_inst.obj
 0002:00005994       ??_R3type_info@@8          00465994     MSVCRT:ti_inst.obj
 0002:000059a4       ??_R2type_info@@8          004659a4     MSVCRT:ti_inst.obj
 0002:000059ac       ??_R1A@?0A@EA@type_info@@8 004659ac     MSVCRT:ti_inst.obj
 0002:000059c8       ??_R3error_category@std@@8 004659c8     main.obj
 0002:000059d8       ??_R1A@?0A@EA@error_category@std@@8 004659d8     main.obj
 0002:000059f4       ??_R3_System_error_category@std@@8 004659f4     main.obj
 0002:00005a04       ??_R2_System_error_category@std@@8 00465a04     main.obj
 0002:00005a14       ??_R4_Generic_error_category@std@@6B@ 00465a14     main.obj
 0002:00005a28       ??_R1A@?0A@EA@_Generic_error_category@std@@8 00465a28     main.obj
 0002:00005a44       ??_R1A@?0A@EA@_Iostream_error_category@std@@8 00465a44     main.obj
 0002:00005a60       ??_R4error_category@std@@6B@ 00465a60     main.obj
 0002:00005a74       ??_R4_Iostream_error_category@std@@6B@ 00465a74     main.obj
 0002:00005a88       ??_R2error_category@std@@8 00465a88     main.obj
 0002:00005a90       ??_R1A@?0A@EA@_System_error_category@std@@8 00465a90     main.obj
 0002:00005aac       ??_R3_Iostream_error_category@std@@8 00465aac     main.obj
 0002:00005abc       ??_R4_System_error_category@std@@6B@ 00465abc     main.obj
 0002:00005ad0       ??_R2_Generic_error_category@std@@8 00465ad0     main.obj
 0002:00005adc       ??_R3_Generic_error_category@std@@8 00465adc     main.obj
 0002:00005aec       ??_R2_Iostream_error_category@std@@8 00465aec     main.obj
 0002:00005afc       ??_R17?0A@EA@?$_Iosb@H@std@@8 00465afc     SearchExperiment.obj
 0002:00005b18       ??_R4?$basic_stringbuf@DU?$char_traits@D@std@@V?$allocator@D@2@@std@@6B@ 00465b18     SearchExperiment.obj
 0002:00005b2c       ??_R2?$basic_ifstream@DU?$char_traits@D@std@@@std@@8 00465b2c     SearchExperiment.obj
 0002:00005b44       ??_R3?$sp_counted_impl_p@VPlayer_IUCT@SparCraft@@@detail@boost@@8 00465b44     SearchExperiment.obj
 0002:00005b54       ??_R3sp_counted_base@detail@boost@@8 00465b54     SearchExperiment.obj
 0002:00005b64       ??_R3?$basic_streambuf@DU?$char_traits@D@std@@@std@@8 00465b64     SearchExperiment.obj
 0002:00005b74       ??_R3?$sp_counted_impl_p@VPlayer_UCT@SparCraft@@@detail@boost@@8 00465b74     SearchExperiment.obj
 0002:00005b84       ??_R4?$basic_ifstream@DU?$char_traits@D@std@@@std@@6B@ 00465b84     SearchExperiment.obj
 0002:00005b98       ??_R2?$sp_counted_impl_p@VPlayer_UCT@SparCraft@@@detail@boost@@8 00465b98     SearchExperiment.obj
 0002:00005ba4       ??_R3ios_base@std@@8       00465ba4     SearchExperiment.obj
 0002:00005bb4       ??_R1A@?0A@EA@?$basic_streambuf@DU?$char_traits@D@std@@@std@@8 00465bb4     SearchExperiment.obj
 0002:00005bd0       ??_R2sp_counted_base@detail@boost@@8 00465bd0     SearchExperiment.obj
 0002:00005bd8       ??_R1A@A@3FA@?$basic_ios@DU?$char_traits@D@std@@@std@@8 00465bd8     SearchExperiment.obj
 0002:00005bf4       ??_R3?$basic_ostream@DU?$char_traits@D@std@@@std@@8 00465bf4     SearchExperiment.obj
 0002:00005c04       ??_R1A@?0A@EA@?$basic_istream@DU?$char_traits@D@std@@@std@@8 00465c04     SearchExperiment.obj
 0002:00005c20       ??_R1A@?0A@EA@?$sp_counted_impl_p@VPlayer_IUCT@SparCraft@@@detail@boost@@8 00465c20     SearchExperiment.obj
 0002:00005c3c       ??_R2?$basic_ostream@DU?$char_traits@D@std@@@std@@8 00465c3c     SearchExperiment.obj
 0002:00005c50       ??_R2?$basic_ofstream@DU?$char_traits@D@std@@@std@@8 00465c50     SearchExperiment.obj
 0002:00005c68       ??_R4?$sp_counted_impl_p@VPlayer_AttackDPS@SparCraft@@@detail@boost@@6B@ 00465c68     SearchExperiment.obj
 0002:00005c7c       ??_R3?$basic_filebuf@DU?$char_traits@D@std@@@std@@8 00465c7c     SearchExperiment.obj
 0002:00005c8c       ??_R2?$sp_counted_impl_p@VPlayer_AlphaBeta@SparCraft@@@detail@boost@@8 00465c8c     SearchExperiment.obj
 0002:00005c98       ??_R3?$basic_ofstream@DU?$char_traits@D@std@@@std@@8 00465c98     SearchExperiment.obj
 0002:00005ca8       ??_R2?$sp_counted_impl_p@VPlayer_Cluster@SparCraft@@@detail@boost@@8 00465ca8     SearchExperiment.obj
 0002:00005cb4       ??_R1A@?0A@EA@?$basic_stringstream@DU?$char_traits@D@std@@V?$allocator@D@2@@std@@8 00465cb4     SearchExperiment.obj
 0002:00005cd0       ??_R1A@?0A@EA@sp_counted_base@detail@boost@@8 00465cd0     SearchExperiment.obj
 0002:00005cec       ??_R4?$sp_counted_impl_p@VPlayer_Random@SparCraft@@@detail@boost@@6B@ 00465cec     SearchExperiment.obj
 0002:00005d00       ??_R1A@?0A@EA@?$sp_counted_impl_p@VPlayer_KiterDPS@SparCraft@@@detail@boost@@8 00465d00     SearchExperiment.obj
 0002:00005d1c       ??_R2?$sp_counted_impl_p@VPlayer_Kiter_NOKDPS@SparCraft@@@detail@boost@@8 00465d1c     SearchExperiment.obj
 0002:00005d28       ??_R1A@?0A@EA@?$sp_counted_impl_p@VPlayer_AttackWeakest@SparCraft@@@detail@boost@@8 00465d28     SearchExperiment.obj
 0002:00005d44       ??_R1A@?0A@EA@?$basic_filebuf@DU?$char_traits@D@std@@@std@@8 00465d44     SearchExperiment.obj
 0002:00005d60       ??_R1A@A@3EA@ios_base@std@@8 00465d60     SearchExperiment.obj
 0002:00005d7c       ??_R2?$sp_counted_impl_p@VPlayer_Random@SparCraft@@@detail@boost@@8 00465d7c     SearchExperiment.obj
 0002:00005d88       ??_R2?$sp_counted_impl_p@VPlayer_PortfolioGreedySearch@SparCraft@@@detail@boost@@8 00465d88     SearchExperiment.obj
 0002:00005d94       ??_R1A@?0A@EA@?$sp_counted_impl_p@VPlayer_UCT@SparCraft@@@detail@boost@@8 00465d94     SearchExperiment.obj
 0002:00005db0       ??_R4?$basic_ofstream@DU?$char_traits@D@std@@@std@@6B@ 00465db0     SearchExperiment.obj
 0002:00005dc4       ??_R4?$sp_counted_impl_p@VPlayer_IUCT@SparCraft@@@detail@boost@@6B@ 00465dc4     SearchExperiment.obj
 0002:00005dd8       ??_R3?$basic_ifstream@DU?$char_traits@D@std@@@std@@8 00465dd8     SearchExperiment.obj
 0002:00005de8       ??_R4?$basic_filebuf@DU?$char_traits@D@std@@@std@@6B@ 00465de8     SearchExperiment.obj
 0002:00005dfc       ??_R3?$sp_counted_impl_p@VPlayer_Kiter_NOKDPS@SparCraft@@@detail@boost@@8 00465dfc     SearchExperiment.obj
 0002:00005e0c       ??_R1A@?0A@EA@?$_Iosb@H@std@@8 00465e0c     SearchExperiment.obj
 0002:00005e28       ??_R3?$basic_stringstream@DU?$char_traits@D@std@@V?$allocator@D@2@@std@@8 00465e28     SearchExperiment.obj
 0002:00005e38       ??_R1A@?0A@EA@?$sp_counted_impl_p@VPlayer_Kiter_NOKDPS@SparCraft@@@detail@boost@@8 00465e38     SearchExperiment.obj
 0002:00005e54       ??_R3?$_Iosb@H@std@@8      00465e54     SearchExperiment.obj
 0002:00005e64       ??_R1A@?0A@EA@?$sp_counted_impl_p@VPlayer_AttackClosest@SparCraft@@@detail@boost@@8 00465e64     SearchExperiment.obj
 0002:00005e80       ??_R3?$sp_counted_impl_p@VPlayer_AttackWeakest@SparCraft@@@detail@boost@@8 00465e80     SearchExperiment.obj
 0002:00005e90       ??_R4?$sp_counted_impl_p@VPlayer_AlphaBeta@SparCraft@@@detail@boost@@6B@ 00465e90     SearchExperiment.obj
 0002:00005ea4       ??_R2?$sp_counted_impl_p@VPlayer_IUCT@SparCraft@@@detail@boost@@8 00465ea4     SearchExperiment.obj
 0002:00005eb0       ??_R1A@?0A@EA@?$basic_ifstream@DU?$char_traits@D@std@@@std@@8 00465eb0     SearchExperiment.obj
 0002:00005ecc       ??_R2?$basic_streambuf@DU?$char_traits@D@std@@@std@@8 00465ecc     SearchExperiment.obj
 0002:00005ed4       ??_R4?$sp_counted_impl_p@VTranspositionTable@SparCraft@@@detail@boost@@6B@ 00465ed4     SearchExperiment.obj
 0002:00005ee8       ??_R3?$sp_counted_impl_p@VTranspositionTable@SparCraft@@@detail@boost@@8 00465ee8     SearchExperiment.obj
 0002:00005ef8       ??_R4?$sp_counted_impl_p@VPlayer_UCT@SparCraft@@@detail@boost@@6B@ 00465ef8     SearchExperiment.obj
 0002:00005f0c       ??_R1A@?0A@EA@?$basic_ostream@DU?$char_traits@D@std@@@std@@8 00465f0c     SearchExperiment.obj
 0002:00005f28       ??_R1BA@?0A@EA@?$basic_ostream@DU?$char_traits@D@std@@@std@@8 00465f28     SearchExperiment.obj
 0002:00005f44       ??_R4?$basic_stringstream@DU?$char_traits@D@std@@V?$allocator@D@2@@std@@6B@ 00465f44     SearchExperiment.obj
 0002:00005f58       ??_R2?$sp_counted_impl_p@VTranspositionTable@SparCraft@@@detail@boost@@8 00465f58     SearchExperiment.obj
 0002:00005f64       ??_R1A@?0A@EA@?$basic_istringstream@DU?$char_traits@D@std@@V?$allocator@D@2@@std@@8 00465f64     SearchExperiment.obj
 0002:00005f80       ??_R1A@?0A@EA@?$sp_counted_impl_p@VPlayer_AlphaBeta@SparCraft@@@detail@boost@@8 00465f80     SearchExperiment.obj
 0002:00005f9c       ??_R4?$sp_counted_impl_p@VPlayer_PortfolioGreedySearch@SparCraft@@@detail@boost@@6B@ 00465f9c     SearchExperiment.obj
 0002:00005fb0       ??_R3?$sp_counted_impl_p@VPlayer_Kiter@SparCraft@@@detail@boost@@8 00465fb0     SearchExperiment.obj
 0002:00005fc0       ??_R4?$sp_counted_impl_p@VPlayer_KiterDPS@SparCraft@@@detail@boost@@6B@ 00465fc0     SearchExperiment.obj
 0002:00005fd4       ??_R2ios_base@std@@8       00465fd4     SearchExperiment.obj
 0002:00005fe0       ??_R1A@?0A@EA@?$sp_counted_impl_p@VPlayer_Kiter@SparCraft@@@detail@boost@@8 00465fe0     SearchExperiment.obj
 0002:00005ffc       ??_R1A@?0A@EA@?$basic_ios@DU?$char_traits@D@std@@@std@@8 00465ffc     SearchExperiment.obj
 0002:00006018       ??_R2?$basic_stringbuf@DU?$char_traits@D@std@@V?$allocator@D@2@@std@@8 00466018     SearchExperiment.obj
 0002:00006024       ??_R3?$basic_istream@DU?$char_traits@D@std@@@std@@8 00466024     SearchExperiment.obj
 0002:00006034       ??_R3?$sp_counted_impl_p@VPlayer_NOKDPS@SparCraft@@@detail@boost@@8 00466034     SearchExperiment.obj
 0002:00006044       ??_R4?$sp_counted_impl_p@VPlayer_Kiter@SparCraft@@@detail@boost@@6B@ 00466044     SearchExperiment.obj
 0002:00006058       ??_R3?$sp_counted_impl_p@VPlayer_PortfolioGreedySearch@SparCraft@@@detail@boost@@8 00466058     SearchExperiment.obj
 0002:00006068       ??_R2?$_Iosb@H@std@@8      00466068     SearchExperiment.obj
 0002:00006070       ??_R4?$sp_counted_impl_p@VPlayer_Kiter_NOKDPS@SparCraft@@@detail@boost@@6B@ 00466070     SearchExperiment.obj
 0002:00006084       ??_R2?$sp_counted_impl_p@VPlayer_KiterDPS@SparCraft@@@detail@boost@@8 00466084     SearchExperiment.obj
 0002:00006090       ??_R2?$basic_filebuf@DU?$char_traits@D@std@@@std@@8 00466090     SearchExperiment.obj
 0002:0000609c       ??_R2?$sp_counted_impl_p@VPlayer_AttackDPS@SparCraft@@@detail@boost@@8 0046609c     SearchExperiment.obj
 0002:000060a8       ??_R1A@?0A@EA@?$sp_counted_impl_p@VTranspositionTable@SparCraft@@@detail@boost@@8 004660a8     SearchExperiment.obj
 0002:000060c4       ??_R2?$basic_iostream@DU?$char_traits@D@std@@@std@@8 004660c4     SearchExperiment.obj
 0002:000060ec       ??_R1A@?0A@EA@?$sp_counted_impl_p@VPlayer_Random@SparCraft@@@detail@boost@@8 004660ec     SearchExperiment.obj
 0002:00006108       ??_R1A@?0A@EA@?$basic_iostream@DU?$char_traits@D@std@@@std@@8 00466108     SearchExperiment.obj
 0002:00006124       ??_R3?$sp_counted_impl_p@VPlayer_AlphaBeta@SparCraft@@@detail@boost@@8 00466124     SearchExperiment.obj
 0002:00006134       ??_R3?$sp_counted_impl_p@VPlayer_AttackClosest@SparCraft@@@detail@boost@@8 00466134     SearchExperiment.obj
 0002:00006144       ??_R4?$basic_istringstream@DU?$char_traits@D@std@@V?$allocator@D@2@@std@@6B@ 00466144     SearchExperiment.obj
 0002:00006158       ??_R3?$basic_istringstream@DU?$char_traits@D@std@@V?$allocator@D@2@@std@@8 00466158     SearchExperiment.obj
 0002:00006168       ??_R1A@?0A@EA@?$sp_counted_impl_p@VPlayer_Cluster@SparCraft@@@detail@boost@@8 00466168     SearchExperiment.obj
 0002:00006184       ??_R3?$basic_ios@DU?$char_traits@D@std@@@std@@8 00466184     SearchExperiment.obj
 0002:00006194       ??_R2?$sp_counted_impl_p@VPlayer_AttackWeakest@SparCraft@@@detail@boost@@8 00466194     SearchExperiment.obj
 0002:000061a0       ??_R4?$sp_counted_impl_p@VPlayer_AttackClosest@SparCraft@@@detail@boost@@6B@ 004661a0     SearchExperiment.obj
 0002:000061b4       ??_R3?$sp_counted_impl_p@VPlayer_Random@SparCraft@@@detail@boost@@8 004661b4     SearchExperiment.obj
 0002:000061c4       ??_R2?$sp_counted_impl_p@VPlayer_AttackClosest@SparCraft@@@detail@boost@@8 004661c4     SearchExperiment.obj
 0002:000061d0       ??_R17A@3EA@?$_Iosb@H@std@@8 004661d0     SearchExperiment.obj
 0002:000061ec       ??_R3?$sp_counted_impl_p@VPlayer_Cluster@SparCraft@@@detail@boost@@8 004661ec     SearchExperiment.obj
 0002:000061fc       ??_R2?$basic_stringstream@DU?$char_traits@D@std@@V?$allocator@D@2@@std@@8 004661fc     SearchExperiment.obj
 0002:00006228       ??_R4sp_counted_base@detail@boost@@6B@ 00466228     SearchExperiment.obj
 0002:0000623c       ??_R3?$sp_counted_impl_p@VPlayer_KiterDPS@SparCraft@@@detail@boost@@8 0046623c     SearchExperiment.obj
 0002:0000624c       ??_R4?$sp_counted_impl_p@VPlayer_Cluster@SparCraft@@@detail@boost@@6B@ 0046624c     SearchExperiment.obj
 0002:00006260       ??_R2?$sp_counted_impl_p@VPlayer_Kiter@SparCraft@@@detail@boost@@8 00466260     SearchExperiment.obj
 0002:0000626c       ??_R3?$sp_counted_impl_p@VPlayer_AttackDPS@SparCraft@@@detail@boost@@8 0046626c     SearchExperiment.obj
 0002:0000627c       ??_R4?$sp_counted_impl_p@VPlayer_AttackWeakest@SparCraft@@@detail@boost@@6B@ 0046627c     SearchExperiment.obj
 0002:00006290       ??_R3?$basic_iostream@DU?$char_traits@D@std@@@std@@8 00466290     SearchExperiment.obj
 0002:000062a0       ??_R3?$basic_stringbuf@DU?$char_traits@D@std@@V?$allocator@D@2@@std@@8 004662a0     SearchExperiment.obj
 0002:000062b0       ??_R1A@?0A@EA@ios_base@std@@8 004662b0     SearchExperiment.obj
 0002:000062cc       ??_R2?$basic_ios@DU?$char_traits@D@std@@@std@@8 004662cc     SearchExperiment.obj
 0002:000062dc       ??_R1A@?0A@EA@?$basic_ofstream@DU?$char_traits@D@std@@@std@@8 004662dc     SearchExperiment.obj
 0002:000062f8       ??_R1A@?0A@EA@?$sp_counted_impl_p@VPlayer_NOKDPS@SparCraft@@@detail@boost@@8 004662f8     SearchExperiment.obj
 0002:00006314       ??_R2?$sp_counted_impl_p@VPlayer_NOKDPS@SparCraft@@@detail@boost@@8 00466314     SearchExperiment.obj
 0002:00006320       ??_R2?$basic_istream@DU?$char_traits@D@std@@@std@@8 00466320     SearchExperiment.obj
 0002:00006334       ??_R2?$basic_istringstream@DU?$char_traits@D@std@@V?$allocator@D@2@@std@@8 00466334     SearchExperiment.obj
 0002:0000634c       ??_R4?$sp_counted_impl_p@VPlayer_NOKDPS@SparCraft@@@detail@boost@@6B@ 0046634c     SearchExperiment.obj
 0002:00006360       ??_R1A@?0A@EA@?$sp_counted_impl_p@VPlayer_PortfolioGreedySearch@SparCraft@@@detail@boost@@8 00466360     SearchExperiment.obj
 0002:0000637c       ??_R1A@?0A@EA@?$basic_stringbuf@DU?$char_traits@D@std@@V?$allocator@D@2@@std@@8 0046637c     SearchExperiment.obj
 0002:00006398       ??_R1A@?0A@EA@?$sp_counted_impl_p@VPlayer_AttackDPS@SparCraft@@@detail@boost@@8 00466398     SearchExperiment.obj
 0002:000063b4       ??_R2Player_AttackClosest@SparCraft@@8 004663b4     SparCraft:Player_AttackClosest.obj
 0002:000063c0       ??_R2Player@SparCraft@@8   004663c0     SparCraft:Player_AttackClosest.obj
 0002:000063c8       ??_R4Player_AttackClosest@SparCraft@@6B@ 004663c8     SparCraft:Player_AttackClosest.obj
 0002:000063dc       ??_R1A@?0A@EA@Player@SparCraft@@8 004663dc     SparCraft:Player_AttackClosest.obj
 0002:000063f8       ??_R3Player@SparCraft@@8   004663f8     SparCraft:Player_AttackClosest.obj
 0002:00006408       ??_R3Player_AttackClosest@SparCraft@@8 00466408     SparCraft:Player_AttackClosest.obj
 0002:00006418       ??_R1A@?0A@EA@Player_AttackClosest@SparCraft@@8 00466418     SparCraft:Player_AttackClosest.obj
 0002:00006434       ??_R4Player_AlphaBeta@SparCraft@@6B@ 00466434     SparCraft:Player_AlphaBeta.obj
 0002:00006448       ??_R3Player_AlphaBeta@SparCraft@@8 00466448     SparCraft:Player_AlphaBeta.obj
 0002:00006458       ??_R2Player_AlphaBeta@SparCraft@@8 00466458     SparCraft:Player_AlphaBeta.obj
 0002:00006464       ??_R1A@?0A@EA@Player_AlphaBeta@SparCraft@@8 00466464     SparCraft:Player_AlphaBeta.obj
 0002:00006480       ??_R3Player_Kiter_NOKDPS@SparCraft@@8 00466480     SparCraft:Player_Kiter_NOKDPS.obj
 0002:00006490       ??_R4Player_Kiter_NOKDPS@SparCraft@@6B@ 00466490     SparCraft:Player_Kiter_NOKDPS.obj
 0002:000064a4       ??_R1A@?0A@EA@Player_Kiter_NOKDPS@SparCraft@@8 004664a4     SparCraft:Player_Kiter_NOKDPS.obj
 0002:000064c0       ??_R2Player_Kiter_NOKDPS@SparCraft@@8 004664c0     SparCraft:Player_Kiter_NOKDPS.obj
 0002:000064cc       ??_R1A@?0A@EA@Player_AttackWeakest@SparCraft@@8 004664cc     SparCraft:Player_AttackWeakest.obj
 0002:000064e8       ??_R2Player_AttackWeakest@SparCraft@@8 004664e8     SparCraft:Player_AttackWeakest.obj
 0002:000064f4       ??_R3Player_AttackWeakest@SparCraft@@8 004664f4     SparCraft:Player_AttackWeakest.obj
 0002:00006504       ??_R4Player_AttackWeakest@SparCraft@@6B@ 00466504     SparCraft:Player_AttackWeakest.obj
 0002:00006518       ??_R1A@?0A@EA@Player_KiterDPS@SparCraft@@8 00466518     SparCraft:Player_KiterDPS.obj
 0002:00006534       ??_R3Player_KiterDPS@SparCraft@@8 00466534     SparCraft:Player_KiterDPS.obj
 0002:00006544       ??_R4Player_KiterDPS@SparCraft@@6B@ 00466544     SparCraft:Player_KiterDPS.obj
 0002:00006558       ??_R2Player_KiterDPS@SparCraft@@8 00466558     SparCraft:Player_KiterDPS.obj
 0002:00006564       ??_R4Player_IUCT@SparCraft@@6B@ 00466564     SparCraft:Player_IUCT.obj
 0002:00006578       ??_R2Player_IUCT@SparCraft@@8 00466578     SparCraft:Player_IUCT.obj
 0002:00006584       ??_R1A@?0A@EA@Player_IUCT@SparCraft@@8 00466584     SparCraft:Player_IUCT.obj
 0002:000065a0       ??_R3Player_IUCT@SparCraft@@8 004665a0     SparCraft:Player_IUCT.obj
 0002:000065b0       ??_R1A@?0A@EA@exception@std@@8 004665b0     SparCraft:Display.obj
 0002:000065cc       ??_R2runtime_error@std@@8  004665cc     SparCraft:Display.obj
 0002:000065d8       ??_R3runtime_error@std@@8  004665d8     SparCraft:Display.obj
 0002:000065e8       ??_R2exception@std@@8      004665e8     SparCraft:Display.obj
 0002:000065f0       ??_R1A@?0A@EA@runtime_error@std@@8 004665f0     SparCraft:Display.obj
 0002:0000660c       ??_R3exception@std@@8      0046660c     SparCraft:Display.obj
 0002:0000661c       ??_R4runtime_error@std@@6B@ 0046661c     SparCraft:Display.obj
 0002:00006630       ??_R2Player_Cluster@SparCraft@@8 00466630     SparCraft:Player_Cluster.obj
 0002:0000663c       ??_R4Player_Cluster@SparCraft@@6B@ 0046663c     SparCraft:Player_Cluster.obj
 0002:00006650       ??_R3Player_Cluster@SparCraft@@8 00466650     SparCraft:Player_Cluster.obj
 0002:00006660       ??_R1A@?0A@EA@Player_Cluster@SparCraft@@8 00466660     SparCraft:Player_Cluster.obj
 0002:0000667c       ??_R2Player_PortfolioGreedySearch@SparCraft@@8 0046667c     SparCraft:Player_PortfolioGreedySearch.obj
 0002:00006688       ??_R4Player_PortfolioGreedySearch@SparCraft@@6B@ 00466688     SparCraft:Player_PortfolioGreedySearch.obj
 0002:0000669c       ??_R3Player_PortfolioGreedySearch@SparCraft@@8 0046669c     SparCraft:Player_PortfolioGreedySearch.obj
 0002:000066ac       ??_R1A@?0A@EA@Player_PortfolioGreedySearch@SparCraft@@8 004666ac     SparCraft:Player_PortfolioGreedySearch.obj
 0002:000066c8       ??_R4Player_Random@SparCraft@@6B@ 004666c8     SparCraft:Player_Random.obj
 0002:000066dc       ??_R1A@?0A@EA@Player_Random@SparCraft@@8 004666dc     SparCraft:Player_Random.obj
 0002:000066f8       ??_R2Player_Random@SparCraft@@8 004666f8     SparCraft:Player_Random.obj
 0002:00006704       ??_R3Player_Random@SparCraft@@8 00466704     SparCraft:Player_Random.obj
 0002:00006714       ??_R2Player_AttackDPS@SparCraft@@8 00466714     SparCraft:Player_AttackDPS.obj
 0002:00006720       ??_R4Player_AttackDPS@SparCraft@@6B@ 00466720     SparCraft:Player_AttackDPS.obj
 0002:00006734       ??_R3Player_AttackDPS@SparCraft@@8 00466734     SparCraft:Player_AttackDPS.obj
 0002:00006744       ??_R1A@?0A@EA@Player_AttackDPS@SparCraft@@8 00466744     SparCraft:Player_AttackDPS.obj
 0002:00006760       ??_R4Player_Kiter@SparCraft@@6B@ 00466760     SparCraft:Player_Kiter.obj
 0002:00006774       ??_R2Player_Kiter@SparCraft@@8 00466774     SparCraft:Player_Kiter.obj
 0002:00006780       ??_R3Player_Kiter@SparCraft@@8 00466780     SparCraft:Player_Kiter.obj
 0002:00006790       ??_R1A@?0A@EA@Player_Kiter@SparCraft@@8 00466790     SparCraft:Player_Kiter.obj
 0002:000067ac       ??_R2Player_UCT@SparCraft@@8 004667ac     SparCraft:Player_UCT.obj
 0002:000067b8       ??_R3Player_UCT@SparCraft@@8 004667b8     SparCraft:Player_UCT.obj
 0002:000067c8       ??_R4Player_UCT@SparCraft@@6B@ 004667c8     SparCraft:Player_UCT.obj
 0002:000067dc       ??_R1A@?0A@EA@Player_UCT@SparCraft@@8 004667dc     SparCraft:Player_UCT.obj
 0002:000067f8       ??_R1A@?0A@EA@Player_NOKDPS@SparCraft@@8 004667f8     SparCraft:Player_NOKDPS.obj
 0002:00006814       ??_R4Player_NOKDPS@SparCraft@@6B@ 00466814     SparCraft:Player_NOKDPS.obj
 0002:00006828       ??_R3Player_NOKDPS@SparCraft@@8 00466828     SparCraft:Player_NOKDPS.obj
 0002:00006838       ??_R2Player_NOKDPS@SparCraft@@8 00466838     SparCraft:Player_NOKDPS.obj
 0002:00006844       ??_R2PixelPerfectGLFont@@8 00466844     SparCraft:glfont.obj
 0002:00006850       ??_R4GLFontBase@@6B@       00466850     SparCraft:glfont.obj
 0002:00006864       ??_R1A@?0A@EA@GLFontBase@@8 00466864     SparCraft:glfont.obj
 0002:00006880       ??_R4PixelPerfectGLFont@@6B@ 00466880     SparCraft:glfont.obj
 0002:00006894       ??_R3PixelPerfectGLFont@@8 00466894     SparCraft:glfont.obj
 0002:000068a4       ??_R3GLFontBase@@8         004668a4     SparCraft:glfont.obj
 0002:000068b4       ??_R2GLFontBase@@8         004668b4     SparCraft:glfont.obj
 0002:000068bc       ??_R1A@?0A@EA@PixelPerfectGLFont@@8 004668bc     SparCraft:glfont.obj
 0002:000068e0       ___safe_se_handler_table   004668e0     <linker-defined>
 0002:00006bd4       ___rtc_iaa                 00466bd4     MSVCRT:initsect.obj
 0002:00006bd8       ___rtc_izz                 00466bd8     MSVCRT:initsect.obj
 0002:00006bdc       ___rtc_taa                 00466bdc     MSVCRT:initsect.obj
 0002:00006be0       ___rtc_tzz                 00466be0     MSVCRT:initsect.obj
 0002:00006cc4       __TI2?AVbad_cast@std@@     00466cc4     SearchExperiment.obj
 0002:00006cd4       __CT??_R0?AVexception@std@@@8??0exception@std@@QAE@ABV01@@Z12 00466cd4     SearchExperiment.obj
 0002:00006cf0       __CT??_R0?AVbad_cast@std@@@8??0bad_cast@std@@QAE@ABV01@@Z12 00466cf0     SearchExperiment.obj
 0002:00006d0c       __CTA2?AVbad_cast@std@@    00466d0c     SearchExperiment.obj
 0002:00006d18       __CT??_R0H@84              00466d18     SparCraft:Common.obj
 0002:00006d34       __TI1H                     00466d34     SparCraft:Common.obj
 0002:00006d44       __CTA1H                    00466d44     SparCraft:Common.obj
 0002:00006d4c       __TI2?AVruntime_error@std@@ 00466d4c     SparCraft:Display.obj
 0002:00006d5c       __CTA2?AVruntime_error@std@@ 00466d5c     SparCraft:Display.obj
 0002:00006d68       __CT??_R0?AVruntime_error@std@@@8??0runtime_error@std@@QAE@ABV01@@Z12 00466d68     SparCraft:Display.obj
 0002:0000aae0       __IMPORT_DESCRIPTOR_SDL    0046aae0     SDL:SDL.dll
 0002:0000aaf4       __IMPORT_DESCRIPTOR_OPENGL32 0046aaf4     opengl32:OPENGL32.dll
 0002:0000ab08       __IMPORT_DESCRIPTOR_SDL_image 0046ab08     SDL_image:SDL_image.dll
 0002:0000ab1c       __IMPORT_DESCRIPTOR_KERNEL32 0046ab1c     kernel32:KERNEL32.dll
 0002:0000ab30       __IMPORT_DESCRIPTOR_MSVCP110 0046ab30     msvcprt:MSVCP110.dll
 0002:0000ab44       __IMPORT_DESCRIPTOR_MSVCR110 0046ab44     MSVCRT:MSVCR110.dll
 0002:0000ab58       __NULL_IMPORT_DESCRIPTOR   0046ab58     SDL:SDL.dll
 0003:00000000       ??_R0?AVtype_info@@@8      0046d000     MSVCRT:ti_inst.obj
 0003:00000018       ___security_cookie         0046d018     MSVCRT:gs_cookie.obj
 0003:0000001c       ___security_cookie_complement 0046d01c     MSVCRT:gs_cookie.obj
 0003:00000020       ___defaultmatherr          0046d020     MSVCRT:merr.obj
 0003:00000024       ___globallocalestatus      0046d024     MSVCRT:xthdloc.obj
 0003:00000028       ___native_dllmain_reason   0046d028     MSVCRT:natstart.obj
 0003:00000030       ??_R0?AV_Iostream_error_category@std@@@8 0046d030     main.obj
 0003:0000005c       ??_R0?AV_System_error_category@std@@@8 0046d05c     main.obj
 0003:00000088       ??_R0?AVerror_category@std@@@8 0046d088     main.obj
 0003:000000ac       ??_R0H@8                   0046d0ac     main.obj
 0003:000000b8       ??_R0?AV_Generic_error_category@std@@@8 0046d0b8     main.obj
 0003:000000e4       ??_R0?AV?$basic_iostream@DU?$char_traits@D@std@@@std@@@8 0046d0e4     SearchExperiment.obj
 0003:00000120       ??_R0?AVbad_cast@std@@@8   0046d120     SearchExperiment.obj
 0003:00000140       ??_R0?AV?$sp_counted_impl_p@VPlayer_PortfolioGreedySearch@SparCraft@@@detail@boost@@@8 0046d140     SearchExperiment.obj
 0003:0000019c       ??_R0?AVsp_counted_base@detail@boost@@@8 0046d19c     SearchExperiment.obj
 0003:000001c8       ??_R0?AV?$sp_counted_impl_p@VPlayer_KiterDPS@SparCraft@@@detail@boost@@@8 0046d1c8     SearchExperiment.obj
 0003:00000218       ??_R0?AV?$sp_counted_impl_p@VPlayer_AttackClosest@SparCraft@@@detail@boost@@@8 0046d218     SearchExperiment.obj
 0003:00000270       ??_R0?AV?$basic_stringstream@DU?$char_traits@D@std@@V?$allocator@D@2@@std@@@8 0046d270     SearchExperiment.obj
 0003:000002c0       ??_R0?AVexception@std@@@8  0046d2c0     SearchExperiment.obj
 0003:000002dc       ??_R0?AV?$basic_istream@DU?$char_traits@D@std@@@std@@@8 0046d2dc     SearchExperiment.obj
 0003:00000318       ??_R0?AVios_base@std@@@8   0046d318     SearchExperiment.obj
 0003:00000338       ??_R0?AV?$sp_counted_impl_p@VPlayer_Kiter_NOKDPS@SparCraft@@@detail@boost@@@8 0046d338     SearchExperiment.obj
 0003:00000388       ??_R0?AV?$sp_counted_impl_p@VPlayer_IUCT@SparCraft@@@detail@boost@@@8 0046d388     SearchExperiment.obj
 0003:000003d0       ??_R0?AV?$sp_counted_impl_p@VPlayer_UCT@SparCraft@@@detail@boost@@@8 0046d3d0     SearchExperiment.obj
 0003:00000418       ??_R0?AV?$sp_counted_impl_p@VPlayer_Kiter@SparCraft@@@detail@boost@@@8 0046d418     SearchExperiment.obj
 0003:00000468       ??_R0?AV?$sp_counted_impl_p@VTranspositionTable@SparCraft@@@detail@boost@@@8 0046d468     SearchExperiment.obj
 0003:000004b8       ??_R0?AV?$basic_filebuf@DU?$char_traits@D@std@@@std@@@8 0046d4b8     SearchExperiment.obj
 0003:000004f4       ??_R0?AV?$basic_ios@DU?$char_traits@D@std@@@std@@@8 0046d4f4     SearchExperiment.obj
 0003:00000530       ??_R0?AV?$sp_counted_impl_p@VPlayer_AttackWeakest@SparCraft@@@detail@boost@@@8 0046d530     SearchExperiment.obj
 0003:00000588       ??_R0?AV?$sp_counted_impl_p@VPlayer_Random@SparCraft@@@detail@boost@@@8 0046d588     SearchExperiment.obj
 0003:000005d8       ??_R0?AV?$sp_counted_impl_p@VPlayer_NOKDPS@SparCraft@@@detail@boost@@@8 0046d5d8     SearchExperiment.obj
 0003:00000624       ??_R0?AV?$basic_ifstream@DU?$char_traits@D@std@@@std@@@8 0046d624     SearchExperiment.obj
 0003:00000660       ??_R0?AV?$sp_counted_impl_p@VPlayer_AttackDPS@SparCraft@@@detail@boost@@@8 0046d660     SearchExperiment.obj
 0003:000006b0       ??_R0?AV?$basic_stringbuf@DU?$char_traits@D@std@@V?$allocator@D@2@@std@@@8 0046d6b0     SearchExperiment.obj
 0003:00000700       ??_R0?AV?$_Iosb@H@std@@@8  0046d700     SearchExperiment.obj
 0003:00000720       ??_R0?AV?$basic_istringstream@DU?$char_traits@D@std@@V?$allocator@D@2@@std@@@8 0046d720     SearchExperiment.obj
 0003:00000774       ??_R0?AVPlayer@SparCraft@@@8 0046d774     SearchExperiment.obj
 0003:00000798       ??_R0?AV?$sp_counted_impl_p@VPlayer_Cluster@SparCraft@@@detail@boost@@@8 0046d798     SearchExperiment.obj
 0003:000007e4       ??_R0?AV?$basic_ofstream@DU?$char_traits@D@std@@@std@@@8 0046d7e4     SearchExperiment.obj
 0003:00000820       ??_R0?AV?$basic_ostream@DU?$char_traits@D@std@@@std@@@8 0046d820     SearchExperiment.obj
 0003:00000860       ??_R0?AV?$sp_counted_impl_p@VPlayer_AlphaBeta@SparCraft@@@detail@boost@@@8 0046d860     SearchExperiment.obj
 0003:000008b0       ??_R0?AV?$basic_streambuf@DU?$char_traits@D@std@@@std@@@8 0046d8b0     SearchExperiment.obj
 0003:000008ec       ??_R0?AVPlayer_AlphaBeta@SparCraft@@@8 0046d8ec     SearchExperiment.obj
 0003:00000918       ??_R0?AVPlayer_AttackClosest@SparCraft@@@8 0046d918     SparCraft:Player_AttackClosest.obj
 0003:00000948       ??_R0?AVPlayer_Kiter_NOKDPS@SparCraft@@@8 0046d948     SparCraft:Player_Kiter_NOKDPS.obj
 0003:00000974       ??_R0?AVPlayer_AttackWeakest@SparCraft@@@8 0046d974     SparCraft:Player_AttackWeakest.obj
 0003:000009a4       ??_R0?AVPlayer_KiterDPS@SparCraft@@@8 0046d9a4     SparCraft:Player_KiterDPS.obj
 0003:000009cc       ??_R0?AVPlayer_IUCT@SparCraft@@@8 0046d9cc     SparCraft:Player_IUCT.obj
 0003:000009f0       ??_R0?AVruntime_error@std@@@8 0046d9f0     SparCraft:Display.obj
 0003:00000a10       ??_R0?AVPlayer_Cluster@SparCraft@@@8 0046da10     SparCraft:Player_Cluster.obj
 0003:00000a38       ??_R0?AVPlayer_PortfolioGreedySearch@SparCraft@@@8 0046da38     SparCraft:Player_PortfolioGreedySearch.obj
 0003:00000a70       ??_R0?AVPlayer_Random@SparCraft@@@8 0046da70     SparCraft:Player_Random.obj
 0003:00000a98       ??_R0?AVPlayer_AttackDPS@SparCraft@@@8 0046da98     SparCraft:Player_AttackDPS.obj
 0003:00000ac4       ??_R0?AVPlayer_Kiter@SparCraft@@@8 0046dac4     SparCraft:Player_Kiter.obj
 0003:00000aec       ??_R0?AVPlayer_UCT@SparCraft@@@8 0046daec     SparCraft:Game.obj
 0003:00000b10       ??_R0?AVPlayer_NOKDPS@SparCraft@@@8 0046db10     SparCraft:Player_NOKDPS.obj
 0003:00000b38       ??_R0?AVPixelPerfectGLFont@@@8 0046db38     SparCraft:glfont.obj
 0003:00000b5c       ??_R0?AVGLFontBase@@@8     0046db5c     SparCraft:glfont.obj
 0003:00000b78       ?initializingUnitType@BWAPI@@3_NA 0046db78     BWAPI:UnitType.obj
 0003:00000b79       ?initializingUpgradeType@BWAPI@@3_NA 0046db79     BWAPI:UpgradeType.obj
 0003:00000b7a       ?initializingTechType@BWAPI@@3_NA 0046db7a     BWAPI:TechType.obj
 0003:00000b7b       ?initializingWeaponType@BWAPI@@3_NA 0046db7b     BWAPI:WeaponType.obj
 0003:00000b7c       ?initializingUnitSizeType@BWAPI@@3_NA 0046db7c     BWAPI:UnitSizeType.obj
 0003:00000b7d       ?initializingDamageType@BWAPI@@3_NA 0046db7d     BWAPI:DamageType.obj
 0003:00000b7e       ?initializingRace@BWAPI@@3_NA 0046db7e     BWAPI:Race.obj
 0003:00000b7f       ?initializingGameType@BWAPI@@3_NA 0046db7f     BWAPI:GameType.obj
 0003:00000b80       ?initializingError@BWAPI@@3_NA 0046db80     BWAPI:Error.obj
 0003:00000b81       ?initializingUnitCommandType@BWAPI@@3_NA 0046db81     BWAPI:UnitCommandType.obj
 0003:00000b82       ?initializingPlayerType@BWAPI@@3_NA 0046db82     BWAPI:PlayerType.obj
 0003:00000b83       ?initializingBulletType@BWAPI@@3_NA 0046db83     BWAPI:BulletType.obj
 0003:00000b84       ?initializingExplosionType@BWAPI@@3_NA 0046db84     BWAPI:ExplosionType.obj
 0003:00000b85       ?initializingOrder@BWAPI@@3_NA 0046db85     BWAPI:Order.obj
 0003:00000b88       ?palette@BWAPI@@3PAHA      0046db88     BWAPI:Color.obj
 0003:00000f88       ?indices@?A0x6062c124@boost@@3U?$index_gen@$0A@$0A@@multi_array@detail@2@A 0046df88     main.obj
 0003:00000f98       ?indices@?A0x9dcb929c@boost@@3U?$index_gen@$0A@$0A@@multi_array@detail@2@A 0046df98     SearchExperiment.obj
 0003:00000fa8       ?indices@?A0xe66e7fc2@boost@@3U?$index_gen@$0A@$0A@@multi_array@detail@2@A 0046dfa8     TutorialCode.obj
 0003:00000fb8       ?indices@?A0x6ab99795@boost@@3U?$index_gen@$0A@$0A@@multi_array@detail@2@A 0046dfb8     SparCraft:SparCraft.obj
 0003:00000fc8       ?indices@?A0x9fd664bb@boost@@3U?$index_gen@$0A@$0A@@multi_array@detail@2@A 0046dfc8     SparCraft:Player_AlphaBeta.obj
 0003:00000fd8       ?indices@?A0x928e63cf@boost@@3U?$index_gen@$0A@$0A@@multi_array@detail@2@A 0046dfd8     SparCraft:GameState.obj
 0003:00000fe8       ?indices@?A0xa2914938@boost@@3U?$index_gen@$0A@$0A@@multi_array@detail@2@A 0046dfe8     SparCraft:Player_IUCT.obj
 0003:00000ff8       ?font@@3VPixelPerfectGLFont@@A 0046dff8     SparCraft:Display.obj
 0003:00001018       ?indices@?A0x1b78a043@boost@@3U?$index_gen@$0A@$0A@@multi_array@detail@2@A 0046e018     SparCraft:Player_PortfolioGreedySearch.obj
 0003:00001028       ?indices@?A0x6bc49f6a@boost@@3U?$index_gen@$0A@$0A@@multi_array@detail@2@A 0046e028     SparCraft:Game.obj
 0003:00001038       ?indices@?A0x9249ce0f@boost@@3U?$index_gen@$0A@$0A@@multi_array@detail@2@A 0046e038     SparCraft:Player_UCT.obj
 0003:00001048       ?indices@?A0x99c9670f@boost@@3U?$index_gen@$0A@$0A@@multi_array@detail@2@A 0046e048     SparCraft:AlphaBetaSearch.obj
 0003:00001058       ?indices@?A0x537db9e9@boost@@3U?$index_gen@$0A@$0A@@multi_array@detail@2@A 0046e058     SparCraft:AllPlayers.obj
 0003:00001068       ?indices@?A0x8d5d7506@boost@@3U?$index_gen@$0A@$0A@@multi_array@detail@2@A 0046e068     SparCraft:IUCTSearch.obj
 0003:00001078       ?indices@?A0xa288a27d@boost@@3U?$index_gen@$0A@$0A@@multi_array@detail@2@A 0046e078     SparCraft:PortfolioGreedySearch.obj
 0003:00001088       ?indices@?A0x666d5aba@boost@@3U?$index_gen@$0A@$0A@@multi_array@detail@2@A 0046e088     SparCraft:UnitScriptData.obj
 0003:00001098       ?indices@?A0x82c88667@boost@@3U?$index_gen@$0A@$0A@@multi_array@detail@2@A 0046e098     SparCraft:UCTSearch.obj
 0003:000010a8       ?Hero_Artanis@UnitTypes@BWAPI@@3VUnitType@2@B 0046e0a8     BWAPI:UnitType.obj
 0003:000010ac       ?Terran_Academy@UnitTypes@BWAPI@@3VUnitType@2@B 0046e0ac     BWAPI:UnitType.obj
 0003:000010b0       ?Protoss_Nexus@UnitTypes@BWAPI@@3VUnitType@2@B 0046e0b0     BWAPI:UnitType.obj
 0003:000010b4       ?Powerup_Psi_Emitter@UnitTypes@BWAPI@@3VUnitType@2@B 0046e0b4     BWAPI:UnitType.obj
 0003:000010b8       ?Hero_Jim_Raynor_Marine@UnitTypes@BWAPI@@3VUnitType@2@B 0046e0b8     BWAPI:UnitType.obj
 0003:000010bc       ?Hero_Torrasque@UnitTypes@BWAPI@@3VUnitType@2@B 0046e0bc     BWAPI:UnitType.obj
 0003:000010c0       ?Special_XelNaga_Temple@UnitTypes@BWAPI@@3VUnitType@2@B 0046e0c0     BWAPI:UnitType.obj
 0003:000010c4       ?Powerup_Uraj_Crystal@UnitTypes@BWAPI@@3VUnitType@2@B 0046e0c4     BWAPI:UnitType.obj
 0003:000010c8       ?Hero_Gerard_DuGalle@UnitTypes@BWAPI@@3VUnitType@2@B 0046e0c8     BWAPI:UnitType.obj
 0003:000010cc       ?Special_Terran_Beacon@UnitTypes@BWAPI@@3VUnitType@2@B 0046e0cc     BWAPI:UnitType.obj
 0003:000010d0       ?Hero_Alan_Schezar@UnitTypes@BWAPI@@3VUnitType@2@B 0046e0d0     BWAPI:UnitType.obj
 0003:000010d4       ?Terran_Nuclear_Silo@UnitTypes@BWAPI@@3VUnitType@2@B 0046e0d4     BWAPI:UnitType.obj
 0003:000010d8       ?Hero_Samir_Duran@UnitTypes@BWAPI@@3VUnitType@2@B 0046e0d8     BWAPI:UnitType.obj
 0003:000010dc       ?Zerg_Hive@UnitTypes@BWAPI@@3VUnitType@2@B 0046e0dc     BWAPI:UnitType.obj
 0003:000010e0       ?Terran_Nuclear_Missile@UnitTypes@BWAPI@@3VUnitType@2@B 0046e0e0     BWAPI:UnitType.obj
 0003:000010e4       ?Hero_Infested_Duran@UnitTypes@BWAPI@@3VUnitType@2@B 0046e0e4     BWAPI:UnitType.obj
 0003:000010e8       ?Hero_Yggdrasill@UnitTypes@BWAPI@@3VUnitType@2@B 0046e0e8     BWAPI:UnitType.obj
 0003:000010ec       ?Hero_Danimoth@UnitTypes@BWAPI@@3VUnitType@2@B 0046e0ec     BWAPI:UnitType.obj
 0003:000010f0       ?Hero_Hyperion@UnitTypes@BWAPI@@3VUnitType@2@B 0046e0f0     BWAPI:UnitType.obj
 0003:000010f4       ?Protoss_Arbiter_Tribunal@UnitTypes@BWAPI@@3VUnitType@2@B 0046e0f4     BWAPI:UnitType.obj
 0003:000010f8       ?Critter_Ragnasaur@UnitTypes@BWAPI@@3VUnitType@2@B 0046e0f8     BWAPI:UnitType.obj
 0003:000010fc       ?Hero_Alexei_Stukov@UnitTypes@BWAPI@@3VUnitType@2@B 0046e0fc     BWAPI:UnitType.obj
 0003:00001100       ?Hero_Zeratul@UnitTypes@BWAPI@@3VUnitType@2@B 0046e100     BWAPI:UnitType.obj
 0003:00001104       ?Hero_Unclean_One@UnitTypes@BWAPI@@3VUnitType@2@B 0046e104     BWAPI:UnitType.obj
 0003:00001108       ?Protoss_Interceptor@UnitTypes@BWAPI@@3VUnitType@2@B 0046e108     BWAPI:UnitType.obj
 0003:0000110c       ?Protoss_Fleet_Beacon@UnitTypes@BWAPI@@3VUnitType@2@B 0046e10c     BWAPI:UnitType.obj
 0003:00001110       ?Special_Zerg_Beacon@UnitTypes@BWAPI@@3VUnitType@2@B 0046e110     BWAPI:UnitType.obj
 0003:00001114       ?Powerup_Flag@UnitTypes@BWAPI@@3VUnitType@2@B 0046e114     BWAPI:UnitType.obj
 0003:00001118       ?Zerg_Nydus_Canal@UnitTypes@BWAPI@@3VUnitType@2@B 0046e118     BWAPI:UnitType.obj
 0003:0000111c       ?Hero_Fenix_Zealot@UnitTypes@BWAPI@@3VUnitType@2@B 0046e11c     BWAPI:UnitType.obj
 0003:00001120       ?Spell_Disruption_Web@UnitTypes@BWAPI@@3VUnitType@2@B 0046e120     BWAPI:UnitType.obj
 0003:00001124       ?Special_Zerg_Flag_Beacon@UnitTypes@BWAPI@@3VUnitType@2@B 0046e124     BWAPI:UnitType.obj
 0003:00001128       ?Special_Cerebrate_Daggoth@UnitTypes@BWAPI@@3VUnitType@2@B 0046e128     BWAPI:UnitType.obj
 0003:0000112c       ?Zerg_Hydralisk_Den@UnitTypes@BWAPI@@3VUnitType@2@B 0046e12c     BWAPI:UnitType.obj
 0003:00001130       ?Zerg_Infested_Terran@UnitTypes@BWAPI@@3VUnitType@2@B 0046e130     BWAPI:UnitType.obj
 0003:00001134       ?Terran_Dropship@UnitTypes@BWAPI@@3VUnitType@2@B 0046e134     BWAPI:UnitType.obj
 0003:00001138       ?Terran_Factory@UnitTypes@BWAPI@@3VUnitType@2@B 0046e138     BWAPI:UnitType.obj
 0003:0000113c       ?Zerg_Queens_Nest@UnitTypes@BWAPI@@3VUnitType@2@B 0046e13c     BWAPI:UnitType.obj
 0003:00001140       ?Zerg_Spire@UnitTypes@BWAPI@@3VUnitType@2@B 0046e140     BWAPI:UnitType.obj
 0003:00001144       ?Resource_Mineral_Field@UnitTypes@BWAPI@@3VUnitType@2@B 0046e144     BWAPI:UnitType.obj
 0003:00001148       ?Hero_Hunter_Killer@UnitTypes@BWAPI@@3VUnitType@2@B 0046e148     BWAPI:UnitType.obj
 0003:0000114c       ?Protoss_Shield_Battery@UnitTypes@BWAPI@@3VUnitType@2@B 0046e14c     BWAPI:UnitType.obj
 0003:00001150       ?Zerg_Lurker_Egg@UnitTypes@BWAPI@@3VUnitType@2@B 0046e150     BWAPI:UnitType.obj
 0003:00001154       ?Critter_Scantid@UnitTypes@BWAPI@@3VUnitType@2@B 0046e154     BWAPI:UnitType.obj
 0003:00001158       ?Terran_Starport@UnitTypes@BWAPI@@3VUnitType@2@B 0046e158     BWAPI:UnitType.obj
 0003:0000115c       ?Critter_Kakaru@UnitTypes@BWAPI@@3VUnitType@2@B 0046e15c     BWAPI:UnitType.obj
 0003:00001160       ?Terran_Science_Facility@UnitTypes@BWAPI@@3VUnitType@2@B 0046e160     BWAPI:UnitType.obj
 0003:00001164       ?Hero_Infested_Kerrigan@UnitTypes@BWAPI@@3VUnitType@2@B 0046e164     BWAPI:UnitType.obj
 0003:00001168       ?Terran_Armory@UnitTypes@BWAPI@@3VUnitType@2@B 0046e168     BWAPI:UnitType.obj
 0003:0000116c       ?Zerg_Evolution_Chamber@UnitTypes@BWAPI@@3VUnitType@2@B 0046e16c     BWAPI:UnitType.obj
 0003:00001170       ?Zerg_Extractor@UnitTypes@BWAPI@@3VUnitType@2@B 0046e170     BWAPI:UnitType.obj
 0003:00001174       ?Special_Mature_Chrysalis@UnitTypes@BWAPI@@3VUnitType@2@B 0046e174     BWAPI:UnitType.obj
 0003:00001178       ?Protoss_Cybernetics_Core@UnitTypes@BWAPI@@3VUnitType@2@B 0046e178     BWAPI:UnitType.obj
 0003:0000117c       ?Hero_Dark_Templar@UnitTypes@BWAPI@@3VUnitType@2@B 0046e17c     BWAPI:UnitType.obj
 0003:00001180       ?Powerup_Khaydarin_Crystal@UnitTypes@BWAPI@@3VUnitType@2@B 0046e180     BWAPI:UnitType.obj
 0003:00001184       ?Special_Ion_Cannon@UnitTypes@BWAPI@@3VUnitType@2@B 0046e184     BWAPI:UnitType.obj
 0003:00001188       ?Hero_Edmund_Duke_Tank_Mode@UnitTypes@BWAPI@@3VUnitType@2@B 0046e188     BWAPI:UnitType.obj
 0003:0000118c       ?Terran_Refinery@UnitTypes@BWAPI@@3VUnitType@2@B 0046e18c     BWAPI:UnitType.obj
 0003:00001190       ?Hero_Warbringer@UnitTypes@BWAPI@@3VUnitType@2@B 0046e190     BWAPI:UnitType.obj
 0003:00001194       ?Zerg_Larva@UnitTypes@BWAPI@@3VUnitType@2@B 0046e194     BWAPI:UnitType.obj
 0003:00001198       ?Protoss_Stargate@UnitTypes@BWAPI@@3VUnitType@2@B 0046e198     BWAPI:UnitType.obj
 0003:0000119c       ?Terran_Command_Center@UnitTypes@BWAPI@@3VUnitType@2@B 0046e19c     BWAPI:UnitType.obj
 0003:000011a0       ?Hero_Tassadar_Zeratul_Archon@UnitTypes@BWAPI@@3VUnitType@2@B 0046e1a0     BWAPI:UnitType.obj
 0003:000011a4       ?Hero_Tom_Kazansky@UnitTypes@BWAPI@@3VUnitType@2@B 0046e1a4     BWAPI:UnitType.obj
 0003:000011a8       ?Zerg_Guardian@UnitTypes@BWAPI@@3VUnitType@2@B 0046e1a8     BWAPI:UnitType.obj
 0003:000011ac       ?Zerg_Cocoon@UnitTypes@BWAPI@@3VUnitType@2@B 0046e1ac     BWAPI:UnitType.obj
 0003:000011b0       ?Powerup_Khalis_Crystal@UnitTypes@BWAPI@@3VUnitType@2@B 0046e1b0     BWAPI:UnitType.obj
 0003:000011b4       ?Special_Cerebrate@UnitTypes@BWAPI@@3VUnitType@2@B 0046e1b4     BWAPI:UnitType.obj
 0003:000011b8       ?Zerg_Infested_Command_Center@UnitTypes@BWAPI@@3VUnitType@2@B 0046e1b8     BWAPI:UnitType.obj
 0003:000011bc       ?Special_Warp_Gate@UnitTypes@BWAPI@@3VUnitType@2@B 0046e1bc     BWAPI:UnitType.obj
 0003:000011c0       ?Protoss_Forge@UnitTypes@BWAPI@@3VUnitType@2@B 0046e1c0     BWAPI:UnitType.obj
 0003:000011c4       ?Powerup_Young_Chrysalis@UnitTypes@BWAPI@@3VUnitType@2@B 0046e1c4     BWAPI:UnitType.obj
 0003:000011c8       ?Zerg_Hatchery@UnitTypes@BWAPI@@3VUnitType@2@B 0046e1c8     BWAPI:UnitType.obj
 0003:000011cc       ?Special_Protoss_Flag_Beacon@UnitTypes@BWAPI@@3VUnitType@2@B 0046e1cc     BWAPI:UnitType.obj
 0003:000011d0       ?Protoss_Scarab@UnitTypes@BWAPI@@3VUnitType@2@B 0046e1d0     BWAPI:UnitType.obj
 0003:000011d4       ?Critter_Ursadon@UnitTypes@BWAPI@@3VUnitType@2@B 0046e1d4     BWAPI:UnitType.obj
 0003:000011d8       ?Terran_Engineering_Bay@UnitTypes@BWAPI@@3VUnitType@2@B 0046e1d8     BWAPI:UnitType.obj
 0003:000011dc       ?Zerg_Spore_Colony@UnitTypes@BWAPI@@3VUnitType@2@B 0046e1dc     BWAPI:UnitType.obj
 0003:000011e0       ?Hero_Devouring_One@UnitTypes@BWAPI@@3VUnitType@2@B 0046e1e0     BWAPI:UnitType.obj
 0003:000011e4       ?Terran_Physics_Lab@UnitTypes@BWAPI@@3VUnitType@2@B 0046e1e4     BWAPI:UnitType.obj
 0003:000011e8       ?Zerg_Greater_Spire@UnitTypes@BWAPI@@3VUnitType@2@B 0046e1e8     BWAPI:UnitType.obj
 0003:000011ec       ?Terran_Bunker@UnitTypes@BWAPI@@3VUnitType@2@B 0046e1ec     BWAPI:UnitType.obj
 0003:000011f0       ?Special_Overmind_With_Shell@UnitTypes@BWAPI@@3VUnitType@2@B 0046e1f0     BWAPI:UnitType.obj
 0003:000011f4       ?Protoss_Assimilator@UnitTypes@BWAPI@@3VUnitType@2@B 0046e1f4     BWAPI:UnitType.obj
 0003:000011f8       ?Hero_Raszagal@UnitTypes@BWAPI@@3VUnitType@2@B 0046e1f8     BWAPI:UnitType.obj
 0003:000011fc       ?Hero_Magellan@UnitTypes@BWAPI@@3VUnitType@2@B 0046e1fc     BWAPI:UnitType.obj
 0003:00001200       ?Special_Khaydarin_Crystal_Form@UnitTypes@BWAPI@@3VUnitType@2@B 0046e200     BWAPI:UnitType.obj
 0003:00001204       ?Zerg_Creep_Colony@UnitTypes@BWAPI@@3VUnitType@2@B 0046e204     BWAPI:UnitType.obj
 0003:00001208       ?Protoss_Templar_Archives@UnitTypes@BWAPI@@3VUnitType@2@B 0046e208     BWAPI:UnitType.obj
 0003:0000120c       ?Protoss_Observatory@UnitTypes@BWAPI@@3VUnitType@2@B 0046e20c     BWAPI:UnitType.obj
 0003:00001210       ?Protoss_Gateway@UnitTypes@BWAPI@@3VUnitType@2@B 0046e210     BWAPI:UnitType.obj
 0003:00001214       ?Powerup_Data_Disk@UnitTypes@BWAPI@@3VUnitType@2@B 0046e214     BWAPI:UnitType.obj
 0003:00001218       ?Zerg_Lair@UnitTypes@BWAPI@@3VUnitType@2@B 0046e218     BWAPI:UnitType.obj
 0003:0000121c       ?Special_Stasis_Cell_Prison@UnitTypes@BWAPI@@3VUnitType@2@B 0046e21c     BWAPI:UnitType.obj
 0003:00001220       ?Zerg_Spawning_Pool@UnitTypes@BWAPI@@3VUnitType@2@B 0046e220     BWAPI:UnitType.obj
 0003:00001224       ?Zerg_Ultralisk_Cavern@UnitTypes@BWAPI@@3VUnitType@2@B 0046e224     BWAPI:UnitType.obj
 0003:00001228       ?Hero_Fenix_Dragoon@UnitTypes@BWAPI@@3VUnitType@2@B 0046e228     BWAPI:UnitType.obj
 0003:0000122c       ?Protoss_Robotics_Support_Bay@UnitTypes@BWAPI@@3VUnitType@2@B 0046e22c     BWAPI:UnitType.obj
 0003:00001230       ?Protoss_Robotics_Facility@UnitTypes@BWAPI@@3VUnitType@2@B 0046e230     BWAPI:UnitType.obj
 0003:00001234       ?Critter_Rhynadon@UnitTypes@BWAPI@@3VUnitType@2@B 0046e234     BWAPI:UnitType.obj
 0003:00001238       ?Special_Overmind_Cocoon@UnitTypes@BWAPI@@3VUnitType@2@B 0046e238     BWAPI:UnitType.obj
 0003:0000123c       ?Special_Overmind@UnitTypes@BWAPI@@3VUnitType@2@B 0046e23c     BWAPI:UnitType.obj
 0003:00001240       ?Critter_Bengalaas@UnitTypes@BWAPI@@3VUnitType@2@B 0046e240     BWAPI:UnitType.obj
 0003:00001244       ?Hero_Gui_Montag@UnitTypes@BWAPI@@3VUnitType@2@B 0046e244     BWAPI:UnitType.obj
 0003:00001248       ?Hero_Tassadar@UnitTypes@BWAPI@@3VUnitType@2@B 0046e248     BWAPI:UnitType.obj
 0003:0000124c       ?Hero_Matriarch@UnitTypes@BWAPI@@3VUnitType@2@B 0046e24c     BWAPI:UnitType.obj
 0003:00001250       ?Hero_Gantrithor@UnitTypes@BWAPI@@3VUnitType@2@B 0046e250     BWAPI:UnitType.obj
 0003:00001254       ?Spell_Dark_Swarm@UnitTypes@BWAPI@@3VUnitType@2@B 0046e254     BWAPI:UnitType.obj
 0003:00001258       ?Hero_Arcturus_Mengsk@UnitTypes@BWAPI@@3VUnitType@2@B 0046e258     BWAPI:UnitType.obj
 0003:0000125c       ?Terran_Machine_Shop@UnitTypes@BWAPI@@3VUnitType@2@B 0046e25c     BWAPI:UnitType.obj
 0003:00001260       ?Special_Crashed_Norad_II@UnitTypes@BWAPI@@3VUnitType@2@B 0046e260     BWAPI:UnitType.obj
 0003:00001264       ?Hero_Edmund_Duke_Siege_Mode@UnitTypes@BWAPI@@3VUnitType@2@B 0046e264     BWAPI:UnitType.obj
 0003:00001268       ?Terran_Supply_Depot@UnitTypes@BWAPI@@3VUnitType@2@B 0046e268     BWAPI:UnitType.obj
 0003:0000126c       ?Hero_Norad_II@UnitTypes@BWAPI@@3VUnitType@2@B 0046e26c     BWAPI:UnitType.obj
 0003:00001270       ?Terran_Civilian@UnitTypes@BWAPI@@3VUnitType@2@B 0046e270     BWAPI:UnitType.obj
 0003:00001274       ?Hero_Kukulza_Mutalisk@UnitTypes@BWAPI@@3VUnitType@2@B 0046e274     BWAPI:UnitType.obj
 0003:00001278       ?Zerg_Broodling@UnitTypes@BWAPI@@3VUnitType@2@B 0046e278     BWAPI:UnitType.obj
 0003:0000127c       ?Hero_Jim_Raynor_Vulture@UnitTypes@BWAPI@@3VUnitType@2@B 0046e27c     BWAPI:UnitType.obj
 0003:00001280       ?Special_Power_Generator@UnitTypes@BWAPI@@3VUnitType@2@B 0046e280     BWAPI:UnitType.obj
 0003:00001284       ?Hero_Sarah_Kerrigan@UnitTypes@BWAPI@@3VUnitType@2@B 0046e284     BWAPI:UnitType.obj
 0003:00001288       ?Special_Protoss_Temple@UnitTypes@BWAPI@@3VUnitType@2@B 0046e288     BWAPI:UnitType.obj
 0003:0000128c       ?Hero_Aldaris@UnitTypes@BWAPI@@3VUnitType@2@B 0046e28c     BWAPI:UnitType.obj
 0003:00001290       ?Terran_Control_Tower@UnitTypes@BWAPI@@3VUnitType@2@B 0046e290     BWAPI:UnitType.obj
 0003:00001294       ?Special_Protoss_Beacon@UnitTypes@BWAPI@@3VUnitType@2@B 0046e294     BWAPI:UnitType.obj
 0003:00001298       ?Terran_Vulture_Spider_Mine@UnitTypes@BWAPI@@3VUnitType@2@B 0046e298     BWAPI:UnitType.obj
 0003:0000129c       ?Protoss_Pylon@UnitTypes@BWAPI@@3VUnitType@2@B 0046e29c     BWAPI:UnitType.obj
 0003:000012a0       ?Terran_Barracks@UnitTypes@BWAPI@@3VUnitType@2@B 0046e2a0     BWAPI:UnitType.obj
 0003:000012a4       ?Hero_Mojo@UnitTypes@BWAPI@@3VUnitType@2@B 0046e2a4     BWAPI:UnitType.obj
 0003:000012a8       ?Protoss_Citadel_of_Adun@UnitTypes@BWAPI@@3VUnitType@2@B 0046e2a8     BWAPI:UnitType.obj
 0003:000012ac       ?Special_Terran_Flag_Beacon@UnitTypes@BWAPI@@3VUnitType@2@B 0046e2ac     BWAPI:UnitType.obj
 0003:000012b0       ?Terran_Covert_Ops@UnitTypes@BWAPI@@3VUnitType@2@B 0046e2b0     BWAPI:UnitType.obj
 0003:000012b4       ?Resource_Vespene_Geyser@UnitTypes@BWAPI@@3VUnitType@2@B 0046e2b4     BWAPI:UnitType.obj
 0003:000012b8       ?Zerg_Egg@UnitTypes@BWAPI@@3VUnitType@2@B 0046e2b8     BWAPI:UnitType.obj
 0003:000012bc       ?Hero_Kukulza_Guardian@UnitTypes@BWAPI@@3VUnitType@2@B 0046e2bc     BWAPI:UnitType.obj
 0003:000012c0       ?Zerg_Defiler_Mound@UnitTypes@BWAPI@@3VUnitType@2@B 0046e2c0     BWAPI:UnitType.obj
 0003:000012c4       ?Spell_Scanner_Sweep@UnitTypes@BWAPI@@3VUnitType@2@B 0046e2c4     BWAPI:UnitType.obj
 0003:000012c8       ?Special_Psi_Disrupter@UnitTypes@BWAPI@@3VUnitType@2@B 0046e2c8     BWAPI:UnitType.obj
 0003:000012cc       ?Protoss_Archon@UnitTypes@BWAPI@@3VUnitType@2@B 0046e2cc     BWAPI:UnitType.obj
 0003:000012d0       ?Terran_Comsat_Station@UnitTypes@BWAPI@@3VUnitType@2@B 0046e2d0     BWAPI:UnitType.obj
 0003:000012d4       ?Terran_Siege_Tank_Tank_Mode@UnitTypes@BWAPI@@3VUnitType@2@B 0046e2d4     BWAPI:UnitType.obj
 0003:000012d8       ?Protoss_Probe@UnitTypes@BWAPI@@3VUnitType@2@B 0046e2d8     BWAPI:UnitType.obj
 0003:000012dc       ?Zerg_Drone@UnitTypes@BWAPI@@3VUnitType@2@B 0046e2dc     BWAPI:UnitType.obj
 0003:000012e0       ?Zerg_Lurker@UnitTypes@BWAPI@@3VUnitType@2@B 0046e2e0     BWAPI:UnitType.obj
 0003:000012e4       ?Protoss_Dark_Templar@UnitTypes@BWAPI@@3VUnitType@2@B 0046e2e4     BWAPI:UnitType.obj
 0003:000012e8       ?Terran_Goliath@UnitTypes@BWAPI@@3VUnitType@2@B 0046e2e8     BWAPI:UnitType.obj
 0003:000012ec       ?Terran_Firebat@UnitTypes@BWAPI@@3VUnitType@2@B 0046e2ec     BWAPI:UnitType.obj
 0003:000012f0       ?Terran_Siege_Tank_Siege_Mode@UnitTypes@BWAPI@@3VUnitType@2@B 0046e2f0     BWAPI:UnitType.obj
 0003:000012f4       ?Zerg_Mutalisk@UnitTypes@BWAPI@@3VUnitType@2@B 0046e2f4     BWAPI:UnitType.obj
 0003:000012f8       ?Protoss_Observer@UnitTypes@BWAPI@@3VUnitType@2@B 0046e2f8     BWAPI:UnitType.obj
 0003:000012fc       ?Protoss_Scout@UnitTypes@BWAPI@@3VUnitType@2@B 0046e2fc     BWAPI:UnitType.obj
 0003:00001300       ?Terran_Battlecruiser@UnitTypes@BWAPI@@3VUnitType@2@B 0046e300     BWAPI:UnitType.obj
 0003:00001304       ?Zerg_Zergling@UnitTypes@BWAPI@@3VUnitType@2@B 0046e304     BWAPI:UnitType.obj
 0003:00001308       ?Zerg_Ultralisk@UnitTypes@BWAPI@@3VUnitType@2@B 0046e308     BWAPI:UnitType.obj
 0003:0000130c       ?Protoss_Shuttle@UnitTypes@BWAPI@@3VUnitType@2@B 0046e30c     BWAPI:UnitType.obj
 0003:00001310       ?Protoss_Arbiter@UnitTypes@BWAPI@@3VUnitType@2@B 0046e310     BWAPI:UnitType.obj
 0003:00001314       ?Terran_Vulture@UnitTypes@BWAPI@@3VUnitType@2@B 0046e314     BWAPI:UnitType.obj
 0003:00001318       ?Protoss_High_Templar@UnitTypes@BWAPI@@3VUnitType@2@B 0046e318     BWAPI:UnitType.obj
 0003:0000131c       ?Terran_Science_Vessel@UnitTypes@BWAPI@@3VUnitType@2@B 0046e31c     BWAPI:UnitType.obj
 0003:00001320       ?Terran_SCV@UnitTypes@BWAPI@@3VUnitType@2@B 0046e320     BWAPI:UnitType.obj
 0003:00001324       ?Terran_Wraith@UnitTypes@BWAPI@@3VUnitType@2@B 0046e324     BWAPI:UnitType.obj
 0003:00001328       ?Protoss_Dark_Archon@UnitTypes@BWAPI@@3VUnitType@2@B 0046e328     BWAPI:UnitType.obj
 0003:0000132c       ?Terran_Ghost@UnitTypes@BWAPI@@3VUnitType@2@B 0046e32c     BWAPI:UnitType.obj
 0003:00001330       ?Protoss_Reaver@UnitTypes@BWAPI@@3VUnitType@2@B 0046e330     BWAPI:UnitType.obj
 0003:00001334       ?Protoss_Carrier@UnitTypes@BWAPI@@3VUnitType@2@B 0046e334     BWAPI:UnitType.obj
 0003:00001338       ?Zerg_Hydralisk@UnitTypes@BWAPI@@3VUnitType@2@B 0046e338     BWAPI:UnitType.obj
 0003:0000133c       ?Zerg_Defiler@UnitTypes@BWAPI@@3VUnitType@2@B 0046e33c     BWAPI:UnitType.obj
 0003:00001340       ?Zerg_Queen@UnitTypes@BWAPI@@3VUnitType@2@B 0046e340     BWAPI:UnitType.obj
 0003:00001344       ?Zerg_Overlord@UnitTypes@BWAPI@@3VUnitType@2@B 0046e344     BWAPI:UnitType.obj
 0003:00001348       ?Protoss_Zealot@UnitTypes@BWAPI@@3VUnitType@2@B 0046e348     BWAPI:UnitType.obj
 0003:0000134c       ?Terran_Medic@UnitTypes@BWAPI@@3VUnitType@2@B 0046e34c     BWAPI:UnitType.obj
 0003:00001350       ?Protoss_Corsair@UnitTypes@BWAPI@@3VUnitType@2@B 0046e350     BWAPI:UnitType.obj
 0003:00001354       ?Unknown@UnitTypes@BWAPI@@3VUnitType@2@B 0046e354     BWAPI:UnitType.obj
 0003:00001358       ?None@UnitTypes@BWAPI@@3VUnitType@2@B 0046e358     BWAPI:UnitType.obj
 0003:0000135c       ?Protoss_Photon_Cannon@UnitTypes@BWAPI@@3VUnitType@2@B 0046e35c     BWAPI:UnitType.obj
 0003:00001360       ?Terran_Valkyrie@UnitTypes@BWAPI@@3VUnitType@2@B 0046e360     BWAPI:UnitType.obj
 0003:00001364       ?Terran_Missile_Turret@UnitTypes@BWAPI@@3VUnitType@2@B 0046e364     BWAPI:UnitType.obj
 0003:00001368       ?Zerg_Sunken_Colony@UnitTypes@BWAPI@@3VUnitType@2@B 0046e368     BWAPI:UnitType.obj
 0003:0000136c       ?Zerg_Devourer@UnitTypes@BWAPI@@3VUnitType@2@B 0046e36c     BWAPI:UnitType.obj
 0003:00001370       ?Zerg_Scourge@UnitTypes@BWAPI@@3VUnitType@2@B 0046e370     BWAPI:UnitType.obj
 0003:00001374       ?Protoss_Dragoon@UnitTypes@BWAPI@@3VUnitType@2@B 0046e374     BWAPI:UnitType.obj
 0003:00001378       ?Unknown@UpgradeTypes@BWAPI@@3VUpgradeType@2@B 0046e378     BWAPI:UpgradeType.obj
 0003:0000137c       ?Ventral_Sacs@UpgradeTypes@BWAPI@@3VUpgradeType@2@B 0046e37c     BWAPI:UpgradeType.obj
 0003:00001380       ?Zerg_Missile_Attacks@UpgradeTypes@BWAPI@@3VUpgradeType@2@B 0046e380     BWAPI:UpgradeType.obj
 0003:00001384       ?Zerg_Flyer_Attacks@UpgradeTypes@BWAPI@@3VUpgradeType@2@B 0046e384     BWAPI:UpgradeType.obj
 0003:00001388       ?Zerg_Melee_Attacks@UpgradeTypes@BWAPI@@3VUpgradeType@2@B 0046e388     BWAPI:UpgradeType.obj
 0003:0000138c       ?Protoss_Air_Weapons@UpgradeTypes@BWAPI@@3VUpgradeType@2@B 0046e38c     BWAPI:UpgradeType.obj
 0003:00001390       ?Protoss_Ground_Weapons@UpgradeTypes@BWAPI@@3VUpgradeType@2@B 0046e390     BWAPI:UpgradeType.obj
 0003:00001394       ?Scarab_Damage@UpgradeTypes@BWAPI@@3VUpgradeType@2@B 0046e394     BWAPI:UpgradeType.obj
 0003:00001398       ?Terran_Infantry_Weapons@UpgradeTypes@BWAPI@@3VUpgradeType@2@B 0046e398     BWAPI:UpgradeType.obj
 0003:0000139c       ?Protoss_Plasma_Shields@UpgradeTypes@BWAPI@@3VUpgradeType@2@B 0046e39c     BWAPI:UpgradeType.obj
 0003:000013a0       ?Terran_Ship_Weapons@UpgradeTypes@BWAPI@@3VUpgradeType@2@B 0046e3a0     BWAPI:UpgradeType.obj
 0003:000013a4       ?Terran_Vehicle_Weapons@UpgradeTypes@BWAPI@@3VUpgradeType@2@B 0046e3a4     BWAPI:UpgradeType.obj
 0003:000013a8       ?Terran_Vehicle_Plating@UpgradeTypes@BWAPI@@3VUpgradeType@2@B 0046e3a8     BWAPI:UpgradeType.obj
 0003:000013ac       ?Zerg_Carapace@UpgradeTypes@BWAPI@@3VUpgradeType@2@B 0046e3ac     BWAPI:UpgradeType.obj
 0003:000013b0       ?Protoss_Ground_Armor@UpgradeTypes@BWAPI@@3VUpgradeType@2@B 0046e3b0     BWAPI:UpgradeType.obj
 0003:000013b4       ?Terran_Ship_Plating@UpgradeTypes@BWAPI@@3VUpgradeType@2@B 0046e3b4     BWAPI:UpgradeType.obj
 0003:000013b8       ?Zerg_Flyer_Carapace@UpgradeTypes@BWAPI@@3VUpgradeType@2@B 0046e3b8     BWAPI:UpgradeType.obj
 0003:000013bc       ?Protoss_Air_Armor@UpgradeTypes@BWAPI@@3VUpgradeType@2@B 0046e3bc     BWAPI:UpgradeType.obj
 0003:000013c0       ?Charon_Boosters@UpgradeTypes@BWAPI@@3VUpgradeType@2@B 0046e3c0     BWAPI:UpgradeType.obj
 0003:000013c4       ?Singularity_Charge@UpgradeTypes@BWAPI@@3VUpgradeType@2@B 0046e3c4     BWAPI:UpgradeType.obj
 0003:000013c8       ?Adrenal_Glands@UpgradeTypes@BWAPI@@3VUpgradeType@2@B 0046e3c8     BWAPI:UpgradeType.obj
 0003:000013cc       ?Grooved_Spines@UpgradeTypes@BWAPI@@3VUpgradeType@2@B 0046e3cc     BWAPI:UpgradeType.obj
 0003:000013d0       ?U_238_Shells@UpgradeTypes@BWAPI@@3VUpgradeType@2@B 0046e3d0     BWAPI:UpgradeType.obj
 0003:000013d4       ?Ocular_Implants@UpgradeTypes@BWAPI@@3VUpgradeType@2@B 0046e3d4     BWAPI:UpgradeType.obj
 0003:000013d8       ?Gamete_Meiosis@UpgradeTypes@BWAPI@@3VUpgradeType@2@B 0046e3d8     BWAPI:UpgradeType.obj
 0003:000013dc       ?Gravitic_Drive@UpgradeTypes@BWAPI@@3VUpgradeType@2@B 0046e3dc     BWAPI:UpgradeType.obj
 0003:000013e0       ?None@UpgradeTypes@BWAPI@@3VUpgradeType@2@B 0046e3e0     BWAPI:UpgradeType.obj
 0003:000013e4       ?Chitinous_Plating@UpgradeTypes@BWAPI@@3VUpgradeType@2@B 0046e3e4     BWAPI:UpgradeType.obj
 0003:000013e8       ?Carrier_Capacity@UpgradeTypes@BWAPI@@3VUpgradeType@2@B 0046e3e8     BWAPI:UpgradeType.obj
 0003:000013ec       ?Apial_Sensors@UpgradeTypes@BWAPI@@3VUpgradeType@2@B 0046e3ec     BWAPI:UpgradeType.obj
 0003:000013f0       ?Ion_Thrusters@UpgradeTypes@BWAPI@@3VUpgradeType@2@B 0046e3f0     BWAPI:UpgradeType.obj
 0003:000013f4       ?Gravitic_Boosters@UpgradeTypes@BWAPI@@3VUpgradeType@2@B 0046e3f4     BWAPI:UpgradeType.obj
 0003:000013f8       ?Apollo_Reactor@UpgradeTypes@BWAPI@@3VUpgradeType@2@B 0046e3f8     BWAPI:UpgradeType.obj
 0003:000013fc       ?Antennae@UpgradeTypes@BWAPI@@3VUpgradeType@2@B 0046e3fc     BWAPI:UpgradeType.obj
 0003:00001400       ?Moebius_Reactor@UpgradeTypes@BWAPI@@3VUpgradeType@2@B 0046e400     BWAPI:UpgradeType.obj
 0003:00001404       ?Argus_Talisman@UpgradeTypes@BWAPI@@3VUpgradeType@2@B 0046e404     BWAPI:UpgradeType.obj
 0003:00001408       ?Sensor_Array@UpgradeTypes@BWAPI@@3VUpgradeType@2@B 0046e408     BWAPI:UpgradeType.obj
 0003:0000140c       ?Titan_Reactor@UpgradeTypes@BWAPI@@3VUpgradeType@2@B 0046e40c     BWAPI:UpgradeType.obj
 0003:00001410       ?Colossus_Reactor@UpgradeTypes@BWAPI@@3VUpgradeType@2@B 0046e410     BWAPI:UpgradeType.obj
 0003:00001414       ?Caduceus_Reactor@UpgradeTypes@BWAPI@@3VUpgradeType@2@B 0046e414     BWAPI:UpgradeType.obj
 0003:00001418       ?Gravitic_Thrusters@UpgradeTypes@BWAPI@@3VUpgradeType@2@B 0046e418     BWAPI:UpgradeType.obj
 0003:0000141c       ?Muscular_Augments@UpgradeTypes@BWAPI@@3VUpgradeType@2@B 0046e41c     BWAPI:UpgradeType.obj
 0003:00001420       ?Metasynaptic_Node@UpgradeTypes@BWAPI@@3VUpgradeType@2@B 0046e420     BWAPI:UpgradeType.obj
 0003:00001424       ?Khaydarin_Amulet@UpgradeTypes@BWAPI@@3VUpgradeType@2@B 0046e424     BWAPI:UpgradeType.obj
 0003:00001428       ?Argus_Jewel@UpgradeTypes@BWAPI@@3VUpgradeType@2@B 0046e428     BWAPI:UpgradeType.obj
 0003:0000142c       ?Anabolic_Synthesis@UpgradeTypes@BWAPI@@3VUpgradeType@2@B 0046e42c     BWAPI:UpgradeType.obj
 0003:00001430       ?Metabolic_Boost@UpgradeTypes@BWAPI@@3VUpgradeType@2@B 0046e430     BWAPI:UpgradeType.obj
 0003:00001434       ?Khaydarin_Core@UpgradeTypes@BWAPI@@3VUpgradeType@2@B 0046e434     BWAPI:UpgradeType.obj
 0003:00001438       ?Leg_Enhancements@UpgradeTypes@BWAPI@@3VUpgradeType@2@B 0046e438     BWAPI:UpgradeType.obj
 0003:0000143c       ?Reaver_Capacity@UpgradeTypes@BWAPI@@3VUpgradeType@2@B 0046e43c     BWAPI:UpgradeType.obj
 0003:00001440       ?Pneumatized_Carapace@UpgradeTypes@BWAPI@@3VUpgradeType@2@B 0046e440     BWAPI:UpgradeType.obj
 0003:00001444       ?Unknown@TechTypes@BWAPI@@3VTechType@2@B 0046e444     BWAPI:TechType.obj
 0003:00001448       ?Spawn_Broodlings@TechTypes@BWAPI@@3VTechType@2@B 0046e448     BWAPI:TechType.obj
 0003:0000144c       ?Psionic_Storm@TechTypes@BWAPI@@3VTechType@2@B 0046e44c     BWAPI:TechType.obj
 0003:00001450       ?Irradiate@TechTypes@BWAPI@@3VTechType@2@B 0046e450     BWAPI:TechType.obj
 0003:00001454       ?None@TechTypes@BWAPI@@3VTechType@2@B 0046e454     BWAPI:TechType.obj
 0003:00001458       ?Consume@TechTypes@BWAPI@@3VTechType@2@B 0046e458     BWAPI:TechType.obj
 0003:0000145c       ?Restoration@TechTypes@BWAPI@@3VTechType@2@B 0046e45c     BWAPI:TechType.obj
 0003:00001460       ?Archon_Warp@TechTypes@BWAPI@@3VTechType@2@B 0046e460     BWAPI:TechType.obj
 0003:00001464       ?Plague@TechTypes@BWAPI@@3VTechType@2@B 0046e464     BWAPI:TechType.obj
 0003:00001468       ?Defensive_Matrix@TechTypes@BWAPI@@3VTechType@2@B 0046e468     BWAPI:TechType.obj
 0003:0000146c       ?Dark_Swarm@TechTypes@BWAPI@@3VTechType@2@B 0046e46c     BWAPI:TechType.obj
 0003:00001470       ?Maelstrom@TechTypes@BWAPI@@3VTechType@2@B 0046e470     BWAPI:TechType.obj
 0003:00001474       ?EMP_Shockwave@TechTypes@BWAPI@@3VTechType@2@B 0046e474     BWAPI:TechType.obj
 0003:00001478       ?Parasite@TechTypes@BWAPI@@3VTechType@2@B 0046e478     BWAPI:TechType.obj
 0003:0000147c       ?Nuclear_Strike@TechTypes@BWAPI@@3VTechType@2@B 0046e47c     BWAPI:TechType.obj
 0003:00001480       ?Optical_Flare@TechTypes@BWAPI@@3VTechType@2@B 0046e480     BWAPI:TechType.obj
 0003:00001484       ?Lockdown@TechTypes@BWAPI@@3VTechType@2@B 0046e484     BWAPI:TechType.obj
 0003:00001488       ?Feedback@TechTypes@BWAPI@@3VTechType@2@B 0046e488     BWAPI:TechType.obj
 0003:0000148c       ?Lurker_Aspect@TechTypes@BWAPI@@3VTechType@2@B 0046e48c     BWAPI:TechType.obj
 0003:00001490       ?Tank_Siege_Mode@TechTypes@BWAPI@@3VTechType@2@B 0046e490     BWAPI:TechType.obj
 0003:00001494       ?Healing@TechTypes@BWAPI@@3VTechType@2@B 0046e494     BWAPI:TechType.obj
 0003:00001498       ?Spider_Mines@TechTypes@BWAPI@@3VTechType@2@B 0046e498     BWAPI:TechType.obj
 0003:0000149c       ?Burrowing@TechTypes@BWAPI@@3VTechType@2@B 0046e49c     BWAPI:TechType.obj
 0003:000014a0       ?Yamato_Gun@TechTypes@BWAPI@@3VTechType@2@B 0046e4a0     BWAPI:TechType.obj
 0003:000014a4       ?Recall@TechTypes@BWAPI@@3VTechType@2@B 0046e4a4     BWAPI:TechType.obj
 0003:000014a8       ?Disruption_Web@TechTypes@BWAPI@@3VTechType@2@B 0046e4a8     BWAPI:TechType.obj
 0003:000014ac       ?Stasis_Field@TechTypes@BWAPI@@3VTechType@2@B 0046e4ac     BWAPI:TechType.obj
 0003:000014b0       ?Cloaking_Field@TechTypes@BWAPI@@3VTechType@2@B 0046e4b0     BWAPI:TechType.obj
 0003:000014b4       ?Dark_Archon_Meld@TechTypes@BWAPI@@3VTechType@2@B 0046e4b4     BWAPI:TechType.obj
 0003:000014b8       ?Hallucination@TechTypes@BWAPI@@3VTechType@2@B 0046e4b8     BWAPI:TechType.obj
 0003:000014bc       ?Personnel_Cloaking@TechTypes@BWAPI@@3VTechType@2@B 0046e4bc     BWAPI:TechType.obj
 0003:000014c0       ?Scanner_Sweep@TechTypes@BWAPI@@3VTechType@2@B 0046e4c0     BWAPI:TechType.obj
 0003:000014c4       ?Infestation@TechTypes@BWAPI@@3VTechType@2@B 0046e4c4     BWAPI:TechType.obj
 0003:000014c8       ?Mind_Control@TechTypes@BWAPI@@3VTechType@2@B 0046e4c8     BWAPI:TechType.obj
 0003:000014cc       ?Ensnare@TechTypes@BWAPI@@3VTechType@2@B 0046e4cc     BWAPI:TechType.obj
 0003:000014d0       ?Unknown@WeaponTypes@BWAPI@@3VWeaponType@2@B 0046e4d0     BWAPI:WeaponType.obj
 0003:000014d4       ?Spawn_Broodlings@WeaponTypes@BWAPI@@3VWeaponType@2@B 0046e4d4     BWAPI:WeaponType.obj
 0003:000014d8       ?Psionic_Storm@WeaponTypes@BWAPI@@3VWeaponType@2@B 0046e4d8     BWAPI:WeaponType.obj
 0003:000014dc       ?Irradiate@WeaponTypes@BWAPI@@3VWeaponType@2@B 0046e4dc     BWAPI:WeaponType.obj
 0003:000014e0       ?Consume@WeaponTypes@BWAPI@@3VWeaponType@2@B 0046e4e0     BWAPI:WeaponType.obj
 0003:000014e4       ?Restoration@WeaponTypes@BWAPI@@3VWeaponType@2@B 0046e4e4     BWAPI:WeaponType.obj
 0003:000014e8       ?Plague@WeaponTypes@BWAPI@@3VWeaponType@2@B 0046e4e8     BWAPI:WeaponType.obj
 0003:000014ec       ?Dark_Swarm@WeaponTypes@BWAPI@@3VWeaponType@2@B 0046e4ec     BWAPI:WeaponType.obj
 0003:000014f0       ?Maelstrom@WeaponTypes@BWAPI@@3VWeaponType@2@B 0046e4f0     BWAPI:WeaponType.obj
 0003:000014f4       ?EMP_Shockwave@WeaponTypes@BWAPI@@3VWeaponType@2@B 0046e4f4     BWAPI:WeaponType.obj
 0003:000014f8       ?Parasite@WeaponTypes@BWAPI@@3VWeaponType@2@B 0046e4f8     BWAPI:WeaponType.obj
 0003:000014fc       ?Nuclear_Strike@WeaponTypes@BWAPI@@3VWeaponType@2@B 0046e4fc     BWAPI:WeaponType.obj
 0003:00001500       ?Optical_Flare@WeaponTypes@BWAPI@@3VWeaponType@2@B 0046e500     BWAPI:WeaponType.obj
 0003:00001504       ?Lockdown@WeaponTypes@BWAPI@@3VWeaponType@2@B 0046e504     BWAPI:WeaponType.obj
 0003:00001508       ?Feedback@WeaponTypes@BWAPI@@3VWeaponType@2@B 0046e508     BWAPI:WeaponType.obj
 0003:0000150c       ?Yamato_Gun@WeaponTypes@BWAPI@@3VWeaponType@2@B 0046e50c     BWAPI:WeaponType.obj
 0003:00001510       ?Disruption_Web@WeaponTypes@BWAPI@@3VWeaponType@2@B 0046e510     BWAPI:WeaponType.obj
 0003:00001514       ?Stasis_Field@WeaponTypes@BWAPI@@3VWeaponType@2@B 0046e514     BWAPI:WeaponType.obj
 0003:00001518       ?Mind_Control@WeaponTypes@BWAPI@@3VWeaponType@2@B 0046e518     BWAPI:WeaponType.obj
 0003:0000151c       ?Ensnare@WeaponTypes@BWAPI@@3VWeaponType@2@B 0046e51c     BWAPI:WeaponType.obj
 0003:00001520       ?Suicide_Scourge@WeaponTypes@BWAPI@@3VWeaponType@2@B 0046e520     BWAPI:WeaponType.obj
 0003:00001524       ?ATA_Laser_Battery_Hero@WeaponTypes@BWAPI@@3VWeaponType@2@B 0046e524     BWAPI:WeaponType.obj
 0003:00001528       ?Twin_Autocannons@WeaponTypes@BWAPI@@3VWeaponType@2@B 0046e528     BWAPI:WeaponType.obj
 0003:0000152c       ?Acid_Spore_Kukulza@WeaponTypes@BWAPI@@3VWeaponType@2@B 0046e52c     BWAPI:WeaponType.obj
 0003:00001530       ?Warp_Blades_Zeratul@WeaponTypes@BWAPI@@3VWeaponType@2@B 0046e530     BWAPI:WeaponType.obj
 0003:00001534       ?C_10_Canister_Rifle@WeaponTypes@BWAPI@@3VWeaponType@2@B 0046e534     BWAPI:WeaponType.obj
 0003:00001538       ?Anti_Matter_Missiles_Artanis@WeaponTypes@BWAPI@@3VWeaponType@2@B 0046e538     BWAPI:WeaponType.obj
 0003:0000153c       ?Pulse_Cannon@WeaponTypes@BWAPI@@3VWeaponType@2@B 0046e53c     BWAPI:WeaponType.obj
 0003:00001540       ?None@WeaponTypes@BWAPI@@3VWeaponType@2@B 0046e540     BWAPI:WeaponType.obj
 0003:00001544       ?C_10_Canister_Rifle_Alexei_Stukov@WeaponTypes@BWAPI@@3VWeaponType@2@B 0046e544     BWAPI:WeaponType.obj
 0003:00001548       ?Psionic_Shockwave@WeaponTypes@BWAPI@@3VWeaponType@2@B 0046e548     BWAPI:WeaponType.obj
 0003:0000154c       ?Phase_Disruptor_Cannon@WeaponTypes@BWAPI@@3VWeaponType@2@B 0046e54c     BWAPI:WeaponType.obj
 0003:00001550       ?Fusion_Cutter@WeaponTypes@BWAPI@@3VWeaponType@2@B 0046e550     BWAPI:WeaponType.obj
 0003:00001554       ?Twin_Autocannons_Alan_Schezar@WeaponTypes@BWAPI@@3VWeaponType@2@B 0046e554     BWAPI:WeaponType.obj
 0003:00001558       ?Claws_Infested_Kerrigan@WeaponTypes@BWAPI@@3VWeaponType@2@B 0046e558     BWAPI:WeaponType.obj
 0003:0000155c       ?STA_Photon_Cannon@WeaponTypes@BWAPI@@3VWeaponType@2@B 0046e55c     BWAPI:WeaponType.obj
 0003:00001560       ?Fragmentation_Grenade@WeaponTypes@BWAPI@@3VWeaponType@2@B 0046e560     BWAPI:WeaponType.obj
 0003:00001564       ?Suicide_Infested_Terran@WeaponTypes@BWAPI@@3VWeaponType@2@B 0046e564     BWAPI:WeaponType.obj
 0003:00001568       ?ATA_Laser_Battery_Hyperion@WeaponTypes@BWAPI@@3VWeaponType@2@B 0046e568     BWAPI:WeaponType.obj
 0003:0000156c       ?Psionic_Shockwave_TZ_Archon@WeaponTypes@BWAPI@@3VWeaponType@2@B 0046e56c     BWAPI:WeaponType.obj
 0003:00001570       ?Dual_Photon_Blasters_Artanis@WeaponTypes@BWAPI@@3VWeaponType@2@B 0046e570     BWAPI:WeaponType.obj
 0003:00001574       ?Arclite_Cannon@WeaponTypes@BWAPI@@3VWeaponType@2@B 0046e574     BWAPI:WeaponType.obj
 0003:00001578       ?Dual_Photon_Blasters_Mojo@WeaponTypes@BWAPI@@3VWeaponType@2@B 0046e578     BWAPI:WeaponType.obj
 0003:0000157c       ?Seeker_Spores@WeaponTypes@BWAPI@@3VWeaponType@2@B 0046e57c     BWAPI:WeaponType.obj
 0003:00001580       ?Arclite_Cannon_Edmund_Duke@WeaponTypes@BWAPI@@3VWeaponType@2@B 0046e580     BWAPI:WeaponType.obj
 0003:00001584       ?Anti_Matter_Missiles_Mojo@WeaponTypes@BWAPI@@3VWeaponType@2@B 0046e584     BWAPI:WeaponType.obj
 0003:00001588       ?Scarab@WeaponTypes@BWAPI@@3VWeaponType@2@B 0046e588     BWAPI:WeaponType.obj
 0003:0000158c       ?Arclite_Shock_Cannon_Edmund_Duke@WeaponTypes@BWAPI@@3VWeaponType@2@B 0046e58c     BWAPI:WeaponType.obj
 0003:00001590       ?Longbolt_Missile@WeaponTypes@BWAPI@@3VWeaponType@2@B 0046e590     BWAPI:WeaponType.obj
 0003:00001594       ?Fragmentation_Grenade_Jim_Raynor@WeaponTypes@BWAPI@@3VWeaponType@2@B 0046e594     BWAPI:WeaponType.obj
 0003:00001598       ?Psi_Blades_Fenix@WeaponTypes@BWAPI@@3VWeaponType@2@B 0046e598     BWAPI:WeaponType.obj
 0003:0000159c       ?Arclite_Shock_Cannon@WeaponTypes@BWAPI@@3VWeaponType@2@B 0046e59c     BWAPI:WeaponType.obj
 0003:000015a0       ?Flame_Thrower_Gui_Montag@WeaponTypes@BWAPI@@3VWeaponType@2@B 0046e5a0     BWAPI:WeaponType.obj
 0003:000015a4       ?Gauss_Rifle_Jim_Raynor@WeaponTypes@BWAPI@@3VWeaponType@2@B 0046e5a4     BWAPI:WeaponType.obj
 0003:000015a8       ?Phase_Disruptor_Cannon_Danimoth@WeaponTypes@BWAPI@@3VWeaponType@2@B 0046e5a8     BWAPI:WeaponType.obj
 0003:000015ac       ?Subterranean_Spines@WeaponTypes@BWAPI@@3VWeaponType@2@B 0046e5ac     BWAPI:WeaponType.obj
 0003:000015b0       ?Hellfire_Missile_Pack_Alan_Schezar@WeaponTypes@BWAPI@@3VWeaponType@2@B 0046e5b0     BWAPI:WeaponType.obj
 0003:000015b4       ?Dual_Photon_Blasters@WeaponTypes@BWAPI@@3VWeaponType@2@B 0046e5b4     BWAPI:WeaponType.obj
 0003:000015b8       ?Spider_Mines@WeaponTypes@BWAPI@@3VWeaponType@2@B 0046e5b8     BWAPI:WeaponType.obj
 0003:000015bc       ?Gemini_Missiles@WeaponTypes@BWAPI@@3VWeaponType@2@B 0046e5bc     BWAPI:WeaponType.obj
 0003:000015c0       ?Glave_Wurm_Kukulza@WeaponTypes@BWAPI@@3VWeaponType@2@B 0046e5c0     BWAPI:WeaponType.obj
 0003:000015c4       ?Neutron_Flare@WeaponTypes@BWAPI@@3VWeaponType@2@B 0046e5c4     BWAPI:WeaponType.obj
 0003:000015c8       ?Burst_Lasers@WeaponTypes@BWAPI@@3VWeaponType@2@B 0046e5c8     BWAPI:WeaponType.obj
 0003:000015cc       ?Claws_Devouring_One@WeaponTypes@BWAPI@@3VWeaponType@2@B 0046e5cc     BWAPI:WeaponType.obj
 0003:000015d0       ?Burst_Lasers_Tom_Kazansky@WeaponTypes@BWAPI@@3VWeaponType@2@B 0046e5d0     BWAPI:WeaponType.obj
 0003:000015d4       ?Spines@WeaponTypes@BWAPI@@3VWeaponType@2@B 0046e5d4     BWAPI:WeaponType.obj
 0003:000015d8       ?Particle_Beam@WeaponTypes@BWAPI@@3VWeaponType@2@B 0046e5d8     BWAPI:WeaponType.obj
 0003:000015dc       ?Gemini_Missiles_Tom_Kazansky@WeaponTypes@BWAPI@@3VWeaponType@2@B 0046e5dc     BWAPI:WeaponType.obj
 0003:000015e0       ?Acid_Spore@WeaponTypes@BWAPI@@3VWeaponType@2@B 0046e5e0     BWAPI:WeaponType.obj
 0003:000015e4       ?Anti_Matter_Missiles@WeaponTypes@BWAPI@@3VWeaponType@2@B 0046e5e4     BWAPI:WeaponType.obj
 0003:000015e8       ?STS_Photon_Cannon@WeaponTypes@BWAPI@@3VWeaponType@2@B 0046e5e8     BWAPI:WeaponType.obj
 0003:000015ec       ?ATS_Laser_Battery_Hyperion@WeaponTypes@BWAPI@@3VWeaponType@2@B 0046e5ec     BWAPI:WeaponType.obj
 0003:000015f0       ?ATA_Laser_Battery@WeaponTypes@BWAPI@@3VWeaponType@2@B 0046e5f0     BWAPI:WeaponType.obj
 0003:000015f4       ?Phase_Disruptor_Fenix@WeaponTypes@BWAPI@@3VWeaponType@2@B 0046e5f4     BWAPI:WeaponType.obj
 0003:000015f8       ?Flame_Thrower@WeaponTypes@BWAPI@@3VWeaponType@2@B 0046e5f8     BWAPI:WeaponType.obj
 0003:000015fc       ?Toxic_Spores@WeaponTypes@BWAPI@@3VWeaponType@2@B 0046e5fc     BWAPI:WeaponType.obj
 0003:00001600       ?Halo_Rockets@WeaponTypes@BWAPI@@3VWeaponType@2@B 0046e600     BWAPI:WeaponType.obj
 0003:00001604       ?Warp_Blades@WeaponTypes@BWAPI@@3VWeaponType@2@B 0046e604     BWAPI:WeaponType.obj
 0003:00001608       ?ATS_Laser_Battery_Hero@WeaponTypes@BWAPI@@3VWeaponType@2@B 0046e608     BWAPI:WeaponType.obj
 0003:0000160c       ?Needle_Spines_Hunter_Killer@WeaponTypes@BWAPI@@3VWeaponType@2@B 0046e60c     BWAPI:WeaponType.obj
 0003:00001610       ?Glave_Wurm@WeaponTypes@BWAPI@@3VWeaponType@2@B 0046e610     BWAPI:WeaponType.obj
 0003:00001614       ?Corrosive_Acid@WeaponTypes@BWAPI@@3VWeaponType@2@B 0046e614     BWAPI:WeaponType.obj
 0003:00001618       ?C_10_Canister_Rifle_Infested_Duran@WeaponTypes@BWAPI@@3VWeaponType@2@B 0046e618     BWAPI:WeaponType.obj
 0003:0000161c       ?C_10_Canister_Rifle_Samir_Duran@WeaponTypes@BWAPI@@3VWeaponType@2@B 0046e61c     BWAPI:WeaponType.obj
 0003:00001620       ?C_10_Canister_Rifle_Sarah_Kerrigan@WeaponTypes@BWAPI@@3VWeaponType@2@B 0046e620     BWAPI:WeaponType.obj
 0003:00001624       ?Subterranean_Tentacle@WeaponTypes@BWAPI@@3VWeaponType@2@B 0046e624     BWAPI:WeaponType.obj
 0003:00001628       ?Kaiser_Blades_Torrasque@WeaponTypes@BWAPI@@3VWeaponType@2@B 0046e628     BWAPI:WeaponType.obj
 0003:0000162c       ?Psi_Blades@WeaponTypes@BWAPI@@3VWeaponType@2@B 0046e62c     BWAPI:WeaponType.obj
 0003:00001630       ?Psi_Assault@WeaponTypes@BWAPI@@3VWeaponType@2@B 0046e630     BWAPI:WeaponType.obj
 0003:00001634       ?Kaiser_Blades@WeaponTypes@BWAPI@@3VWeaponType@2@B 0046e634     BWAPI:WeaponType.obj
 0003:00001638       ?Warp_Blades_Hero@WeaponTypes@BWAPI@@3VWeaponType@2@B 0046e638     BWAPI:WeaponType.obj
 0003:0000163c       ?ATS_Laser_Battery@WeaponTypes@BWAPI@@3VWeaponType@2@B 0046e63c     BWAPI:WeaponType.obj
 0003:00001640       ?Phase_Disruptor@WeaponTypes@BWAPI@@3VWeaponType@2@B 0046e640     BWAPI:WeaponType.obj
 0003:00001644       ?Needle_Spines@WeaponTypes@BWAPI@@3VWeaponType@2@B 0046e644     BWAPI:WeaponType.obj
 0003:00001648       ?Claws@WeaponTypes@BWAPI@@3VWeaponType@2@B 0046e648     BWAPI:WeaponType.obj
 0003:0000164c       ?Hellfire_Missile_Pack@WeaponTypes@BWAPI@@3VWeaponType@2@B 0046e64c     BWAPI:WeaponType.obj
 0003:00001650       ?Unknown@UnitSizeTypes@BWAPI@@3VUnitSizeType@2@B 0046e650     BWAPI:UnitSizeType.obj
 0003:00001654       ?None@UnitSizeTypes@BWAPI@@3VUnitSizeType@2@B 0046e654     BWAPI:UnitSizeType.obj
 0003:00001658       ?Small@UnitSizeTypes@BWAPI@@3VUnitSizeType@2@B 0046e658     BWAPI:UnitSizeType.obj
 0003:0000165c       ?Medium@UnitSizeTypes@BWAPI@@3VUnitSizeType@2@B 0046e65c     BWAPI:UnitSizeType.obj
 0003:00001660       ?Large@UnitSizeTypes@BWAPI@@3VUnitSizeType@2@B 0046e660     BWAPI:UnitSizeType.obj
 0003:00001664       ?Unknown@DamageTypes@BWAPI@@3VDamageType@2@B 0046e664     BWAPI:DamageType.obj
 0003:00001668       ?None@DamageTypes@BWAPI@@3VDamageType@2@B 0046e668     BWAPI:DamageType.obj
 0003:0000166c       ?Explosive@DamageTypes@BWAPI@@3VDamageType@2@B 0046e66c     BWAPI:DamageType.obj
 0003:00001670       ?Normal@DamageTypes@BWAPI@@3VDamageType@2@B 0046e670     BWAPI:DamageType.obj
 0003:00001674       ?Ignore_Armor@DamageTypes@BWAPI@@3VDamageType@2@B 0046e674     BWAPI:DamageType.obj
 0003:00001678       ?Concussive@DamageTypes@BWAPI@@3VDamageType@2@B 0046e678     BWAPI:DamageType.obj
 0003:0000167c       ?Random@Races@BWAPI@@3VRace@2@B 0046e67c     BWAPI:Race.obj
 0003:00001680       ?Unknown@Races@BWAPI@@3VRace@2@B 0046e680     BWAPI:Race.obj
 0003:00001684       ?None@Races@BWAPI@@3VRace@2@B 0046e684     BWAPI:Race.obj
 0003:00001688       ?Terran@Races@BWAPI@@3VRace@2@B 0046e688     BWAPI:Race.obj
 0003:0000168c       ?Protoss@Races@BWAPI@@3VRace@2@B 0046e68c     BWAPI:Race.obj
 0003:00001690       ?Other@Races@BWAPI@@3VRace@2@B 0046e690     BWAPI:Race.obj
 0003:00001694       ?Greed@GameTypes@BWAPI@@3VGameType@2@B 0046e694     BWAPI:GameType.obj
 0003:00001698       ?Unknown@GameTypes@BWAPI@@3VGameType@2@B 0046e698     BWAPI:GameType.obj
 0003:0000169c       ?None@GameTypes@BWAPI@@3VGameType@2@B 0046e69c     BWAPI:GameType.obj
 0003:000016a0       ?Melee@GameTypes@BWAPI@@3VGameType@2@B 0046e6a0     BWAPI:GameType.obj
 0003:000016a4       ?Sudden_Death@GameTypes@BWAPI@@3VGameType@2@B 0046e6a4     BWAPI:GameType.obj
 0003:000016a8       ?Team_Melee@GameTypes@BWAPI@@3VGameType@2@B 0046e6a8     BWAPI:GameType.obj
 0003:000016ac       ?Free_For_All@GameTypes@BWAPI@@3VGameType@2@B 0046e6ac     BWAPI:GameType.obj
 0003:000016b0       ?Team_Free_For_All@GameTypes@BWAPI@@3VGameType@2@B 0046e6b0     BWAPI:GameType.obj
 0003:000016b4       ?Team_Capture_The_Flag@GameTypes@BWAPI@@3VGameType@2@B 0046e6b4     BWAPI:GameType.obj
 0003:000016b8       ?Slaughter@GameTypes@BWAPI@@3VGameType@2@B 0046e6b8     BWAPI:GameType.obj
 0003:000016bc       ?Top_vs_Bottom@GameTypes@BWAPI@@3VGameType@2@B 0046e6bc     BWAPI:GameType.obj
 0003:000016c0       ?Ladder@GameTypes@BWAPI@@3VGameType@2@B 0046e6c0     BWAPI:GameType.obj
 0003:000016c4       ?Pro_Gamer_League@GameTypes@BWAPI@@3VGameType@2@B 0046e6c4     BWAPI:GameType.obj
 0003:000016c8       ?Capture_The_Flag@GameTypes@BWAPI@@3VGameType@2@B 0046e6c8     BWAPI:GameType.obj
 0003:000016cc       ?Use_Map_Settings@GameTypes@BWAPI@@3VGameType@2@B 0046e6cc     BWAPI:GameType.obj
 0003:000016d0       ?One_on_One@GameTypes@BWAPI@@3VGameType@2@B 0046e6d0     BWAPI:GameType.obj
 0003:000016d4       ?Unknown@Errors@BWAPI@@3VError@2@B 0046e6d4     BWAPI:Error.obj
 0003:000016d8       ?Insufficient_Supply@Errors@BWAPI@@3VError@2@B 0046e6d8     BWAPI:Error.obj
 0003:000016dc       ?None@Errors@BWAPI@@3VError@2@B 0046e6dc     BWAPI:Error.obj
 0003:000016e0       ?Incompatible_TechType@Errors@BWAPI@@3VError@2@B 0046e6e0     BWAPI:Error.obj
 0003:000016e4       ?Unit_Not_Visible@Errors@BWAPI@@3VError@2@B 0046e6e4     BWAPI:Error.obj
 0003:000016e8       ?Already_Researched@Errors@BWAPI@@3VError@2@B 0046e6e8     BWAPI:Error.obj
 0003:000016ec       ?Unreachable_Location@Errors@BWAPI@@3VError@2@B 0046e6ec     BWAPI:Error.obj
 0003:000016f0       ?Insufficient_Space@Errors@BWAPI@@3VError@2@B 0046e6f0     BWAPI:Error.obj
 0003:000016f4       ?Insufficient_Minerals@Errors@BWAPI@@3VError@2@B 0046e6f4     BWAPI:Error.obj
 0003:000016f8       ?Currently_Upgrading@Errors@BWAPI@@3VError@2@B 0046e6f8     BWAPI:Error.obj
 0003:000016fc       ?Incompatible_UnitType@Errors@BWAPI@@3VError@2@B 0046e6fc     BWAPI:Error.obj
 0003:00001700       ?Access_Denied@Errors@BWAPI@@3VError@2@B 0046e700     BWAPI:Error.obj
 0003:00001704       ?Unable_To_Hit@Errors@BWAPI@@3VError@2@B 0046e704     BWAPI:Error.obj
 0003:00001708       ?Insufficient_Ammo@Errors@BWAPI@@3VError@2@B 0046e708     BWAPI:Error.obj
 0003:0000170c       ?Unit_Busy@Errors@BWAPI@@3VError@2@B 0046e70c     BWAPI:Error.obj
 0003:00001710       ?Fully_Upgraded@Errors@BWAPI@@3VError@2@B 0046e710     BWAPI:Error.obj
 0003:00001714       ?Unbuildable_Location@Errors@BWAPI@@3VError@2@B 0046e714     BWAPI:Error.obj
 0003:00001718       ?Out_Of_Range@Errors@BWAPI@@3VError@2@B 0046e718     BWAPI:Error.obj
 0003:0000171c       ?Insufficient_Energy@Errors@BWAPI@@3VError@2@B 0046e71c     BWAPI:Error.obj
 0003:00001720       ?Currently_Researching@Errors@BWAPI@@3VError@2@B 0046e720     BWAPI:Error.obj
 0003:00001724       ?Insufficient_Gas@Errors@BWAPI@@3VError@2@B 0046e724     BWAPI:Error.obj
 0003:00001728       ?Incompatible_State@Errors@BWAPI@@3VError@2@B 0046e728     BWAPI:Error.obj
 0003:0000172c       ?Insufficient_Tech@Errors@BWAPI@@3VError@2@B 0046e72c     BWAPI:Error.obj
 0003:00001730       ?Unit_Not_Owned@Errors@BWAPI@@3VError@2@B 0046e730     BWAPI:Error.obj
 0003:00001734       ?Unknown@UnitCommandTypes@BWAPI@@3VUnitCommandType@2@B 0046e734     BWAPI:UnitCommandType.obj
 0003:00001738       ?Use_Tech_Position@UnitCommandTypes@BWAPI@@3VUnitCommandType@2@B 0046e738     BWAPI:UnitCommandType.obj
 0003:0000173c       ?Morph@UnitCommandTypes@BWAPI@@3VUnitCommandType@2@B 0046e73c     BWAPI:UnitCommandType.obj
 0003:00001740       ?None@UnitCommandTypes@BWAPI@@3VUnitCommandType@2@B 0046e740     BWAPI:UnitCommandType.obj
 0003:00001744       ?Move@UnitCommandTypes@BWAPI@@3VUnitCommandType@2@B 0046e744     BWAPI:UnitCommandType.obj
 0003:00001748       ?Stop@UnitCommandTypes@BWAPI@@3VUnitCommandType@2@B 0046e748     BWAPI:UnitCommandType.obj
 0003:0000174c       ?Return_Cargo@UnitCommandTypes@BWAPI@@3VUnitCommandType@2@B 0046e74c     BWAPI:UnitCommandType.obj
 0003:00001750       ?Unburrow@UnitCommandTypes@BWAPI@@3VUnitCommandType@2@B 0046e750     BWAPI:UnitCommandType.obj
 0003:00001754       ?Siege@UnitCommandTypes@BWAPI@@3VUnitCommandType@2@B 0046e754     BWAPI:UnitCommandType.obj
 0003:00001758       ?Unsiege@UnitCommandTypes@BWAPI@@3VUnitCommandType@2@B 0046e758     BWAPI:UnitCommandType.obj
 0003:0000175c       ?Use_Tech_Unit@UnitCommandTypes@BWAPI@@3VUnitCommandType@2@B 0046e75c     BWAPI:UnitCommandType.obj
 0003:00001760       ?Cancel_Construction@UnitCommandTypes@BWAPI@@3VUnitCommandType@2@B 0046e760     BWAPI:UnitCommandType.obj
 0003:00001764       ?Lift@UnitCommandTypes@BWAPI@@3VUnitCommandType@2@B 0046e764     BWAPI:UnitCommandType.obj
 0003:00001768       ?Train@UnitCommandTypes@BWAPI@@3VUnitCommandType@2@B 0046e768     BWAPI:UnitCommandType.obj
 0003:0000176c       ?Patrol@UnitCommandTypes@BWAPI@@3VUnitCommandType@2@B 0046e76c     BWAPI:UnitCommandType.obj
 0003:00001770       ?Hold_Position@UnitCommandTypes@BWAPI@@3VUnitCommandType@2@B 0046e770     BWAPI:UnitCommandType.obj
 0003:00001774       ?Burrow@UnitCommandTypes@BWAPI@@3VUnitCommandType@2@B 0046e774     BWAPI:UnitCommandType.obj
 0003:00001778       ?Unload_All_Position@UnitCommandTypes@BWAPI@@3VUnitCommandType@2@B 0046e778     BWAPI:UnitCommandType.obj
 0003:0000177c       ?Cancel_Morph@UnitCommandTypes@BWAPI@@3VUnitCommandType@2@B 0046e77c     BWAPI:UnitCommandType.obj
 0003:00001780       ?Cancel_Research@UnitCommandTypes@BWAPI@@3VUnitCommandType@2@B 0046e780     BWAPI:UnitCommandType.obj
 0003:00001784       ?Right_Click_Unit@UnitCommandTypes@BWAPI@@3VUnitCommandType@2@B 0046e784     BWAPI:UnitCommandType.obj
 0003:00001788       ?Land@UnitCommandTypes@BWAPI@@3VUnitCommandType@2@B 0046e788     BWAPI:UnitCommandType.obj
 0003:0000178c       ?Build_Addon@UnitCommandTypes@BWAPI@@3VUnitCommandType@2@B 0046e78c     BWAPI:UnitCommandType.obj
 0003:00001790       ?Attack_Unit@UnitCommandTypes@BWAPI@@3VUnitCommandType@2@B 0046e790     BWAPI:UnitCommandType.obj
 0003:00001794       ?Gather@UnitCommandTypes@BWAPI@@3VUnitCommandType@2@B 0046e794     BWAPI:UnitCommandType.obj
 0003:00001798       ?Unload_All@UnitCommandTypes@BWAPI@@3VUnitCommandType@2@B 0046e798     BWAPI:UnitCommandType.obj
 0003:0000179c       ?Research@UnitCommandTypes@BWAPI@@3VUnitCommandType@2@B 0046e79c     BWAPI:UnitCommandType.obj
 0003:000017a0       ?Decloak@UnitCommandTypes@BWAPI@@3VUnitCommandType@2@B 0046e7a0     BWAPI:UnitCommandType.obj
 0003:000017a4       ?Cancel_Upgrade@UnitCommandTypes@BWAPI@@3VUnitCommandType@2@B 0046e7a4     BWAPI:UnitCommandType.obj
 0003:000017a8       ?Unload@UnitCommandTypes@BWAPI@@3VUnitCommandType@2@B 0046e7a8     BWAPI:UnitCommandType.obj
 0003:000017ac       ?Follow@UnitCommandTypes@BWAPI@@3VUnitCommandType@2@B 0046e7ac     BWAPI:UnitCommandType.obj
 0003:000017b0       ?Use_Tech@UnitCommandTypes@BWAPI@@3VUnitCommandType@2@B 0046e7b0     BWAPI:UnitCommandType.obj
 0003:000017b4       ?Right_Click_Position@UnitCommandTypes@BWAPI@@3VUnitCommandType@2@B 0046e7b4     BWAPI:UnitCommandType.obj
 0003:000017b8       ?Build@UnitCommandTypes@BWAPI@@3VUnitCommandType@2@B 0046e7b8     BWAPI:UnitCommandType.obj
 0003:000017bc       ?Upgrade@UnitCommandTypes@BWAPI@@3VUnitCommandType@2@B 0046e7bc     BWAPI:UnitCommandType.obj
 0003:000017c0       ?Set_Rally_Position@UnitCommandTypes@BWAPI@@3VUnitCommandType@2@B 0046e7c0     BWAPI:UnitCommandType.obj
 0003:000017c4       ?Set_Rally_Unit@UnitCommandTypes@BWAPI@@3VUnitCommandType@2@B 0046e7c4     BWAPI:UnitCommandType.obj
 0003:000017c8       ?Cancel_Train_Slot@UnitCommandTypes@BWAPI@@3VUnitCommandType@2@B 0046e7c8     BWAPI:UnitCommandType.obj
 0003:000017cc       ?Cancel_Addon@UnitCommandTypes@BWAPI@@3VUnitCommandType@2@B 0046e7cc     BWAPI:UnitCommandType.obj
 0003:000017d0       ?Repair@UnitCommandTypes@BWAPI@@3VUnitCommandType@2@B 0046e7d0     BWAPI:UnitCommandType.obj
 0003:000017d4       ?Halt_Construction@UnitCommandTypes@BWAPI@@3VUnitCommandType@2@B 0046e7d4     BWAPI:UnitCommandType.obj
 0003:000017d8       ?Load@UnitCommandTypes@BWAPI@@3VUnitCommandType@2@B 0046e7d8     BWAPI:UnitCommandType.obj
 0003:000017dc       ?Cloak@UnitCommandTypes@BWAPI@@3VUnitCommandType@2@B 0046e7dc     BWAPI:UnitCommandType.obj
 0003:000017e0       ?Cancel_Train@UnitCommandTypes@BWAPI@@3VUnitCommandType@2@B 0046e7e0     BWAPI:UnitCommandType.obj
 0003:000017e4       ?Grey@Colors@BWAPI@@3VColor@2@B 0046e7e4     BWAPI:Color.obj
 0003:000017e8       ?Purple@Colors@BWAPI@@3VColor@2@B 0046e7e8     BWAPI:Color.obj
 0003:000017ec       ?Teal@Colors@BWAPI@@3VColor@2@B 0046e7ec     BWAPI:Color.obj
 0003:000017f0       ?Orange@Colors@BWAPI@@3VColor@2@B 0046e7f0     BWAPI:Color.obj
 0003:000017f4       ?Green@Colors@BWAPI@@3VColor@2@B 0046e7f4     BWAPI:Color.obj
 0003:000017f8       ?Cyan@Colors@BWAPI@@3VColor@2@B 0046e7f8     BWAPI:Color.obj
 0003:000017fc       ?Brown@Colors@BWAPI@@3VColor@2@B 0046e7fc     BWAPI:Color.obj
 0003:00001800       ?Yellow@Colors@BWAPI@@3VColor@2@B 0046e800     BWAPI:Color.obj
 0003:00001804       ?Blue@Colors@BWAPI@@3VColor@2@B 0046e804     BWAPI:Color.obj
 0003:00001808       ?Red@Colors@BWAPI@@3VColor@2@B 0046e808     BWAPI:Color.obj
 0003:0000180c       ?White@Colors@BWAPI@@3VColor@2@B 0046e80c     BWAPI:Color.obj
 0003:00001810       ?Unknown@PlayerTypes@BWAPI@@3VPlayerType@2@B 0046e810     BWAPI:PlayerType.obj
 0003:00001814       ?Computer@PlayerTypes@BWAPI@@3VPlayerType@2@B 0046e814     BWAPI:PlayerType.obj
 0003:00001818       ?PlayerLeft@PlayerTypes@BWAPI@@3VPlayerType@2@B 0046e818     BWAPI:PlayerType.obj
 0003:0000181c       ?ComputerLeft@PlayerTypes@BWAPI@@3VPlayerType@2@B 0046e81c     BWAPI:PlayerType.obj
 0003:00001820       ?RescuePassive@PlayerTypes@BWAPI@@3VPlayerType@2@B 0046e820     BWAPI:PlayerType.obj
 0003:00001824       ?Closed@PlayerTypes@BWAPI@@3VPlayerType@2@B 0046e824     BWAPI:PlayerType.obj
 0003:00001828       ?Neutral@PlayerTypes@BWAPI@@3VPlayerType@2@B 0046e828     BWAPI:PlayerType.obj
 0003:0000182c       ?EitherPreferHuman@PlayerTypes@BWAPI@@3VPlayerType@2@B 0046e82c     BWAPI:PlayerType.obj
 0003:00001830       ?Player@PlayerTypes@BWAPI@@3VPlayerType@2@B 0046e830     BWAPI:PlayerType.obj
 0003:00001834       ?EitherPreferComputer@PlayerTypes@BWAPI@@3VPlayerType@2@B 0046e834     BWAPI:PlayerType.obj
 0003:00001838       ?Gauss_Rifle_Hit@BulletTypes@BWAPI@@3VBulletType@2@B 0046e838     BWAPI:BulletType.obj
 0003:0000183c       ?Unknown@BulletTypes@BWAPI@@3VBulletType@2@B 0046e83c     BWAPI:BulletType.obj
 0003:00001840       ?Phase_Disruptor@BulletTypes@BWAPI@@3VBulletType@2@B 0046e840     BWAPI:BulletType.obj
 0003:00001844       ?EMP_Missile@BulletTypes@BWAPI@@3VBulletType@2@B 0046e844     BWAPI:BulletType.obj
 0003:00001848       ?Optical_Flare_Grenade@BulletTypes@BWAPI@@3VBulletType@2@B 0046e848     BWAPI:BulletType.obj
 0003:0000184c       ?Anti_Matter_Missile@BulletTypes@BWAPI@@3VBulletType@2@B 0046e84c     BWAPI:BulletType.obj
 0003:00001850       ?Pulse_Cannon@BulletTypes@BWAPI@@3VBulletType@2@B 0046e850     BWAPI:BulletType.obj
 0003:00001854       ?None@BulletTypes@BWAPI@@3VBulletType@2@B 0046e854     BWAPI:BulletType.obj
 0003:00001858       ?Consume@BulletTypes@BWAPI@@3VBulletType@2@B 0046e858     BWAPI:BulletType.obj
 0003:0000185c       ?Arclite_Shock_Cannon_Hit@BulletTypes@BWAPI@@3VBulletType@2@B 0046e85c     BWAPI:BulletType.obj
 0003:00001860       ?Sunken_Colony_Tentacle@BulletTypes@BWAPI@@3VBulletType@2@B 0046e860     BWAPI:BulletType.obj
 0003:00001864       ?Longbolt_Missile@BulletTypes@BWAPI@@3VBulletType@2@B 0046e864     BWAPI:BulletType.obj
 0003:00001868       ?Queen_Spell_Carrier@BulletTypes@BWAPI@@3VBulletType@2@B 0046e868     BWAPI:BulletType.obj
 0003:0000186c       ?Subterranean_Spines@BulletTypes@BWAPI@@3VBulletType@2@B 0046e86c     BWAPI:BulletType.obj
 0003:00001870       ?Gemini_Missiles@BulletTypes@BWAPI@@3VBulletType@2@B 0046e870     BWAPI:BulletType.obj
 0003:00001874       ?Neutron_Flare@BulletTypes@BWAPI@@3VBulletType@2@B 0046e874     BWAPI:BulletType.obj
 0003:00001878       ?Burst_Lasers@BulletTypes@BWAPI@@3VBulletType@2@B 0046e878     BWAPI:BulletType.obj
 0003:0000187c       ?Particle_Beam_Hit@BulletTypes@BWAPI@@3VBulletType@2@B 0046e87c     BWAPI:BulletType.obj
 0003:00001880       ?Yamato_Gun@BulletTypes@BWAPI@@3VBulletType@2@B 0046e880     BWAPI:BulletType.obj
 0003:00001884       ?Acid_Spore@BulletTypes@BWAPI@@3VBulletType@2@B 0046e884     BWAPI:BulletType.obj
 0003:00001888       ?Dual_Photon_Blasters_Hit@BulletTypes@BWAPI@@3VBulletType@2@B 0046e888     BWAPI:BulletType.obj
 0003:0000188c       ?Psionic_Shockwave_Hit@BulletTypes@BWAPI@@3VBulletType@2@B 0046e88c     BWAPI:BulletType.obj
 0003:00001890       ?Needle_Spine_Hit@BulletTypes@BWAPI@@3VBulletType@2@B 0046e890     BWAPI:BulletType.obj
 0003:00001894       ?C_10_Canister_Rifle_Hit@BulletTypes@BWAPI@@3VBulletType@2@B 0046e894     BWAPI:BulletType.obj
 0003:00001898       ?ATS_ATA_Laser_Battery@BulletTypes@BWAPI@@3VBulletType@2@B 0046e898     BWAPI:BulletType.obj
 0003:0000189c       ?STA_STS_Cannon_Overlay@BulletTypes@BWAPI@@3VBulletType@2@B 0046e89c     BWAPI:BulletType.obj
 0003:000018a0       ?Invisible@BulletTypes@BWAPI@@3VBulletType@2@B 0046e8a0     BWAPI:BulletType.obj
 0003:000018a4       ?Fusion_Cutter_Hit@BulletTypes@BWAPI@@3VBulletType@2@B 0046e8a4     BWAPI:BulletType.obj
 0003:000018a8       ?Psionic_Storm@BulletTypes@BWAPI@@3VBulletType@2@B 0046e8a8     BWAPI:BulletType.obj
 0003:000018ac       ?Glave_Wurm@BulletTypes@BWAPI@@3VBulletType@2@B 0046e8ac     BWAPI:BulletType.obj
 0003:000018b0       ?Seeker_Spores@BulletTypes@BWAPI@@3VBulletType@2@B 0046e8b0     BWAPI:BulletType.obj
 0003:000018b4       ?Plague_Cloud@BulletTypes@BWAPI@@3VBulletType@2@B 0046e8b4     BWAPI:BulletType.obj
 0003:000018b8       ?Fragmentation_Grenade@BulletTypes@BWAPI@@3VBulletType@2@B 0046e8b8     BWAPI:BulletType.obj
 0003:000018bc       ?Corrosive_Acid_Shot@BulletTypes@BWAPI@@3VBulletType@2@B 0046e8bc     BWAPI:BulletType.obj
 0003:000018c0       ?Halo_Rockets@BulletTypes@BWAPI@@3VBulletType@2@B 0046e8c0     BWAPI:BulletType.obj
 0003:000018c4       ?Unknown@ExplosionTypes@BWAPI@@3VExplosionType@2@B 0046e8c4     BWAPI:ExplosionType.obj
 0003:000018c8       ?Irradiate@ExplosionTypes@BWAPI@@3VExplosionType@2@B 0046e8c8     BWAPI:ExplosionType.obj
 0003:000018cc       ?Consume@ExplosionTypes@BWAPI@@3VExplosionType@2@B 0046e8cc     BWAPI:ExplosionType.obj
 0003:000018d0       ?Restoration@ExplosionTypes@BWAPI@@3VExplosionType@2@B 0046e8d0     BWAPI:ExplosionType.obj
 0003:000018d4       ?Plague@ExplosionTypes@BWAPI@@3VExplosionType@2@B 0046e8d4     BWAPI:ExplosionType.obj
 0003:000018d8       ?Enemy_Splash@ExplosionTypes@BWAPI@@3VExplosionType@2@B 0046e8d8     BWAPI:ExplosionType.obj
 0003:000018dc       ?Dark_Swarm@ExplosionTypes@BWAPI@@3VExplosionType@2@B 0046e8dc     BWAPI:ExplosionType.obj
 0003:000018e0       ?Maelstrom@ExplosionTypes@BWAPI@@3VExplosionType@2@B 0046e8e0     BWAPI:ExplosionType.obj
 0003:000018e4       ?EMP_Shockwave@ExplosionTypes@BWAPI@@3VExplosionType@2@B 0046e8e4     BWAPI:ExplosionType.obj
 0003:000018e8       ?Parasite@ExplosionTypes@BWAPI@@3VExplosionType@2@B 0046e8e8     BWAPI:ExplosionType.obj
 0003:000018ec       ?Normal@ExplosionTypes@BWAPI@@3VExplosionType@2@B 0046e8ec     BWAPI:ExplosionType.obj
 0003:000018f0       ?Broodlings@ExplosionTypes@BWAPI@@3VExplosionType@2@B 0046e8f0     BWAPI:ExplosionType.obj
 0003:000018f4       ?Optical_Flare@ExplosionTypes@BWAPI@@3VExplosionType@2@B 0046e8f4     BWAPI:ExplosionType.obj
 0003:000018f8       ?Lockdown@ExplosionTypes@BWAPI@@3VExplosionType@2@B 0046e8f8     BWAPI:ExplosionType.obj
 0003:000018fc       ?Feedback@ExplosionTypes@BWAPI@@3VExplosionType@2@B 0046e8fc     BWAPI:ExplosionType.obj
 0003:00001900       ?Yamato_Gun@ExplosionTypes@BWAPI@@3VExplosionType@2@B 0046e900     BWAPI:ExplosionType.obj
 0003:00001904       ?Air_Splash@ExplosionTypes@BWAPI@@3VExplosionType@2@B 0046e904     BWAPI:ExplosionType.obj
 0003:00001908       ?Nuclear_Missile@ExplosionTypes@BWAPI@@3VExplosionType@2@B 0046e908     BWAPI:ExplosionType.obj
 0003:0000190c       ?Disruption_Web@ExplosionTypes@BWAPI@@3VExplosionType@2@B 0046e90c     BWAPI:ExplosionType.obj
 0003:00001910       ?Stasis_Field@ExplosionTypes@BWAPI@@3VExplosionType@2@B 0046e910     BWAPI:ExplosionType.obj
 0003:00001914       ?Radial_Splash@ExplosionTypes@BWAPI@@3VExplosionType@2@B 0046e914     BWAPI:ExplosionType.obj
 0003:00001918       ?Corrosive_Acid@ExplosionTypes@BWAPI@@3VExplosionType@2@B 0046e918     BWAPI:ExplosionType.obj
 0003:0000191c       ?Mind_Control@ExplosionTypes@BWAPI@@3VExplosionType@2@B 0046e91c     BWAPI:ExplosionType.obj
 0003:00001920       ?Ensnare@ExplosionTypes@BWAPI@@3VExplosionType@2@B 0046e920     BWAPI:ExplosionType.obj
 0003:00001924       ?RightClickAction@Orders@BWAPI@@3VOrder@2@B 0046e924     BWAPI:Order.obj
 0003:00001928       ?Unknown@Orders@BWAPI@@3VOrder@2@B 0046e928     BWAPI:Order.obj
 0003:0000192c       ?AIPatrol@Orders@BWAPI@@3VOrder@2@B 0046e92c     BWAPI:Order.obj
 0003:00001930       ?PickupIdle@Orders@BWAPI@@3VOrder@2@B 0046e930     BWAPI:Order.obj
 0003:00001934       ?CastMindControl@Orders@BWAPI@@3VOrder@2@B 0046e934     BWAPI:Order.obj
 0003:00001938       ?Nothing3@Orders@BWAPI@@3VOrder@2@B 0046e938     BWAPI:Order.obj
 0003:0000193c       ?CloseDoor@Orders@BWAPI@@3VOrder@2@B 0046e93c     BWAPI:Order.obj
 0003:00001940       ?ShieldBattery@Orders@BWAPI@@3VOrder@2@B 0046e940     BWAPI:Order.obj
 0003:00001944       ?SpreadCreep@Orders@BWAPI@@3VOrder@2@B 0046e944     BWAPI:Order.obj
 0003:00001948       ?CloakNearbyUnits@Orders@BWAPI@@3VOrder@2@B 0046e948     BWAPI:Order.obj
 0003:0000194c       ?FireYamatoGun@Orders@BWAPI@@3VOrder@2@B 0046e94c     BWAPI:Order.obj
 0003:00001950       ?GuardianAspect@Orders@BWAPI@@3VOrder@2@B 0046e950     BWAPI:Order.obj
 0003:00001954       ?MedicHeal1@Orders@BWAPI@@3VOrder@2@B 0046e954     BWAPI:Order.obj
 0003:00001958       ?Enabledoodad@Orders@BWAPI@@3VOrder@2@B 0046e958     BWAPI:Order.obj
 0003:0000195c       ?None@Orders@BWAPI@@3VOrder@2@B 0046e95c     BWAPI:Order.obj
 0003:00001960       ?PlayerGuard@Orders@BWAPI@@3VOrder@2@B 0046e960     BWAPI:Order.obj
 0003:00001964       ?WaitForMinerals@Orders@BWAPI@@3VOrder@2@B 0046e964     BWAPI:Order.obj
 0003:00001968       ?CastRecall@Orders@BWAPI@@3VOrder@2@B 0046e968     BWAPI:Order.obj
 0003:0000196c       ?AttackMove@Orders@BWAPI@@3VOrder@2@B 0046e96c     BWAPI:Order.obj
 0003:00001970       ?ReturnMinerals@Orders@BWAPI@@3VOrder@2@B 0046e970     BWAPI:Order.obj
 0003:00001974       ?CTFCOP1@Orders@BWAPI@@3VOrder@2@B 0046e974     BWAPI:Order.obj
 0003:00001978       ?CastPlague@Orders@BWAPI@@3VOrder@2@B 0046e978     BWAPI:Order.obj
 0003:0000197c       ?InitCreepGrowth@Orders@BWAPI@@3VOrder@2@B 0046e97c     BWAPI:Order.obj
 0003:00001980       ?Move@Orders@BWAPI@@3VOrder@2@B 0046e980     BWAPI:Order.obj
 0003:00001984       ?NukeLaunch@Orders@BWAPI@@3VOrder@2@B 0046e984     BWAPI:Order.obj
 0003:00001988       ?PickupBunker@Orders@BWAPI@@3VOrder@2@B 0046e988     BWAPI:Order.obj
 0003:0000198c       ?DarkArchonMeld@Orders@BWAPI@@3VOrder@2@B 0046e98c     BWAPI:Order.obj
 0003:00001990       ?CastStasisField@Orders@BWAPI@@3VOrder@2@B 0046e990     BWAPI:Order.obj
 0003:00001994       ?Stop@Orders@BWAPI@@3VOrder@2@B 0046e994     BWAPI:Order.obj
 0003:00001998       ?Fatal@Orders@BWAPI@@3VOrder@2@B 0046e998     BWAPI:Order.obj
 0003:0000199c       ?PlaceAddon@Orders@BWAPI@@3VOrder@2@B 0046e99c     BWAPI:Order.obj
 0003:000019a0       ?CastDarkSwarm@Orders@BWAPI@@3VOrder@2@B 0046e9a0     BWAPI:Order.obj
 0003:000019a4       ?ComputerAI@Orders@BWAPI@@3VOrder@2@B 0046e9a4     BWAPI:Order.obj
 0003:000019a8       ?SelfDestrucing@Orders@BWAPI@@3VOrder@2@B 0046e9a8     BWAPI:Order.obj
 0003:000019ac       ?PowerupIdle@Orders@BWAPI@@3VOrder@2@B 0046e9ac     BWAPI:Order.obj
 0003:000019b0       ?Medic@Orders@BWAPI@@3VOrder@2@B 0046e9b0     BWAPI:Order.obj
 0003:000019b4       ?BuildingLiftOff@Orders@BWAPI@@3VOrder@2@B 0046e9b4     BWAPI:Order.obj
 0003:000019b8       ?RechargeShieldsUnit@Orders@BWAPI@@3VOrder@2@B 0046e9b8     BWAPI:Order.obj
 0003:000019bc       ?RescuePassive@Orders@BWAPI@@3VOrder@2@B 0046e9bc     BWAPI:Order.obj
 0003:000019c0       ?NukeWait@Orders@BWAPI@@3VOrder@2@B 0046e9c0     BWAPI:Order.obj
 0003:000019c4       ?Harvest3@Orders@BWAPI@@3VOrder@2@B 0046e9c4     BWAPI:Order.obj
 0003:000019c8       ?StoppingCreepGrowth@Orders@BWAPI@@3VOrder@2@B 0046e9c8     BWAPI:Order.obj
 0003:000019cc       ?ReturnGas@Orders@BWAPI@@3VOrder@2@B 0046e9cc     BWAPI:Order.obj
 0003:000019d0       ?ZergBirth@Orders@BWAPI@@3VOrder@2@B 0046e9d0     BWAPI:Order.obj
 0003:000019d4       ?IncompleteBuilding@Orders@BWAPI@@3VOrder@2@B 0046e9d4     BWAPI:Order.obj
 0003:000019d8       ?EnterTransport@Orders@BWAPI@@3VOrder@2@B 0046e9d8     BWAPI:Order.obj
 0003:000019dc       ?BuildProtoss2@Orders@BWAPI@@3VOrder@2@B 0046e9dc     BWAPI:Order.obj
 0003:000019e0       ?ZergBuildingMorph@Orders@BWAPI@@3VOrder@2@B 0046e9e0     BWAPI:Order.obj
 0003:000019e4       ?CastNuclearStrike@Orders@BWAPI@@3VOrder@2@B 0046e9e4     BWAPI:Order.obj
 0003:000019e8       ?TeleporttoLocation@Orders@BWAPI@@3VOrder@2@B 0046e9e8     BWAPI:Order.obj
 0003:000019ec       ?HoldPosition@Orders@BWAPI@@3VOrder@2@B 0046e9ec     BWAPI:Order.obj
 0003:000019f0       ?Train@Orders@BWAPI@@3VOrder@2@B 0046e9f0     BWAPI:Order.obj
 0003:000019f4       ?Nothing@Orders@BWAPI@@3VOrder@2@B 0046e9f4     BWAPI:Order.obj
 0003:000019f8       ?Patrol@Orders@BWAPI@@3VOrder@2@B 0046e9f8     BWAPI:Order.obj
 0003:000019fc       ?CastOpticalFlare@Orders@BWAPI@@3VOrder@2@B 0046e9fc     BWAPI:Order.obj
 0003:00001a00       ?RallyPointTile@Orders@BWAPI@@3VOrder@2@B 0046ea00     BWAPI:Order.obj
 0003:00001a04       ?ArchonWarp@Orders@BWAPI@@3VOrder@2@B 0046ea04     BWAPI:Order.obj
 0003:00001a08       ?InterceptorReturn@Orders@BWAPI@@3VOrder@2@B 0046ea08     BWAPI:Order.obj
 0003:00001a0c       ?CastLockdown@Orders@BWAPI@@3VOrder@2@B 0046ea0c     BWAPI:Order.obj
 0003:00001a10       ?CastIrradiate@Orders@BWAPI@@3VOrder@2@B 0046ea10     BWAPI:Order.obj
 0003:00001a14       ?HideTrap@Orders@BWAPI@@3VOrder@2@B 0046ea14     BWAPI:Order.obj
 0003:00001a18       ?PickupTransport@Orders@BWAPI@@3VOrder@2@B 0046ea18     BWAPI:Order.obj
 0003:00001a1c       ?UnusedPowerup@Orders@BWAPI@@3VOrder@2@B 0046ea1c     BWAPI:Order.obj
 0003:00001a20       ?CastEMPShockwave@Orders@BWAPI@@3VOrder@2@B 0046ea20     BWAPI:Order.obj
 0003:00001a24       ?CastInfestation@Orders@BWAPI@@3VOrder@2@B 0046ea24     BWAPI:Order.obj
 0003:00001a28       ?Carrier@Orders@BWAPI@@3VOrder@2@B 0046ea28     BWAPI:Order.obj
 0003:00001a2c       ?Harvest4@Orders@BWAPI@@3VOrder@2@B 0046ea2c     BWAPI:Order.obj
 0003:00001a30       ?InfestedCommandCenter@Orders@BWAPI@@3VOrder@2@B 0046ea30     BWAPI:Order.obj
 0003:00001a34       ?InfestingCommandCenter@Orders@BWAPI@@3VOrder@2@B 0046ea34     BWAPI:Order.obj
 0003:00001a38       ?Harvest1@Orders@BWAPI@@3VOrder@2@B 0046ea38     BWAPI:Order.obj
 0003:00001a3c       ?Scanner@Orders@BWAPI@@3VOrder@2@B 0046ea3c     BWAPI:Order.obj
 0003:00001a40       ?CastDefensiveMatrix@Orders@BWAPI@@3VOrder@2@B 0046ea40     BWAPI:Order.obj
 0003:00001a44       ?JunkYardDog@Orders@BWAPI@@3VOrder@2@B 0046ea44     BWAPI:Order.obj
 0003:00001a48       ?UnusedNothing@Orders@BWAPI@@3VOrder@2@B 0046ea48     BWAPI:Order.obj
 0003:00001a4c       ?CompletingArchonsummon@Orders@BWAPI@@3VOrder@2@B 0046ea4c     BWAPI:Order.obj
 0003:00001a50       ?InterceptorAttack@Orders@BWAPI@@3VOrder@2@B 0046ea50     BWAPI:Order.obj
 0003:00001a54       ?CastParasite@Orders@BWAPI@@3VOrder@2@B 0046ea54     BWAPI:Order.obj
 0003:00001a58       ?Burrowing@Orders@BWAPI@@3VOrder@2@B 0046ea58     BWAPI:Order.obj
 0003:00001a5c       ?RallyPointUnit@Orders@BWAPI@@3VOrder@2@B 0046ea5c     BWAPI:Order.obj
 0003:00001a60       ?Disabledoodad@Orders@BWAPI@@3VOrder@2@B 0046ea60     BWAPI:Order.obj
 0003:00001a64       ?Warpin@Orders@BWAPI@@3VOrder@2@B 0046ea64     BWAPI:Order.obj
 0003:00001a68       ?CastSpawnBroodlings@Orders@BWAPI@@3VOrder@2@B 0046ea68     BWAPI:Order.obj
 0003:00001a6c       ?MoveUnload@Orders@BWAPI@@3VOrder@2@B 0046ea6c     BWAPI:Order.obj
 0003:00001a70       ?Burrowed@Orders@BWAPI@@3VOrder@2@B 0046ea70     BWAPI:Order.obj
 0003:00001a74       ?OpenDoor@Orders@BWAPI@@3VOrder@2@B 0046ea74     BWAPI:Order.obj
 0003:00001a78       ?Critter@Orders@BWAPI@@3VOrder@2@B 0046ea78     BWAPI:Order.obj
 0003:00001a7c       ?NukeTrain@Orders@BWAPI@@3VOrder@2@B 0046ea7c     BWAPI:Order.obj
 0003:00001a80       ?Larva@Orders@BWAPI@@3VOrder@2@B 0046ea80     BWAPI:Order.obj
 0003:00001a84       ?Interrupted@Orders@BWAPI@@3VOrder@2@B 0046ea84     BWAPI:Order.obj
 0003:00001a88       ?RevealTrap@Orders@BWAPI@@3VOrder@2@B 0046ea88     BWAPI:Order.obj
 0003:00001a8c       ?CastDisruptionWeb@Orders@BWAPI@@3VOrder@2@B 0046ea8c     BWAPI:Order.obj
 0003:00001a90       ?SpawningLarva@Orders@BWAPI@@3VOrder@2@B 0046ea90     BWAPI:Order.obj
 0003:00001a94       ?HarassMove@Orders@BWAPI@@3VOrder@2@B 0046ea94     BWAPI:Order.obj
 0003:00001a98       ?ComputerReturn@Orders@BWAPI@@3VOrder@2@B 0046ea98     BWAPI:Order.obj
 0003:00001a9c       ?BuildNydusExit@Orders@BWAPI@@3VOrder@2@B 0046ea9c     BWAPI:Order.obj
 0003:00001aa0       ?MedicHeal2@Orders@BWAPI@@3VOrder@2@B 0046eaa0     BWAPI:Order.obj
 0003:00001aa4       ?MoveToMinerals@Orders@BWAPI@@3VOrder@2@B 0046eaa4     BWAPI:Order.obj
 0003:00001aa8       ?Sieging@Orders@BWAPI@@3VOrder@2@B 0046eaa8     BWAPI:Order.obj
 0003:00001aac       ?CastConsume@Orders@BWAPI@@3VOrder@2@B 0046eaac     BWAPI:Order.obj
 0003:00001ab0       ?GuardPost@Orders@BWAPI@@3VOrder@2@B 0046eab0     BWAPI:Order.obj
 0003:00001ab4       ?ConstructingBuilding@Orders@BWAPI@@3VOrder@2@B 0046eab4     BWAPI:Order.obj
 0003:00001ab8       ?Neutral@Orders@BWAPI@@3VOrder@2@B 0046eab8     BWAPI:Order.obj
 0003:00001abc       ?TurretGuard@Orders@BWAPI@@3VOrder@2@B 0046eabc     BWAPI:Order.obj
 0003:00001ac0       ?VultureMine@Orders@BWAPI@@3VOrder@2@B 0046eac0     BWAPI:Order.obj
 0003:00001ac4       ?Hover@Orders@BWAPI@@3VOrder@2@B 0046eac4     BWAPI:Order.obj
 0003:00001ac8       ?CastMaelstrom@Orders@BWAPI@@3VOrder@2@B 0046eac8     BWAPI:Order.obj
 0003:00001acc       ?ScarabAttack@Orders@BWAPI@@3VOrder@2@B 0046eacc     BWAPI:Order.obj
 0003:00001ad0       ?BuildingLand@Orders@BWAPI@@3VOrder@2@B 0046ead0     BWAPI:Order.obj
 0003:00001ad4       ?Unburrowing@Orders@BWAPI@@3VOrder@2@B 0046ead4     BWAPI:Order.obj
 0003:00001ad8       ?HiddenGun@Orders@BWAPI@@3VOrder@2@B 0046ead8     BWAPI:Order.obj
 0003:00001adc       ?DroneLiftOff@Orders@BWAPI@@3VOrder@2@B 0046eadc     BWAPI:Order.obj
 0003:00001ae0       ?CastHallucination@Orders@BWAPI@@3VOrder@2@B 0046eae0     BWAPI:Order.obj
 0003:00001ae4       ?LiftingOff@Orders@BWAPI@@3VOrder@2@B 0046eae4     BWAPI:Order.obj
 0003:00001ae8       ?NukeTrack@Orders@BWAPI@@3VOrder@2@B 0046eae8     BWAPI:Order.obj
 0003:00001aec       ?WaitForGas@Orders@BWAPI@@3VOrder@2@B 0046eaec     BWAPI:Order.obj
 0003:00001af0       ?HealMove@Orders@BWAPI@@3VOrder@2@B 0046eaf0     BWAPI:Order.obj
 0003:00001af4       ?PlaceMine@Orders@BWAPI@@3VOrder@2@B 0046eaf4     BWAPI:Order.obj
 0003:00001af8       ?Harvest2@Orders@BWAPI@@3VOrder@2@B 0046eaf8     BWAPI:Order.obj
 0003:00001afc       ?EnterNydusCanal@Orders@BWAPI@@3VOrder@2@B 0046eafc     BWAPI:Order.obj
 0003:00001b00       ?Decloak@Orders@BWAPI@@3VOrder@2@B 0046eb00     BWAPI:Order.obj
 0003:00001b04       ?CTFCOPInit@Orders@BWAPI@@3VOrder@2@B 0046eb04     BWAPI:Order.obj
 0003:00001b08       ?MiningMinerals@Orders@BWAPI@@3VOrder@2@B 0046eb08     BWAPI:Order.obj
 0003:00001b0c       ?MoveToGas@Orders@BWAPI@@3VOrder@2@B 0046eb0c     BWAPI:Order.obj
 0003:00001b10       ?CTFCOP2@Orders@BWAPI@@3VOrder@2@B 0046eb10     BWAPI:Order.obj
 0003:00001b14       ?Guard@Orders@BWAPI@@3VOrder@2@B 0046eb14     BWAPI:Order.obj
 0003:00001b18       ?PlaceBuilding@Orders@BWAPI@@3VOrder@2@B 0046eb18     BWAPI:Order.obj
 0003:00001b1c       ?Hallucination2@Orders@BWAPI@@3VOrder@2@B 0046eb1c     BWAPI:Order.obj
 0003:00001b20       ?Unsieging@Orders@BWAPI@@3VOrder@2@B 0046eb20     BWAPI:Order.obj
 0003:00001b24       ?Unload@Orders@BWAPI@@3VOrder@2@B 0046eb24     BWAPI:Order.obj
 0003:00001b28       ?Follow@Orders@BWAPI@@3VOrder@2@B 0046eb28     BWAPI:Order.obj
 0003:00001b2c       ?BuildAddon@Orders@BWAPI@@3VOrder@2@B 0046eb2c     BWAPI:Order.obj
 0003:00001b30       ?Upgrade@Orders@BWAPI@@3VOrder@2@B 0046eb30     BWAPI:Order.obj
 0003:00001b34       ?CastPsionicStorm@Orders@BWAPI@@3VOrder@2@B 0046eb34     BWAPI:Order.obj
 0003:00001b38       ?ResetCollision@Orders@BWAPI@@3VOrder@2@B 0046eb38     BWAPI:Order.obj
 0003:00001b3c       ?RechargeShieldsBattery@Orders@BWAPI@@3VOrder@2@B 0046eb3c     BWAPI:Order.obj
 0003:00001b40       ?AttackTile@Orders@BWAPI@@3VOrder@2@B 0046eb40     BWAPI:Order.obj
 0003:00001b44       ?HarvestGas@Orders@BWAPI@@3VOrder@2@B 0046eb44     BWAPI:Order.obj
 0003:00001b48       ?CastScannerSweep@Orders@BWAPI@@3VOrder@2@B 0046eb48     BWAPI:Order.obj
 0003:00001b4c       ?Reaver@Orders@BWAPI@@3VOrder@2@B 0046eb4c     BWAPI:Order.obj
 0003:00001b50       ?TowerGuard@Orders@BWAPI@@3VOrder@2@B 0046eb50     BWAPI:Order.obj
 0003:00001b54       ?ReaverCarrierMove@Orders@BWAPI@@3VOrder@2@B 0046eb54     BWAPI:Order.obj
 0003:00001b58       ?NukeUnit@Orders@BWAPI@@3VOrder@2@B 0046eb58     BWAPI:Order.obj
 0003:00001b5c       ?CastFeedback@Orders@BWAPI@@3VOrder@2@B 0046eb5c     BWAPI:Order.obj
 0003:00001b60       ?Repair@Orders@BWAPI@@3VOrder@2@B 0046eb60     BWAPI:Order.obj
 0003:00001b64       ?BunkerGuard@Orders@BWAPI@@3VOrder@2@B 0046eb64     BWAPI:Order.obj
 0003:00001b68       ?ResearchTech@Orders@BWAPI@@3VOrder@2@B 0046eb68     BWAPI:Order.obj
 0003:00001b6c       ?CarrierIgnore2@Orders@BWAPI@@3VOrder@2@B 0046eb6c     BWAPI:Order.obj
 0003:00001b70       ?CastEnsnare@Orders@BWAPI@@3VOrder@2@B 0046eb70     BWAPI:Order.obj
 0003:00001b74       ?AtkMoveEP@Orders@BWAPI@@3VOrder@2@B 0046eb74     BWAPI:Order.obj
 0003:00001b78       ?AttackUnit@Orders@BWAPI@@3VOrder@2@B 0046eb78     BWAPI:Order.obj
 0003:00001b7c       ?TrainFighter@Orders@BWAPI@@3VOrder@2@B 0046eb7c     BWAPI:Order.obj
 0003:00001b80       ?CastRestoration@Orders@BWAPI@@3VOrder@2@B 0046eb80     BWAPI:Order.obj
 0003:00001b84       ?Cloak@Orders@BWAPI@@3VOrder@2@B 0046eb84     BWAPI:Order.obj
 0003:00001b88       ?Pickup4@Orders@BWAPI@@3VOrder@2@B 0046eb88     BWAPI:Order.obj
 0003:00001b8c       ?ZergUnitMorph@Orders@BWAPI@@3VOrder@2@B 0046eb8c     BWAPI:Order.obj
 0003:00001b90       ?_System_object@?$_Error_objects@H@std@@2V_System_error_category@2@A 0046eb90     main.obj
 0003:00001b94       ?_Generic_object@?$_Error_objects@H@std@@2V_Generic_error_category@2@A 0046eb94     main.obj
 0003:00001b98       ?name@?$EnumData@VSearchMethods@SparCraft@@@SparCraft@@1V?$basic_string@DU?$char_traits@D@std@@V?$allocator@D@2@@std@@A 0046eb98     main.obj
 0003:00001bb0       ?name@?$EnumData@VPlayerToMove@SparCraft@@@SparCraft@@1V?$basic_string@DU?$char_traits@D@std@@V?$allocator@D@2@@std@@A 0046ebb0     main.obj
 0003:00001bc8       ?name@?$EnumData@VPlayers@SparCraft@@@SparCraft@@1V?$basic_string@DU?$char_traits@D@std@@V?$allocator@D@2@@std@@A 0046ebc8     main.obj
 0003:00001be0       ?name@?$EnumData@VSearchNodeType@SparCraft@@@SparCraft@@1V?$basic_string@DU?$char_traits@D@std@@V?$allocator@D@2@@std@@A 0046ebe0     main.obj
 0003:00001bf8       ?name@?$EnumData@VEvaluationMethods@SparCraft@@@SparCraft@@1V?$basic_string@DU?$char_traits@D@std@@V?$allocator@D@2@@std@@A 0046ebf8     main.obj
 0003:00001c10       ?name@?$EnumData@VMoveOrderMethod@SparCraft@@@SparCraft@@1V?$basic_string@DU?$char_traits@D@std@@V?$allocator@D@2@@std@@A 0046ec10     main.obj
 0003:00001c28       ?name@?$EnumData@VPlayerModels@SparCraft@@@SparCraft@@1V?$basic_string@DU?$char_traits@D@std@@V?$allocator@D@2@@std@@A 0046ec28     main.obj
 0003:00001c40       ?_Iostream_object@?$_Error_objects@H@std@@2V_Iostream_error_category@2@A 0046ec40     main.obj
 0003:00001f98       __commode                  0046ef98     MSVCRT:xncommod.obj
 0003:00001f9c       __dowildcard               0046ef9c     MSVCRT:wildcard.obj
 0003:00001fa0       __newmode                  0046efa0     MSVCRT:_newmode.obj
